; ModuleID = '/home/aaa/llvm-arduino-due/build/core/WString.cpp.o.ll'
source_filename = "/home/aaa/.arduino15/packages/arduino/hardware/sam/1.6.12/cores/arduino/WString.cpp"
target datalayout = "e-m:e-p:32:32-Fi8-i64:64-v128:64:128-a:0:32-n32-S64"
target triple = "thumbv7m-none-ebi"

%class.String = type { i8*, i32, i32 }
%class.__FlashStringHelper = type opaque
%class.StringSumHelper = type { %class.String }

$_ZN6String4initEv = comdat any

$_ZNK6StringcvMS_KFvvEEv = comdat any

$_ZNK6String14StringIfHelperEv = comdat any

@_ZZN6StringixEjE19dummy_writable_char = internal global i8 0, align 1, !dbg !0
@.str = private unnamed_addr constant [1 x i8] zeroinitializer, align 1

@_ZN6StringC1EPKc = dso_local unnamed_addr alias %class.String* (%class.String*, i8*), %class.String* (%class.String*, i8*)* @_ZN6StringC2EPKc
@_ZN6StringC1ERKS_ = dso_local unnamed_addr alias %class.String* (%class.String*, %class.String*), %class.String* (%class.String*, %class.String*)* @_ZN6StringC2ERKS_
@_ZN6StringC1EPK19__FlashStringHelper = dso_local unnamed_addr alias %class.String* (%class.String*, %class.__FlashStringHelper*), %class.String* (%class.String*, %class.__FlashStringHelper*)* @_ZN6StringC2EPK19__FlashStringHelper
@_ZN6StringC1EOS_ = dso_local unnamed_addr alias %class.String* (%class.String*, %class.String*), %class.String* (%class.String*, %class.String*)* @_ZN6StringC2EOS_
@_ZN6StringC1EO15StringSumHelper = dso_local unnamed_addr alias %class.String* (%class.String*, %class.StringSumHelper*), %class.String* (%class.String*, %class.StringSumHelper*)* @_ZN6StringC2EO15StringSumHelper
@_ZN6StringC1Ec = dso_local unnamed_addr alias %class.String* (%class.String*, i8), %class.String* (%class.String*, i8)* @_ZN6StringC2Ec
@_ZN6StringC1Ehh = dso_local unnamed_addr alias %class.String* (%class.String*, i8, i8), %class.String* (%class.String*, i8, i8)* @_ZN6StringC2Ehh
@_ZN6StringC1Eih = dso_local unnamed_addr alias %class.String* (%class.String*, i32, i8), %class.String* (%class.String*, i32, i8)* @_ZN6StringC2Eih
@_ZN6StringC1Ejh = dso_local unnamed_addr alias %class.String* (%class.String*, i32, i8), %class.String* (%class.String*, i32, i8)* @_ZN6StringC2Ejh
@_ZN6StringC1Elh = dso_local unnamed_addr alias %class.String* (%class.String*, i32, i8), %class.String* (%class.String*, i32, i8)* @_ZN6StringC2Elh
@_ZN6StringC1Emh = dso_local unnamed_addr alias %class.String* (%class.String*, i32, i8), %class.String* (%class.String*, i32, i8)* @_ZN6StringC2Emh
@_ZN6StringC1Efh = dso_local unnamed_addr alias %class.String* (%class.String*, float, i8), %class.String* (%class.String*, float, i8)* @_ZN6StringC2Efh
@_ZN6StringC1Edh = dso_local unnamed_addr alias %class.String* (%class.String*, double, i8), %class.String* (%class.String*, double, i8)* @_ZN6StringC2Edh
@_ZN6StringD1Ev = dso_local unnamed_addr alias %class.String* (%class.String*), %class.String* (%class.String*)* @_ZN6StringD2Ev

; Function Attrs: noinline nounwind optnone
define dso_local arm_aapcscc %class.String* @_ZN6StringC2EPKc(%class.String* returned %this, i8* %cstr) unnamed_addr #0 align 2 !dbg !313 {
entry:
  %ret_ptr = alloca [12 x i8], align 1
  %ptr = alloca i8*, align 4
  %ptr2 = alloca i8*, align 4
  %i = alloca i32, align 4
  %retval = alloca %class.String*, align 4
  %this.addr = alloca %class.String*, align 4
  %cstr.addr = alloca i8*, align 4
  store %class.String* %this, %class.String** %this.addr, align 4
  call void @llvm.dbg.declare(metadata %class.String** %this.addr, metadata !314, metadata !DIExpression()), !dbg !316
  store i8* %cstr, i8** %cstr.addr, align 4
  call void @llvm.dbg.declare(metadata i8** %cstr.addr, metadata !317, metadata !DIExpression()), !dbg !318
  %this1 = load %class.String*, %class.String** %this.addr, align 4
  store %class.String* %this1, %class.String** %retval, align 4
  call arm_aapcscc void @_ZN6String4initEv(%class.String* %this1), !dbg !319
  %0 = load i8*, i8** %cstr.addr, align 4, !dbg !321
  %tobool = icmp ne i8* %0, null, !dbg !321
  br i1 %tobool, label %if.then, label %if.end, !dbg !323

if.then:                                          ; preds = %entry
  %1 = load i8*, i8** %cstr.addr, align 4, !dbg !324
  %2 = load i8*, i8** %cstr.addr, align 4, !dbg !325
  %call = call arm_aapcscc i32 @strlen(i8* %2), !dbg !326
  %call2 = call arm_aapcscc dereferenceable(12) %class.String* @_ZN6String4copyEPKcj(%class.String* %this1, i8* %1, i32 %call), !dbg !327
  br label %if.end, !dbg !327

if.end:                                           ; preds = %if.then, %entry
  %3 = load %class.String*, %class.String** %retval, align 4, !dbg !328
  br label %dec_start

dec_start:                                        ; preds = %if.end
  %arrayidx = getelementptr inbounds [12 x i8], [12 x i8]* %ret_ptr, i32 0, i32 0
  store i8* %arrayidx, i8** %ptr2, align 4
  store i8* blockaddress(@_ZN6StringC2EPKc, %if.end.RetBlock), i8** %ptr, align 4
  store i32 0, i32* %i, align 4
  br label %dec_cond

dec_cond:                                         ; preds = %dec_add, %dec_start
  %4 = load i32, i32* %i, align 4
  %cmp = icmp slt i32 %4, 12
  br i1 %cmp, label %dec_ing, label %dec_end

dec_ing:                                          ; preds = %dec_cond
  %5 = load i32, i32* %i, align 4
  %6 = load i8*, i8** %ptr, align 4
  %arrayidx1 = getelementptr inbounds i8, i8* %6, i32 %5
  %7 = load i8, i8* %arrayidx1, align 1
  %8 = load i32, i32* %i, align 4
  %arrayidx2 = getelementptr inbounds [12 x i8], [12 x i8]* %ret_ptr, i32 0, i32 %8
  store i8 %7, i8* %arrayidx2, align 1
  %9 = load i32, i32* %i, align 4
  %arrayidx3 = getelementptr inbounds [12 x i8], [12 x i8]* %ret_ptr, i32 0, i32 %9
  %10 = load i8, i8* %arrayidx3, align 1
  %conv = zext i8 %10 to i32
  %xor = xor i32 %conv, 133
  %conv4 = trunc i32 %xor to i8
  %11 = load i32, i32* %i, align 4
  %arrayidx5 = getelementptr inbounds [12 x i8], [12 x i8]* %ret_ptr, i32 0, i32 %11
  store i8 %conv4, i8* %arrayidx5, align 1
  br label %dec_add

dec_add:                                          ; preds = %dec_ing
  %12 = load i32, i32* %i, align 4
  %13 = add i32 %12, 1
  store i32 %13, i32* %i, align 4
  br label %dec_cond

dec_end:                                          ; preds = %dec_cond
  %14 = load i8*, i8** %ptr2, align 4
  br label %dec_jmp

dec_jmp:                                          ; preds = %dec_end
  %15 = phi i8* [ %14, %dec_end ]
  indirectbr i8* %14, [label %if.end.RetBlock]

if.end.RetBlock:                                  ; preds = %dec_jmp
  ret %class.String* %3, !dbg !328
}

; Function Attrs: nounwind readnone speculatable willreturn
declare void @llvm.dbg.declare(metadata, metadata, metadata) #1

; Function Attrs: noinline nounwind optnone
define linkonce_odr dso_local arm_aapcscc void @_ZN6String4initEv(%class.String* %this) #0 comdat align 2 !dbg !329 {
entry:
  %ret_ptr = alloca [12 x i8], align 1
  %ptr = alloca i8*, align 4
  %ptr2 = alloca i8*, align 4
  %i = alloca i32, align 4
  %this.addr = alloca %class.String*, align 4
  store %class.String* %this, %class.String** %this.addr, align 4
  call void @llvm.dbg.declare(metadata %class.String** %this.addr, metadata !330, metadata !DIExpression()), !dbg !331
  %this1 = load %class.String*, %class.String** %this.addr, align 4
  %buffer = getelementptr inbounds %class.String, %class.String* %this1, i32 0, i32 0, !dbg !332
  store i8* null, i8** %buffer, align 4, !dbg !333
  %capacity = getelementptr inbounds %class.String, %class.String* %this1, i32 0, i32 1, !dbg !334
  store i32 0, i32* %capacity, align 4, !dbg !335
  %len = getelementptr inbounds %class.String, %class.String* %this1, i32 0, i32 2, !dbg !336
  store i32 0, i32* %len, align 4, !dbg !337
  br label %dec_start

dec_start:                                        ; preds = %entry
  %arrayidx = getelementptr inbounds [12 x i8], [12 x i8]* %ret_ptr, i32 0, i32 0
  store i8* %arrayidx, i8** %ptr2, align 4
  store i8* blockaddress(@_ZN6String4initEv, %entry.RetBlock), i8** %ptr, align 4
  store i32 0, i32* %i, align 4
  br label %dec_cond

dec_cond:                                         ; preds = %dec_add, %dec_start
  %0 = load i32, i32* %i, align 4
  %cmp = icmp slt i32 %0, 12
  br i1 %cmp, label %dec_ing, label %dec_end

dec_ing:                                          ; preds = %dec_cond
  %1 = load i32, i32* %i, align 4
  %2 = load i8*, i8** %ptr, align 4
  %arrayidx1 = getelementptr inbounds i8, i8* %2, i32 %1
  %3 = load i8, i8* %arrayidx1, align 1
  %4 = load i32, i32* %i, align 4
  %arrayidx2 = getelementptr inbounds [12 x i8], [12 x i8]* %ret_ptr, i32 0, i32 %4
  store i8 %3, i8* %arrayidx2, align 1
  %5 = load i32, i32* %i, align 4
  %arrayidx3 = getelementptr inbounds [12 x i8], [12 x i8]* %ret_ptr, i32 0, i32 %5
  %6 = load i8, i8* %arrayidx3, align 1
  %conv = zext i8 %6 to i32
  %xor = xor i32 %conv, 133
  %conv4 = trunc i32 %xor to i8
  %7 = load i32, i32* %i, align 4
  %arrayidx5 = getelementptr inbounds [12 x i8], [12 x i8]* %ret_ptr, i32 0, i32 %7
  store i8 %conv4, i8* %arrayidx5, align 1
  br label %dec_add

dec_add:                                          ; preds = %dec_ing
  %8 = load i32, i32* %i, align 4
  %9 = add i32 %8, 1
  store i32 %9, i32* %i, align 4
  br label %dec_cond

dec_end:                                          ; preds = %dec_cond
  %10 = load i8*, i8** %ptr2, align 4
  br label %dec_jmp

dec_jmp:                                          ; preds = %dec_end
  %11 = phi i8* [ %10, %dec_end ]
  indirectbr i8* %10, [label %entry.RetBlock]

entry.RetBlock:                                   ; preds = %dec_jmp
  ret void, !dbg !338
}

; Function Attrs: noinline nounwind optnone
define dso_local arm_aapcscc dereferenceable(12) %class.String* @_ZN6String4copyEPKcj(%class.String* %this, i8* %cstr, i32 %length) #0 align 2 !dbg !339 {
entry:
  %ret_ptr = alloca [12 x i8], align 1
  %ptr = alloca i8*, align 4
  %ptr2 = alloca i8*, align 4
  %i = alloca i32, align 4
  %retval = alloca %class.String*, align 4
  %this.addr = alloca %class.String*, align 4
  %cstr.addr = alloca i8*, align 4
  %length.addr = alloca i32, align 4
  store %class.String* %this, %class.String** %this.addr, align 4
  call void @llvm.dbg.declare(metadata %class.String** %this.addr, metadata !340, metadata !DIExpression()), !dbg !341
  store i8* %cstr, i8** %cstr.addr, align 4
  call void @llvm.dbg.declare(metadata i8** %cstr.addr, metadata !342, metadata !DIExpression()), !dbg !343
  store i32 %length, i32* %length.addr, align 4
  call void @llvm.dbg.declare(metadata i32* %length.addr, metadata !344, metadata !DIExpression()), !dbg !345
  %this1 = load %class.String*, %class.String** %this.addr, align 4
  %0 = load i32, i32* %length.addr, align 4, !dbg !346
  %call = call arm_aapcscc zeroext i8 @_ZN6String7reserveEj(%class.String* %this1, i32 %0), !dbg !348
  %tobool = icmp ne i8 %call, 0, !dbg !348
  br i1 %tobool, label %if.end, label %if.then, !dbg !349

if.then:                                          ; preds = %entry
  call arm_aapcscc void @_ZN6String10invalidateEv(%class.String* %this1), !dbg !350
  store %class.String* %this1, %class.String** %retval, align 4, !dbg !352
  br label %return, !dbg !352

if.end:                                           ; preds = %entry
  %1 = load i32, i32* %length.addr, align 4, !dbg !353
  %len = getelementptr inbounds %class.String, %class.String* %this1, i32 0, i32 2, !dbg !354
  store i32 %1, i32* %len, align 4, !dbg !355
  %buffer = getelementptr inbounds %class.String, %class.String* %this1, i32 0, i32 0, !dbg !356
  %2 = load i8*, i8** %buffer, align 4, !dbg !356
  %3 = load i8*, i8** %cstr.addr, align 4, !dbg !357
  %call2 = call arm_aapcscc i8* @strcpy(i8* %2, i8* %3), !dbg !358
  store %class.String* %this1, %class.String** %retval, align 4, !dbg !359
  br label %return, !dbg !359

return:                                           ; preds = %if.end, %if.then
  %4 = load %class.String*, %class.String** %retval, align 4, !dbg !360
  br label %dec_start

dec_start:                                        ; preds = %return
  %arrayidx = getelementptr inbounds [12 x i8], [12 x i8]* %ret_ptr, i32 0, i32 0
  store i8* %arrayidx, i8** %ptr2, align 4
  store i8* blockaddress(@_ZN6String4copyEPKcj, %return.RetBlock), i8** %ptr, align 4
  store i32 0, i32* %i, align 4
  br label %dec_cond

dec_cond:                                         ; preds = %dec_add, %dec_start
  %5 = load i32, i32* %i, align 4
  %cmp = icmp slt i32 %5, 12
  br i1 %cmp, label %dec_ing, label %dec_end

dec_ing:                                          ; preds = %dec_cond
  %6 = load i32, i32* %i, align 4
  %7 = load i8*, i8** %ptr, align 4
  %arrayidx1 = getelementptr inbounds i8, i8* %7, i32 %6
  %8 = load i8, i8* %arrayidx1, align 1
  %9 = load i32, i32* %i, align 4
  %arrayidx2 = getelementptr inbounds [12 x i8], [12 x i8]* %ret_ptr, i32 0, i32 %9
  store i8 %8, i8* %arrayidx2, align 1
  %10 = load i32, i32* %i, align 4
  %arrayidx3 = getelementptr inbounds [12 x i8], [12 x i8]* %ret_ptr, i32 0, i32 %10
  %11 = load i8, i8* %arrayidx3, align 1
  %conv = zext i8 %11 to i32
  %xor = xor i32 %conv, 133
  %conv4 = trunc i32 %xor to i8
  %12 = load i32, i32* %i, align 4
  %arrayidx5 = getelementptr inbounds [12 x i8], [12 x i8]* %ret_ptr, i32 0, i32 %12
  store i8 %conv4, i8* %arrayidx5, align 1
  br label %dec_add

dec_add:                                          ; preds = %dec_ing
  %13 = load i32, i32* %i, align 4
  %14 = add i32 %13, 1
  store i32 %14, i32* %i, align 4
  br label %dec_cond

dec_end:                                          ; preds = %dec_cond
  %15 = load i8*, i8** %ptr2, align 4
  br label %dec_jmp

dec_jmp:                                          ; preds = %dec_end
  %16 = phi i8* [ %15, %dec_end ]
  indirectbr i8* %15, [label %return.RetBlock]

return.RetBlock:                                  ; preds = %dec_jmp
  ret %class.String* %4, !dbg !360
}

declare dso_local arm_aapcscc i32 @strlen(i8*) #2

; Function Attrs: noinline nounwind optnone
define dso_local arm_aapcscc %class.String* @_ZN6StringC2ERKS_(%class.String* returned %this, %class.String* dereferenceable(12) %value) unnamed_addr #0 align 2 !dbg !361 {
entry:
  %ret_ptr = alloca [12 x i8], align 1
  %ptr = alloca i8*, align 4
  %ptr2 = alloca i8*, align 4
  %i = alloca i32, align 4
  %this.addr = alloca %class.String*, align 4
  %value.addr = alloca %class.String*, align 4
  store %class.String* %this, %class.String** %this.addr, align 4
  call void @llvm.dbg.declare(metadata %class.String** %this.addr, metadata !362, metadata !DIExpression()), !dbg !363
  store %class.String* %value, %class.String** %value.addr, align 4
  call void @llvm.dbg.declare(metadata %class.String** %value.addr, metadata !364, metadata !DIExpression()), !dbg !365
  %this1 = load %class.String*, %class.String** %this.addr, align 4
  call arm_aapcscc void @_ZN6String4initEv(%class.String* %this1), !dbg !366
  %0 = load %class.String*, %class.String** %value.addr, align 4, !dbg !368
  %call = call arm_aapcscc dereferenceable(12) %class.String* @_ZN6StringaSERKS_(%class.String* %this1, %class.String* dereferenceable(12) %0), !dbg !369
  br label %dec_start

dec_start:                                        ; preds = %entry
  %arrayidx = getelementptr inbounds [12 x i8], [12 x i8]* %ret_ptr, i32 0, i32 0
  store i8* %arrayidx, i8** %ptr2, align 4
  store i8* blockaddress(@_ZN6StringC2ERKS_, %entry.RetBlock), i8** %ptr, align 4
  store i32 0, i32* %i, align 4
  br label %dec_cond

dec_cond:                                         ; preds = %dec_add, %dec_start
  %1 = load i32, i32* %i, align 4
  %cmp = icmp slt i32 %1, 12
  br i1 %cmp, label %dec_ing, label %dec_end

dec_ing:                                          ; preds = %dec_cond
  %2 = load i32, i32* %i, align 4
  %3 = load i8*, i8** %ptr, align 4
  %arrayidx1 = getelementptr inbounds i8, i8* %3, i32 %2
  %4 = load i8, i8* %arrayidx1, align 1
  %5 = load i32, i32* %i, align 4
  %arrayidx2 = getelementptr inbounds [12 x i8], [12 x i8]* %ret_ptr, i32 0, i32 %5
  store i8 %4, i8* %arrayidx2, align 1
  %6 = load i32, i32* %i, align 4
  %arrayidx3 = getelementptr inbounds [12 x i8], [12 x i8]* %ret_ptr, i32 0, i32 %6
  %7 = load i8, i8* %arrayidx3, align 1
  %conv = zext i8 %7 to i32
  %xor = xor i32 %conv, 133
  %conv4 = trunc i32 %xor to i8
  %8 = load i32, i32* %i, align 4
  %arrayidx5 = getelementptr inbounds [12 x i8], [12 x i8]* %ret_ptr, i32 0, i32 %8
  store i8 %conv4, i8* %arrayidx5, align 1
  br label %dec_add

dec_add:                                          ; preds = %dec_ing
  %9 = load i32, i32* %i, align 4
  %10 = add i32 %9, 1
  store i32 %10, i32* %i, align 4
  br label %dec_cond

dec_end:                                          ; preds = %dec_cond
  %11 = load i8*, i8** %ptr2, align 4
  br label %dec_jmp

dec_jmp:                                          ; preds = %dec_end
  %12 = phi i8* [ %11, %dec_end ]
  indirectbr i8* %11, [label %entry.RetBlock]

entry.RetBlock:                                   ; preds = %dec_jmp
  ret %class.String* %this1, !dbg !370
}

; Function Attrs: noinline nounwind optnone
define dso_local arm_aapcscc dereferenceable(12) %class.String* @_ZN6StringaSERKS_(%class.String* %this, %class.String* dereferenceable(12) %rhs) #0 align 2 !dbg !371 {
entry:
  %ret_ptr = alloca [12 x i8], align 1
  %ptr = alloca i8*, align 4
  %ptr2 = alloca i8*, align 4
  %i = alloca i32, align 4
  %retval = alloca %class.String*, align 4
  %this.addr = alloca %class.String*, align 4
  %rhs.addr = alloca %class.String*, align 4
  store %class.String* %this, %class.String** %this.addr, align 4
  call void @llvm.dbg.declare(metadata %class.String** %this.addr, metadata !372, metadata !DIExpression()), !dbg !373
  store %class.String* %rhs, %class.String** %rhs.addr, align 4
  call void @llvm.dbg.declare(metadata %class.String** %rhs.addr, metadata !374, metadata !DIExpression()), !dbg !375
  %this1 = load %class.String*, %class.String** %this.addr, align 4
  %0 = load %class.String*, %class.String** %rhs.addr, align 4, !dbg !376
  %cmp = icmp eq %class.String* %this1, %0, !dbg !378
  br i1 %cmp, label %if.then, label %if.end, !dbg !379

if.then:                                          ; preds = %entry
  store %class.String* %this1, %class.String** %retval, align 4, !dbg !380
  br label %return, !dbg !380

if.end:                                           ; preds = %entry
  %1 = load %class.String*, %class.String** %rhs.addr, align 4, !dbg !381
  %buffer = getelementptr inbounds %class.String, %class.String* %1, i32 0, i32 0, !dbg !383
  %2 = load i8*, i8** %buffer, align 4, !dbg !383
  %tobool = icmp ne i8* %2, null, !dbg !381
  br i1 %tobool, label %if.then2, label %if.else, !dbg !384

if.then2:                                         ; preds = %if.end
  %3 = load %class.String*, %class.String** %rhs.addr, align 4, !dbg !385
  %buffer3 = getelementptr inbounds %class.String, %class.String* %3, i32 0, i32 0, !dbg !386
  %4 = load i8*, i8** %buffer3, align 4, !dbg !386
  %5 = load %class.String*, %class.String** %rhs.addr, align 4, !dbg !387
  %len = getelementptr inbounds %class.String, %class.String* %5, i32 0, i32 2, !dbg !388
  %6 = load i32, i32* %len, align 4, !dbg !388
  %call = call arm_aapcscc dereferenceable(12) %class.String* @_ZN6String4copyEPKcj(%class.String* %this1, i8* %4, i32 %6), !dbg !389
  br label %if.end4, !dbg !389

if.else:                                          ; preds = %if.end
  call arm_aapcscc void @_ZN6String10invalidateEv(%class.String* %this1), !dbg !390
  br label %if.end4

if.end4:                                          ; preds = %if.else, %if.then2
  store %class.String* %this1, %class.String** %retval, align 4, !dbg !391
  br label %return, !dbg !391

return:                                           ; preds = %if.end4, %if.then
  %7 = load %class.String*, %class.String** %retval, align 4, !dbg !392
  br label %dec_start

dec_start:                                        ; preds = %return
  %arrayidx = getelementptr inbounds [12 x i8], [12 x i8]* %ret_ptr, i32 0, i32 0
  store i8* %arrayidx, i8** %ptr2, align 4
  store i8* blockaddress(@_ZN6StringaSERKS_, %return.RetBlock), i8** %ptr, align 4
  store i32 0, i32* %i, align 4
  br label %dec_cond

dec_cond:                                         ; preds = %dec_add, %dec_start
  %8 = load i32, i32* %i, align 4
  %cmp1 = icmp slt i32 %8, 12
  br i1 %cmp1, label %dec_ing, label %dec_end

dec_ing:                                          ; preds = %dec_cond
  %9 = load i32, i32* %i, align 4
  %10 = load i8*, i8** %ptr, align 4
  %arrayidx1 = getelementptr inbounds i8, i8* %10, i32 %9
  %11 = load i8, i8* %arrayidx1, align 1
  %12 = load i32, i32* %i, align 4
  %arrayidx2 = getelementptr inbounds [12 x i8], [12 x i8]* %ret_ptr, i32 0, i32 %12
  store i8 %11, i8* %arrayidx2, align 1
  %13 = load i32, i32* %i, align 4
  %arrayidx3 = getelementptr inbounds [12 x i8], [12 x i8]* %ret_ptr, i32 0, i32 %13
  %14 = load i8, i8* %arrayidx3, align 1
  %conv = zext i8 %14 to i32
  %xor = xor i32 %conv, 133
  %conv4 = trunc i32 %xor to i8
  %15 = load i32, i32* %i, align 4
  %arrayidx5 = getelementptr inbounds [12 x i8], [12 x i8]* %ret_ptr, i32 0, i32 %15
  store i8 %conv4, i8* %arrayidx5, align 1
  br label %dec_add

dec_add:                                          ; preds = %dec_ing
  %16 = load i32, i32* %i, align 4
  %17 = add i32 %16, 1
  store i32 %17, i32* %i, align 4
  br label %dec_cond

dec_end:                                          ; preds = %dec_cond
  %18 = load i8*, i8** %ptr2, align 4
  br label %dec_jmp

dec_jmp:                                          ; preds = %dec_end
  %19 = phi i8* [ %18, %dec_end ]
  indirectbr i8* %18, [label %return.RetBlock]

return.RetBlock:                                  ; preds = %dec_jmp
  ret %class.String* %7, !dbg !392
}

; Function Attrs: noinline nounwind optnone
define dso_local arm_aapcscc %class.String* @_ZN6StringC2EPK19__FlashStringHelper(%class.String* returned %this, %class.__FlashStringHelper* %pstr) unnamed_addr #0 align 2 !dbg !393 {
entry:
  %ret_ptr = alloca [12 x i8], align 1
  %ptr = alloca i8*, align 4
  %ptr2 = alloca i8*, align 4
  %i = alloca i32, align 4
  %this.addr = alloca %class.String*, align 4
  %pstr.addr = alloca %class.__FlashStringHelper*, align 4
  store %class.String* %this, %class.String** %this.addr, align 4
  call void @llvm.dbg.declare(metadata %class.String** %this.addr, metadata !394, metadata !DIExpression()), !dbg !395
  store %class.__FlashStringHelper* %pstr, %class.__FlashStringHelper** %pstr.addr, align 4
  call void @llvm.dbg.declare(metadata %class.__FlashStringHelper** %pstr.addr, metadata !396, metadata !DIExpression()), !dbg !397
  %this1 = load %class.String*, %class.String** %this.addr, align 4
  call arm_aapcscc void @_ZN6String4initEv(%class.String* %this1), !dbg !398
  %0 = load %class.__FlashStringHelper*, %class.__FlashStringHelper** %pstr.addr, align 4, !dbg !400
  %call = call arm_aapcscc dereferenceable(12) %class.String* @_ZN6StringaSEPK19__FlashStringHelper(%class.String* %this1, %class.__FlashStringHelper* %0), !dbg !401
  br label %dec_start

dec_start:                                        ; preds = %entry
  %arrayidx = getelementptr inbounds [12 x i8], [12 x i8]* %ret_ptr, i32 0, i32 0
  store i8* %arrayidx, i8** %ptr2, align 4
  store i8* blockaddress(@_ZN6StringC2EPK19__FlashStringHelper, %entry.RetBlock), i8** %ptr, align 4
  store i32 0, i32* %i, align 4
  br label %dec_cond

dec_cond:                                         ; preds = %dec_add, %dec_start
  %1 = load i32, i32* %i, align 4
  %cmp = icmp slt i32 %1, 12
  br i1 %cmp, label %dec_ing, label %dec_end

dec_ing:                                          ; preds = %dec_cond
  %2 = load i32, i32* %i, align 4
  %3 = load i8*, i8** %ptr, align 4
  %arrayidx1 = getelementptr inbounds i8, i8* %3, i32 %2
  %4 = load i8, i8* %arrayidx1, align 1
  %5 = load i32, i32* %i, align 4
  %arrayidx2 = getelementptr inbounds [12 x i8], [12 x i8]* %ret_ptr, i32 0, i32 %5
  store i8 %4, i8* %arrayidx2, align 1
  %6 = load i32, i32* %i, align 4
  %arrayidx3 = getelementptr inbounds [12 x i8], [12 x i8]* %ret_ptr, i32 0, i32 %6
  %7 = load i8, i8* %arrayidx3, align 1
  %conv = zext i8 %7 to i32
  %xor = xor i32 %conv, 133
  %conv4 = trunc i32 %xor to i8
  %8 = load i32, i32* %i, align 4
  %arrayidx5 = getelementptr inbounds [12 x i8], [12 x i8]* %ret_ptr, i32 0, i32 %8
  store i8 %conv4, i8* %arrayidx5, align 1
  br label %dec_add

dec_add:                                          ; preds = %dec_ing
  %9 = load i32, i32* %i, align 4
  %10 = add i32 %9, 1
  store i32 %10, i32* %i, align 4
  br label %dec_cond

dec_end:                                          ; preds = %dec_cond
  %11 = load i8*, i8** %ptr2, align 4
  br label %dec_jmp

dec_jmp:                                          ; preds = %dec_end
  %12 = phi i8* [ %11, %dec_end ]
  indirectbr i8* %11, [label %entry.RetBlock]

entry.RetBlock:                                   ; preds = %dec_jmp
  ret %class.String* %this1, !dbg !402
}

; Function Attrs: noinline nounwind optnone
define dso_local arm_aapcscc dereferenceable(12) %class.String* @_ZN6StringaSEPK19__FlashStringHelper(%class.String* %this, %class.__FlashStringHelper* %pstr) #0 align 2 !dbg !403 {
entry:
  %ret_ptr = alloca [12 x i8], align 1
  %ptr = alloca i8*, align 4
  %ptr2 = alloca i8*, align 4
  %i = alloca i32, align 4
  %this.addr = alloca %class.String*, align 4
  %pstr.addr = alloca %class.__FlashStringHelper*, align 4
  store %class.String* %this, %class.String** %this.addr, align 4
  call void @llvm.dbg.declare(metadata %class.String** %this.addr, metadata !404, metadata !DIExpression()), !dbg !405
  store %class.__FlashStringHelper* %pstr, %class.__FlashStringHelper** %pstr.addr, align 4
  call void @llvm.dbg.declare(metadata %class.__FlashStringHelper** %pstr.addr, metadata !406, metadata !DIExpression()), !dbg !407
  %this1 = load %class.String*, %class.String** %this.addr, align 4
  %0 = load %class.__FlashStringHelper*, %class.__FlashStringHelper** %pstr.addr, align 4, !dbg !408
  %tobool = icmp ne %class.__FlashStringHelper* %0, null, !dbg !408
  br i1 %tobool, label %if.then, label %if.else, !dbg !410

if.then:                                          ; preds = %entry
  %1 = load %class.__FlashStringHelper*, %class.__FlashStringHelper** %pstr.addr, align 4, !dbg !411
  %2 = load %class.__FlashStringHelper*, %class.__FlashStringHelper** %pstr.addr, align 4, !dbg !412
  %3 = bitcast %class.__FlashStringHelper* %2 to i8*, !dbg !412
  %call = call arm_aapcscc i32 @strlen(i8* %3), !dbg !412
  %call2 = call arm_aapcscc dereferenceable(12) %class.String* @_ZN6String4copyEPK19__FlashStringHelperj(%class.String* %this1, %class.__FlashStringHelper* %1, i32 %call), !dbg !413
  br label %if.end, !dbg !413

if.else:                                          ; preds = %entry
  call arm_aapcscc void @_ZN6String10invalidateEv(%class.String* %this1), !dbg !414
  br label %if.end

if.end:                                           ; preds = %if.else, %if.then
  br label %dec_start

dec_start:                                        ; preds = %if.end
  %arrayidx = getelementptr inbounds [12 x i8], [12 x i8]* %ret_ptr, i32 0, i32 0
  store i8* %arrayidx, i8** %ptr2, align 4
  store i8* blockaddress(@_ZN6StringaSEPK19__FlashStringHelper, %if.end.RetBlock), i8** %ptr, align 4
  store i32 0, i32* %i, align 4
  br label %dec_cond

dec_cond:                                         ; preds = %dec_add, %dec_start
  %4 = load i32, i32* %i, align 4
  %cmp = icmp slt i32 %4, 12
  br i1 %cmp, label %dec_ing, label %dec_end

dec_ing:                                          ; preds = %dec_cond
  %5 = load i32, i32* %i, align 4
  %6 = load i8*, i8** %ptr, align 4
  %arrayidx1 = getelementptr inbounds i8, i8* %6, i32 %5
  %7 = load i8, i8* %arrayidx1, align 1
  %8 = load i32, i32* %i, align 4
  %arrayidx2 = getelementptr inbounds [12 x i8], [12 x i8]* %ret_ptr, i32 0, i32 %8
  store i8 %7, i8* %arrayidx2, align 1
  %9 = load i32, i32* %i, align 4
  %arrayidx3 = getelementptr inbounds [12 x i8], [12 x i8]* %ret_ptr, i32 0, i32 %9
  %10 = load i8, i8* %arrayidx3, align 1
  %conv = zext i8 %10 to i32
  %xor = xor i32 %conv, 133
  %conv4 = trunc i32 %xor to i8
  %11 = load i32, i32* %i, align 4
  %arrayidx5 = getelementptr inbounds [12 x i8], [12 x i8]* %ret_ptr, i32 0, i32 %11
  store i8 %conv4, i8* %arrayidx5, align 1
  br label %dec_add

dec_add:                                          ; preds = %dec_ing
  %12 = load i32, i32* %i, align 4
  %13 = add i32 %12, 1
  store i32 %13, i32* %i, align 4
  br label %dec_cond

dec_end:                                          ; preds = %dec_cond
  %14 = load i8*, i8** %ptr2, align 4
  br label %dec_jmp

dec_jmp:                                          ; preds = %dec_end
  %15 = phi i8* [ %14, %dec_end ]
  indirectbr i8* %14, [label %if.end.RetBlock]

if.end.RetBlock:                                  ; preds = %dec_jmp
  ret %class.String* %this1, !dbg !415
}

; Function Attrs: noinline nounwind optnone
define dso_local arm_aapcscc %class.String* @_ZN6StringC2EOS_(%class.String* returned %this, %class.String* dereferenceable(12) %rval) unnamed_addr #0 align 2 !dbg !416 {
entry:
  %ret_ptr = alloca [12 x i8], align 1
  %ptr = alloca i8*, align 4
  %ptr2 = alloca i8*, align 4
  %i = alloca i32, align 4
  %this.addr = alloca %class.String*, align 4
  %rval.addr = alloca %class.String*, align 4
  store %class.String* %this, %class.String** %this.addr, align 4
  call void @llvm.dbg.declare(metadata %class.String** %this.addr, metadata !417, metadata !DIExpression()), !dbg !418
  store %class.String* %rval, %class.String** %rval.addr, align 4
  call void @llvm.dbg.declare(metadata %class.String** %rval.addr, metadata !419, metadata !DIExpression()), !dbg !420
  %this1 = load %class.String*, %class.String** %this.addr, align 4
  call arm_aapcscc void @_ZN6String4initEv(%class.String* %this1), !dbg !421
  %0 = load %class.String*, %class.String** %rval.addr, align 4, !dbg !423
  call arm_aapcscc void @_ZN6String4moveERS_(%class.String* %this1, %class.String* dereferenceable(12) %0), !dbg !424
  br label %dec_start

dec_start:                                        ; preds = %entry
  %arrayidx = getelementptr inbounds [12 x i8], [12 x i8]* %ret_ptr, i32 0, i32 0
  store i8* %arrayidx, i8** %ptr2, align 4
  store i8* blockaddress(@_ZN6StringC2EOS_, %entry.RetBlock), i8** %ptr, align 4
  store i32 0, i32* %i, align 4
  br label %dec_cond

dec_cond:                                         ; preds = %dec_add, %dec_start
  %1 = load i32, i32* %i, align 4
  %cmp = icmp slt i32 %1, 12
  br i1 %cmp, label %dec_ing, label %dec_end

dec_ing:                                          ; preds = %dec_cond
  %2 = load i32, i32* %i, align 4
  %3 = load i8*, i8** %ptr, align 4
  %arrayidx1 = getelementptr inbounds i8, i8* %3, i32 %2
  %4 = load i8, i8* %arrayidx1, align 1
  %5 = load i32, i32* %i, align 4
  %arrayidx2 = getelementptr inbounds [12 x i8], [12 x i8]* %ret_ptr, i32 0, i32 %5
  store i8 %4, i8* %arrayidx2, align 1
  %6 = load i32, i32* %i, align 4
  %arrayidx3 = getelementptr inbounds [12 x i8], [12 x i8]* %ret_ptr, i32 0, i32 %6
  %7 = load i8, i8* %arrayidx3, align 1
  %conv = zext i8 %7 to i32
  %xor = xor i32 %conv, 133
  %conv4 = trunc i32 %xor to i8
  %8 = load i32, i32* %i, align 4
  %arrayidx5 = getelementptr inbounds [12 x i8], [12 x i8]* %ret_ptr, i32 0, i32 %8
  store i8 %conv4, i8* %arrayidx5, align 1
  br label %dec_add

dec_add:                                          ; preds = %dec_ing
  %9 = load i32, i32* %i, align 4
  %10 = add i32 %9, 1
  store i32 %10, i32* %i, align 4
  br label %dec_cond

dec_end:                                          ; preds = %dec_cond
  %11 = load i8*, i8** %ptr2, align 4
  br label %dec_jmp

dec_jmp:                                          ; preds = %dec_end
  %12 = phi i8* [ %11, %dec_end ]
  indirectbr i8* %11, [label %entry.RetBlock]

entry.RetBlock:                                   ; preds = %dec_jmp
  ret %class.String* %this1, !dbg !425
}

; Function Attrs: noinline nounwind optnone
define dso_local arm_aapcscc void @_ZN6String4moveERS_(%class.String* %this, %class.String* dereferenceable(12) %rhs) #0 align 2 !dbg !426 {
entry:
  %ret_ptr = alloca [12 x i8], align 1
  %ptr = alloca i8*, align 4
  %ptr2 = alloca i8*, align 4
  %i = alloca i32, align 4
  %this.addr = alloca %class.String*, align 4
  %rhs.addr = alloca %class.String*, align 4
  %tmp = alloca { i32, i32 }, align 4
  store %class.String* %this, %class.String** %this.addr, align 4
  call void @llvm.dbg.declare(metadata %class.String** %this.addr, metadata !427, metadata !DIExpression()), !dbg !428
  store %class.String* %rhs, %class.String** %rhs.addr, align 4
  call void @llvm.dbg.declare(metadata %class.String** %rhs.addr, metadata !429, metadata !DIExpression()), !dbg !430
  %this1 = load %class.String*, %class.String** %this.addr, align 4
  %buffer = getelementptr inbounds %class.String, %class.String* %this1, i32 0, i32 0, !dbg !431
  %0 = load i8*, i8** %buffer, align 4, !dbg !431
  %tobool = icmp ne i8* %0, null, !dbg !431
  br i1 %tobool, label %if.then, label %if.end9, !dbg !433

if.then:                                          ; preds = %entry
  %1 = load %class.String*, %class.String** %rhs.addr, align 4, !dbg !434
  call arm_aapcscc void @_ZNK6StringcvMS_KFvvEEv({ i32, i32 }* sret %tmp, %class.String* %1), !dbg !434
  %2 = load { i32, i32 }, { i32, i32 }* %tmp, align 4, !dbg !434
  %memptr.ptr = extractvalue { i32, i32 } %2, 0, !dbg !434
  %memptr.tobool = icmp ne i32 %memptr.ptr, 0, !dbg !434
  %memptr.adj = extractvalue { i32, i32 } %2, 1, !dbg !434
  %memptr.virtualbit = and i32 %memptr.adj, 1, !dbg !434
  %memptr.isvirtual = icmp ne i32 %memptr.virtualbit, 0, !dbg !434
  %3 = or i1 %memptr.tobool, %memptr.isvirtual, !dbg !434
  br i1 %3, label %land.lhs.true, label %if.else, !dbg !437

land.lhs.true:                                    ; preds = %if.then
  %capacity = getelementptr inbounds %class.String, %class.String* %this1, i32 0, i32 1, !dbg !438
  %4 = load i32, i32* %capacity, align 4, !dbg !438
  %5 = load %class.String*, %class.String** %rhs.addr, align 4, !dbg !439
  %len = getelementptr inbounds %class.String, %class.String* %5, i32 0, i32 2, !dbg !440
  %6 = load i32, i32* %len, align 4, !dbg !440
  %cmp = icmp uge i32 %4, %6, !dbg !441
  br i1 %cmp, label %if.then2, label %if.else, !dbg !442

if.then2:                                         ; preds = %land.lhs.true
  %buffer3 = getelementptr inbounds %class.String, %class.String* %this1, i32 0, i32 0, !dbg !443
  %7 = load i8*, i8** %buffer3, align 4, !dbg !443
  %8 = load %class.String*, %class.String** %rhs.addr, align 4, !dbg !445
  %buffer4 = getelementptr inbounds %class.String, %class.String* %8, i32 0, i32 0, !dbg !446
  %9 = load i8*, i8** %buffer4, align 4, !dbg !446
  %call = call arm_aapcscc i8* @strcpy(i8* %7, i8* %9), !dbg !447
  %10 = load %class.String*, %class.String** %rhs.addr, align 4, !dbg !448
  %len5 = getelementptr inbounds %class.String, %class.String* %10, i32 0, i32 2, !dbg !449
  %11 = load i32, i32* %len5, align 4, !dbg !449
  %len6 = getelementptr inbounds %class.String, %class.String* %this1, i32 0, i32 2, !dbg !450
  store i32 %11, i32* %len6, align 4, !dbg !451
  %12 = load %class.String*, %class.String** %rhs.addr, align 4, !dbg !452
  %len7 = getelementptr inbounds %class.String, %class.String* %12, i32 0, i32 2, !dbg !453
  store i32 0, i32* %len7, align 4, !dbg !454
  br label %return, !dbg !455

if.else:                                          ; preds = %land.lhs.true, %if.then
  %buffer8 = getelementptr inbounds %class.String, %class.String* %this1, i32 0, i32 0, !dbg !456
  %13 = load i8*, i8** %buffer8, align 4, !dbg !456
  call arm_aapcscc void @free(i8* %13) #6, !dbg !458
  br label %if.end

if.end:                                           ; preds = %if.else
  br label %if.end9, !dbg !459

if.end9:                                          ; preds = %if.end, %entry
  %14 = load %class.String*, %class.String** %rhs.addr, align 4, !dbg !460
  %buffer10 = getelementptr inbounds %class.String, %class.String* %14, i32 0, i32 0, !dbg !461
  %15 = load i8*, i8** %buffer10, align 4, !dbg !461
  %buffer11 = getelementptr inbounds %class.String, %class.String* %this1, i32 0, i32 0, !dbg !462
  store i8* %15, i8** %buffer11, align 4, !dbg !463
  %16 = load %class.String*, %class.String** %rhs.addr, align 4, !dbg !464
  %capacity12 = getelementptr inbounds %class.String, %class.String* %16, i32 0, i32 1, !dbg !465
  %17 = load i32, i32* %capacity12, align 4, !dbg !465
  %capacity13 = getelementptr inbounds %class.String, %class.String* %this1, i32 0, i32 1, !dbg !466
  store i32 %17, i32* %capacity13, align 4, !dbg !467
  %18 = load %class.String*, %class.String** %rhs.addr, align 4, !dbg !468
  %len14 = getelementptr inbounds %class.String, %class.String* %18, i32 0, i32 2, !dbg !469
  %19 = load i32, i32* %len14, align 4, !dbg !469
  %len15 = getelementptr inbounds %class.String, %class.String* %this1, i32 0, i32 2, !dbg !470
  store i32 %19, i32* %len15, align 4, !dbg !471
  %20 = load %class.String*, %class.String** %rhs.addr, align 4, !dbg !472
  %buffer16 = getelementptr inbounds %class.String, %class.String* %20, i32 0, i32 0, !dbg !473
  store i8* null, i8** %buffer16, align 4, !dbg !474
  %21 = load %class.String*, %class.String** %rhs.addr, align 4, !dbg !475
  %capacity17 = getelementptr inbounds %class.String, %class.String* %21, i32 0, i32 1, !dbg !476
  store i32 0, i32* %capacity17, align 4, !dbg !477
  %22 = load %class.String*, %class.String** %rhs.addr, align 4, !dbg !478
  %len18 = getelementptr inbounds %class.String, %class.String* %22, i32 0, i32 2, !dbg !479
  store i32 0, i32* %len18, align 4, !dbg !480
  br label %return, !dbg !481

return:                                           ; preds = %if.end9, %if.then2
  br label %dec_start

dec_start:                                        ; preds = %return
  %arrayidx = getelementptr inbounds [12 x i8], [12 x i8]* %ret_ptr, i32 0, i32 0
  store i8* %arrayidx, i8** %ptr2, align 4
  store i8* blockaddress(@_ZN6String4moveERS_, %return.RetBlock), i8** %ptr, align 4
  store i32 0, i32* %i, align 4
  br label %dec_cond

dec_cond:                                         ; preds = %dec_add, %dec_start
  %23 = load i32, i32* %i, align 4
  %cmp1 = icmp slt i32 %23, 12
  br i1 %cmp1, label %dec_ing, label %dec_end

dec_ing:                                          ; preds = %dec_cond
  %24 = load i32, i32* %i, align 4
  %25 = load i8*, i8** %ptr, align 4
  %arrayidx1 = getelementptr inbounds i8, i8* %25, i32 %24
  %26 = load i8, i8* %arrayidx1, align 1
  %27 = load i32, i32* %i, align 4
  %arrayidx2 = getelementptr inbounds [12 x i8], [12 x i8]* %ret_ptr, i32 0, i32 %27
  store i8 %26, i8* %arrayidx2, align 1
  %28 = load i32, i32* %i, align 4
  %arrayidx3 = getelementptr inbounds [12 x i8], [12 x i8]* %ret_ptr, i32 0, i32 %28
  %29 = load i8, i8* %arrayidx3, align 1
  %conv = zext i8 %29 to i32
  %xor = xor i32 %conv, 133
  %conv4 = trunc i32 %xor to i8
  %30 = load i32, i32* %i, align 4
  %arrayidx5 = getelementptr inbounds [12 x i8], [12 x i8]* %ret_ptr, i32 0, i32 %30
  store i8 %conv4, i8* %arrayidx5, align 1
  br label %dec_add

dec_add:                                          ; preds = %dec_ing
  %31 = load i32, i32* %i, align 4
  %32 = add i32 %31, 1
  store i32 %32, i32* %i, align 4
  br label %dec_cond

dec_end:                                          ; preds = %dec_cond
  %33 = load i8*, i8** %ptr2, align 4
  br label %dec_jmp

dec_jmp:                                          ; preds = %dec_end
  %34 = phi i8* [ %33, %dec_end ]
  indirectbr i8* %33, [label %return.RetBlock]

return.RetBlock:                                  ; preds = %dec_jmp
  ret void, !dbg !481
}

; Function Attrs: noinline nounwind optnone
define dso_local arm_aapcscc %class.String* @_ZN6StringC2EO15StringSumHelper(%class.String* returned %this, %class.StringSumHelper* dereferenceable(12) %rval) unnamed_addr #0 align 2 !dbg !482 {
entry:
  %ret_ptr = alloca [12 x i8], align 1
  %ptr = alloca i8*, align 4
  %ptr2 = alloca i8*, align 4
  %i = alloca i32, align 4
  %this.addr = alloca %class.String*, align 4
  %rval.addr = alloca %class.StringSumHelper*, align 4
  store %class.String* %this, %class.String** %this.addr, align 4
  call void @llvm.dbg.declare(metadata %class.String** %this.addr, metadata !483, metadata !DIExpression()), !dbg !484
  store %class.StringSumHelper* %rval, %class.StringSumHelper** %rval.addr, align 4
  call void @llvm.dbg.declare(metadata %class.StringSumHelper** %rval.addr, metadata !485, metadata !DIExpression()), !dbg !486
  %this1 = load %class.String*, %class.String** %this.addr, align 4
  call arm_aapcscc void @_ZN6String4initEv(%class.String* %this1), !dbg !487
  %0 = load %class.StringSumHelper*, %class.StringSumHelper** %rval.addr, align 4, !dbg !489
  %1 = bitcast %class.StringSumHelper* %0 to %class.String*, !dbg !489
  call arm_aapcscc void @_ZN6String4moveERS_(%class.String* %this1, %class.String* dereferenceable(12) %1), !dbg !490
  br label %dec_start

dec_start:                                        ; preds = %entry
  %arrayidx = getelementptr inbounds [12 x i8], [12 x i8]* %ret_ptr, i32 0, i32 0
  store i8* %arrayidx, i8** %ptr2, align 4
  store i8* blockaddress(@_ZN6StringC2EO15StringSumHelper, %entry.RetBlock), i8** %ptr, align 4
  store i32 0, i32* %i, align 4
  br label %dec_cond

dec_cond:                                         ; preds = %dec_add, %dec_start
  %2 = load i32, i32* %i, align 4
  %cmp = icmp slt i32 %2, 12
  br i1 %cmp, label %dec_ing, label %dec_end

dec_ing:                                          ; preds = %dec_cond
  %3 = load i32, i32* %i, align 4
  %4 = load i8*, i8** %ptr, align 4
  %arrayidx1 = getelementptr inbounds i8, i8* %4, i32 %3
  %5 = load i8, i8* %arrayidx1, align 1
  %6 = load i32, i32* %i, align 4
  %arrayidx2 = getelementptr inbounds [12 x i8], [12 x i8]* %ret_ptr, i32 0, i32 %6
  store i8 %5, i8* %arrayidx2, align 1
  %7 = load i32, i32* %i, align 4
  %arrayidx3 = getelementptr inbounds [12 x i8], [12 x i8]* %ret_ptr, i32 0, i32 %7
  %8 = load i8, i8* %arrayidx3, align 1
  %conv = zext i8 %8 to i32
  %xor = xor i32 %conv, 133
  %conv4 = trunc i32 %xor to i8
  %9 = load i32, i32* %i, align 4
  %arrayidx5 = getelementptr inbounds [12 x i8], [12 x i8]* %ret_ptr, i32 0, i32 %9
  store i8 %conv4, i8* %arrayidx5, align 1
  br label %dec_add

dec_add:                                          ; preds = %dec_ing
  %10 = load i32, i32* %i, align 4
  %11 = add i32 %10, 1
  store i32 %11, i32* %i, align 4
  br label %dec_cond

dec_end:                                          ; preds = %dec_cond
  %12 = load i8*, i8** %ptr2, align 4
  br label %dec_jmp

dec_jmp:                                          ; preds = %dec_end
  %13 = phi i8* [ %12, %dec_end ]
  indirectbr i8* %12, [label %entry.RetBlock]

entry.RetBlock:                                   ; preds = %dec_jmp
  ret %class.String* %this1, !dbg !491
}

; Function Attrs: noinline nounwind optnone
define dso_local arm_aapcscc %class.String* @_ZN6StringC2Ec(%class.String* returned %this, i8 zeroext %c) unnamed_addr #0 align 2 !dbg !492 {
entry:
  %ret_ptr = alloca [12 x i8], align 1
  %ptr = alloca i8*, align 4
  %ptr2 = alloca i8*, align 4
  %i = alloca i32, align 4
  %this.addr = alloca %class.String*, align 4
  %c.addr = alloca i8, align 1
  %buf = alloca [2 x i8], align 1
  store %class.String* %this, %class.String** %this.addr, align 4
  call void @llvm.dbg.declare(metadata %class.String** %this.addr, metadata !493, metadata !DIExpression()), !dbg !494
  store i8 %c, i8* %c.addr, align 1
  call void @llvm.dbg.declare(metadata i8* %c.addr, metadata !495, metadata !DIExpression()), !dbg !496
  %this1 = load %class.String*, %class.String** %this.addr, align 4
  call arm_aapcscc void @_ZN6String4initEv(%class.String* %this1), !dbg !497
  call void @llvm.dbg.declare(metadata [2 x i8]* %buf, metadata !499, metadata !DIExpression()), !dbg !503
  %0 = load i8, i8* %c.addr, align 1, !dbg !504
  %arrayidx = getelementptr inbounds [2 x i8], [2 x i8]* %buf, i32 0, i32 0, !dbg !505
  store i8 %0, i8* %arrayidx, align 1, !dbg !506
  %arrayidx2 = getelementptr inbounds [2 x i8], [2 x i8]* %buf, i32 0, i32 1, !dbg !507
  store i8 0, i8* %arrayidx2, align 1, !dbg !508
  %arraydecay = getelementptr inbounds [2 x i8], [2 x i8]* %buf, i32 0, i32 0, !dbg !509
  %call = call arm_aapcscc dereferenceable(12) %class.String* @_ZN6StringaSEPKc(%class.String* %this1, i8* %arraydecay), !dbg !510
  br label %dec_start

dec_start:                                        ; preds = %entry
  %arrayidx1 = getelementptr inbounds [12 x i8], [12 x i8]* %ret_ptr, i32 0, i32 0
  store i8* %arrayidx1, i8** %ptr2, align 4
  store i8* blockaddress(@_ZN6StringC2Ec, %entry.RetBlock), i8** %ptr, align 4
  store i32 0, i32* %i, align 4
  br label %dec_cond

dec_cond:                                         ; preds = %dec_add, %dec_start
  %1 = load i32, i32* %i, align 4
  %cmp = icmp slt i32 %1, 12
  br i1 %cmp, label %dec_ing, label %dec_end

dec_ing:                                          ; preds = %dec_cond
  %2 = load i32, i32* %i, align 4
  %3 = load i8*, i8** %ptr, align 4
  %arrayidx12 = getelementptr inbounds i8, i8* %3, i32 %2
  %4 = load i8, i8* %arrayidx12, align 1
  %5 = load i32, i32* %i, align 4
  %arrayidx23 = getelementptr inbounds [12 x i8], [12 x i8]* %ret_ptr, i32 0, i32 %5
  store i8 %4, i8* %arrayidx23, align 1
  %6 = load i32, i32* %i, align 4
  %arrayidx3 = getelementptr inbounds [12 x i8], [12 x i8]* %ret_ptr, i32 0, i32 %6
  %7 = load i8, i8* %arrayidx3, align 1
  %conv = zext i8 %7 to i32
  %xor = xor i32 %conv, 133
  %conv4 = trunc i32 %xor to i8
  %8 = load i32, i32* %i, align 4
  %arrayidx5 = getelementptr inbounds [12 x i8], [12 x i8]* %ret_ptr, i32 0, i32 %8
  store i8 %conv4, i8* %arrayidx5, align 1
  br label %dec_add

dec_add:                                          ; preds = %dec_ing
  %9 = load i32, i32* %i, align 4
  %10 = add i32 %9, 1
  store i32 %10, i32* %i, align 4
  br label %dec_cond

dec_end:                                          ; preds = %dec_cond
  %11 = load i8*, i8** %ptr2, align 4
  br label %dec_jmp

dec_jmp:                                          ; preds = %dec_end
  %12 = phi i8* [ %11, %dec_end ]
  indirectbr i8* %11, [label %entry.RetBlock]

entry.RetBlock:                                   ; preds = %dec_jmp
  ret %class.String* %this1, !dbg !511
}

; Function Attrs: noinline nounwind optnone
define dso_local arm_aapcscc dereferenceable(12) %class.String* @_ZN6StringaSEPKc(%class.String* %this, i8* %cstr) #0 align 2 !dbg !512 {
entry:
  %ret_ptr = alloca [12 x i8], align 1
  %ptr = alloca i8*, align 4
  %ptr2 = alloca i8*, align 4
  %i = alloca i32, align 4
  %this.addr = alloca %class.String*, align 4
  %cstr.addr = alloca i8*, align 4
  store %class.String* %this, %class.String** %this.addr, align 4
  call void @llvm.dbg.declare(metadata %class.String** %this.addr, metadata !513, metadata !DIExpression()), !dbg !514
  store i8* %cstr, i8** %cstr.addr, align 4
  call void @llvm.dbg.declare(metadata i8** %cstr.addr, metadata !515, metadata !DIExpression()), !dbg !516
  %this1 = load %class.String*, %class.String** %this.addr, align 4
  %0 = load i8*, i8** %cstr.addr, align 4, !dbg !517
  %tobool = icmp ne i8* %0, null, !dbg !517
  br i1 %tobool, label %if.then, label %if.else, !dbg !519

if.then:                                          ; preds = %entry
  %1 = load i8*, i8** %cstr.addr, align 4, !dbg !520
  %2 = load i8*, i8** %cstr.addr, align 4, !dbg !521
  %call = call arm_aapcscc i32 @strlen(i8* %2), !dbg !522
  %call2 = call arm_aapcscc dereferenceable(12) %class.String* @_ZN6String4copyEPKcj(%class.String* %this1, i8* %1, i32 %call), !dbg !523
  br label %if.end, !dbg !523

if.else:                                          ; preds = %entry
  call arm_aapcscc void @_ZN6String10invalidateEv(%class.String* %this1), !dbg !524
  br label %if.end

if.end:                                           ; preds = %if.else, %if.then
  br label %dec_start

dec_start:                                        ; preds = %if.end
  %arrayidx = getelementptr inbounds [12 x i8], [12 x i8]* %ret_ptr, i32 0, i32 0
  store i8* %arrayidx, i8** %ptr2, align 4
  store i8* blockaddress(@_ZN6StringaSEPKc, %if.end.RetBlock), i8** %ptr, align 4
  store i32 0, i32* %i, align 4
  br label %dec_cond

dec_cond:                                         ; preds = %dec_add, %dec_start
  %3 = load i32, i32* %i, align 4
  %cmp = icmp slt i32 %3, 12
  br i1 %cmp, label %dec_ing, label %dec_end

dec_ing:                                          ; preds = %dec_cond
  %4 = load i32, i32* %i, align 4
  %5 = load i8*, i8** %ptr, align 4
  %arrayidx1 = getelementptr inbounds i8, i8* %5, i32 %4
  %6 = load i8, i8* %arrayidx1, align 1
  %7 = load i32, i32* %i, align 4
  %arrayidx2 = getelementptr inbounds [12 x i8], [12 x i8]* %ret_ptr, i32 0, i32 %7
  store i8 %6, i8* %arrayidx2, align 1
  %8 = load i32, i32* %i, align 4
  %arrayidx3 = getelementptr inbounds [12 x i8], [12 x i8]* %ret_ptr, i32 0, i32 %8
  %9 = load i8, i8* %arrayidx3, align 1
  %conv = zext i8 %9 to i32
  %xor = xor i32 %conv, 133
  %conv4 = trunc i32 %xor to i8
  %10 = load i32, i32* %i, align 4
  %arrayidx5 = getelementptr inbounds [12 x i8], [12 x i8]* %ret_ptr, i32 0, i32 %10
  store i8 %conv4, i8* %arrayidx5, align 1
  br label %dec_add

dec_add:                                          ; preds = %dec_ing
  %11 = load i32, i32* %i, align 4
  %12 = add i32 %11, 1
  store i32 %12, i32* %i, align 4
  br label %dec_cond

dec_end:                                          ; preds = %dec_cond
  %13 = load i8*, i8** %ptr2, align 4
  br label %dec_jmp

dec_jmp:                                          ; preds = %dec_end
  %14 = phi i8* [ %13, %dec_end ]
  indirectbr i8* %13, [label %if.end.RetBlock]

if.end.RetBlock:                                  ; preds = %dec_jmp
  ret %class.String* %this1, !dbg !525
}

; Function Attrs: noinline nounwind optnone
define dso_local arm_aapcscc %class.String* @_ZN6StringC2Ehh(%class.String* returned %this, i8 zeroext %value, i8 zeroext %base) unnamed_addr #0 align 2 !dbg !526 {
entry:
  %ret_ptr = alloca [12 x i8], align 1
  %ptr = alloca i8*, align 4
  %ptr2 = alloca i8*, align 4
  %i = alloca i32, align 4
  %this.addr = alloca %class.String*, align 4
  %value.addr = alloca i8, align 1
  %base.addr = alloca i8, align 1
  %buf = alloca [9 x i8], align 1
  store %class.String* %this, %class.String** %this.addr, align 4
  call void @llvm.dbg.declare(metadata %class.String** %this.addr, metadata !527, metadata !DIExpression()), !dbg !528
  store i8 %value, i8* %value.addr, align 1
  call void @llvm.dbg.declare(metadata i8* %value.addr, metadata !529, metadata !DIExpression()), !dbg !530
  store i8 %base, i8* %base.addr, align 1
  call void @llvm.dbg.declare(metadata i8* %base.addr, metadata !531, metadata !DIExpression()), !dbg !532
  %this1 = load %class.String*, %class.String** %this.addr, align 4
  call arm_aapcscc void @_ZN6String4initEv(%class.String* %this1), !dbg !533
  call void @llvm.dbg.declare(metadata [9 x i8]* %buf, metadata !535, metadata !DIExpression()), !dbg !539
  %0 = load i8, i8* %value.addr, align 1, !dbg !540
  %conv = zext i8 %0 to i32, !dbg !540
  %arraydecay = getelementptr inbounds [9 x i8], [9 x i8]* %buf, i32 0, i32 0, !dbg !541
  %1 = load i8, i8* %base.addr, align 1, !dbg !542
  %conv2 = zext i8 %1 to i32, !dbg !542
  %call = call arm_aapcscc i8* @utoa(i32 %conv, i8* %arraydecay, i32 %conv2), !dbg !543
  %arraydecay3 = getelementptr inbounds [9 x i8], [9 x i8]* %buf, i32 0, i32 0, !dbg !544
  %call4 = call arm_aapcscc dereferenceable(12) %class.String* @_ZN6StringaSEPKc(%class.String* %this1, i8* %arraydecay3), !dbg !545
  br label %dec_start

dec_start:                                        ; preds = %entry
  %arrayidx = getelementptr inbounds [12 x i8], [12 x i8]* %ret_ptr, i32 0, i32 0
  store i8* %arrayidx, i8** %ptr2, align 4
  store i8* blockaddress(@_ZN6StringC2Ehh, %entry.RetBlock), i8** %ptr, align 4
  store i32 0, i32* %i, align 4
  br label %dec_cond

dec_cond:                                         ; preds = %dec_add, %dec_start
  %2 = load i32, i32* %i, align 4
  %cmp = icmp slt i32 %2, 12
  br i1 %cmp, label %dec_ing, label %dec_end

dec_ing:                                          ; preds = %dec_cond
  %3 = load i32, i32* %i, align 4
  %4 = load i8*, i8** %ptr, align 4
  %arrayidx1 = getelementptr inbounds i8, i8* %4, i32 %3
  %5 = load i8, i8* %arrayidx1, align 1
  %6 = load i32, i32* %i, align 4
  %arrayidx2 = getelementptr inbounds [12 x i8], [12 x i8]* %ret_ptr, i32 0, i32 %6
  store i8 %5, i8* %arrayidx2, align 1
  %7 = load i32, i32* %i, align 4
  %arrayidx3 = getelementptr inbounds [12 x i8], [12 x i8]* %ret_ptr, i32 0, i32 %7
  %8 = load i8, i8* %arrayidx3, align 1
  %conv1 = zext i8 %8 to i32
  %xor = xor i32 %conv1, 133
  %conv4 = trunc i32 %xor to i8
  %9 = load i32, i32* %i, align 4
  %arrayidx5 = getelementptr inbounds [12 x i8], [12 x i8]* %ret_ptr, i32 0, i32 %9
  store i8 %conv4, i8* %arrayidx5, align 1
  br label %dec_add

dec_add:                                          ; preds = %dec_ing
  %10 = load i32, i32* %i, align 4
  %11 = add i32 %10, 1
  store i32 %11, i32* %i, align 4
  br label %dec_cond

dec_end:                                          ; preds = %dec_cond
  %12 = load i8*, i8** %ptr2, align 4
  br label %dec_jmp

dec_jmp:                                          ; preds = %dec_end
  %13 = phi i8* [ %12, %dec_end ]
  indirectbr i8* %12, [label %entry.RetBlock]

entry.RetBlock:                                   ; preds = %dec_jmp
  ret %class.String* %this1, !dbg !546
}

declare dso_local arm_aapcscc i8* @utoa(i32, i8*, i32) #2

; Function Attrs: noinline nounwind optnone
define dso_local arm_aapcscc %class.String* @_ZN6StringC2Eih(%class.String* returned %this, i32 %value, i8 zeroext %base) unnamed_addr #0 align 2 !dbg !547 {
entry:
  %ret_ptr = alloca [12 x i8], align 1
  %ptr = alloca i8*, align 4
  %ptr2 = alloca i8*, align 4
  %i = alloca i32, align 4
  %this.addr = alloca %class.String*, align 4
  %value.addr = alloca i32, align 4
  %base.addr = alloca i8, align 1
  %buf = alloca [34 x i8], align 1
  store %class.String* %this, %class.String** %this.addr, align 4
  call void @llvm.dbg.declare(metadata %class.String** %this.addr, metadata !548, metadata !DIExpression()), !dbg !549
  store i32 %value, i32* %value.addr, align 4
  call void @llvm.dbg.declare(metadata i32* %value.addr, metadata !550, metadata !DIExpression()), !dbg !551
  store i8 %base, i8* %base.addr, align 1
  call void @llvm.dbg.declare(metadata i8* %base.addr, metadata !552, metadata !DIExpression()), !dbg !553
  %this1 = load %class.String*, %class.String** %this.addr, align 4
  call arm_aapcscc void @_ZN6String4initEv(%class.String* %this1), !dbg !554
  call void @llvm.dbg.declare(metadata [34 x i8]* %buf, metadata !556, metadata !DIExpression()), !dbg !560
  %0 = load i32, i32* %value.addr, align 4, !dbg !561
  %arraydecay = getelementptr inbounds [34 x i8], [34 x i8]* %buf, i32 0, i32 0, !dbg !562
  %1 = load i8, i8* %base.addr, align 1, !dbg !563
  %conv = zext i8 %1 to i32, !dbg !563
  %call = call arm_aapcscc i8* @itoa(i32 %0, i8* %arraydecay, i32 %conv), !dbg !564
  %arraydecay2 = getelementptr inbounds [34 x i8], [34 x i8]* %buf, i32 0, i32 0, !dbg !565
  %call3 = call arm_aapcscc dereferenceable(12) %class.String* @_ZN6StringaSEPKc(%class.String* %this1, i8* %arraydecay2), !dbg !566
  br label %dec_start

dec_start:                                        ; preds = %entry
  %arrayidx = getelementptr inbounds [12 x i8], [12 x i8]* %ret_ptr, i32 0, i32 0
  store i8* %arrayidx, i8** %ptr2, align 4
  store i8* blockaddress(@_ZN6StringC2Eih, %entry.RetBlock), i8** %ptr, align 4
  store i32 0, i32* %i, align 4
  br label %dec_cond

dec_cond:                                         ; preds = %dec_add, %dec_start
  %2 = load i32, i32* %i, align 4
  %cmp = icmp slt i32 %2, 12
  br i1 %cmp, label %dec_ing, label %dec_end

dec_ing:                                          ; preds = %dec_cond
  %3 = load i32, i32* %i, align 4
  %4 = load i8*, i8** %ptr, align 4
  %arrayidx1 = getelementptr inbounds i8, i8* %4, i32 %3
  %5 = load i8, i8* %arrayidx1, align 1
  %6 = load i32, i32* %i, align 4
  %arrayidx2 = getelementptr inbounds [12 x i8], [12 x i8]* %ret_ptr, i32 0, i32 %6
  store i8 %5, i8* %arrayidx2, align 1
  %7 = load i32, i32* %i, align 4
  %arrayidx3 = getelementptr inbounds [12 x i8], [12 x i8]* %ret_ptr, i32 0, i32 %7
  %8 = load i8, i8* %arrayidx3, align 1
  %conv1 = zext i8 %8 to i32
  %xor = xor i32 %conv1, 133
  %conv4 = trunc i32 %xor to i8
  %9 = load i32, i32* %i, align 4
  %arrayidx5 = getelementptr inbounds [12 x i8], [12 x i8]* %ret_ptr, i32 0, i32 %9
  store i8 %conv4, i8* %arrayidx5, align 1
  br label %dec_add

dec_add:                                          ; preds = %dec_ing
  %10 = load i32, i32* %i, align 4
  %11 = add i32 %10, 1
  store i32 %11, i32* %i, align 4
  br label %dec_cond

dec_end:                                          ; preds = %dec_cond
  %12 = load i8*, i8** %ptr2, align 4
  br label %dec_jmp

dec_jmp:                                          ; preds = %dec_end
  %13 = phi i8* [ %12, %dec_end ]
  indirectbr i8* %12, [label %entry.RetBlock]

entry.RetBlock:                                   ; preds = %dec_jmp
  ret %class.String* %this1, !dbg !567
}

declare dso_local arm_aapcscc i8* @itoa(i32, i8*, i32) #2

; Function Attrs: noinline nounwind optnone
define dso_local arm_aapcscc %class.String* @_ZN6StringC2Ejh(%class.String* returned %this, i32 %value, i8 zeroext %base) unnamed_addr #0 align 2 !dbg !568 {
entry:
  %ret_ptr = alloca [12 x i8], align 1
  %ptr = alloca i8*, align 4
  %ptr2 = alloca i8*, align 4
  %i = alloca i32, align 4
  %this.addr = alloca %class.String*, align 4
  %value.addr = alloca i32, align 4
  %base.addr = alloca i8, align 1
  %buf = alloca [33 x i8], align 1
  store %class.String* %this, %class.String** %this.addr, align 4
  call void @llvm.dbg.declare(metadata %class.String** %this.addr, metadata !569, metadata !DIExpression()), !dbg !570
  store i32 %value, i32* %value.addr, align 4
  call void @llvm.dbg.declare(metadata i32* %value.addr, metadata !571, metadata !DIExpression()), !dbg !572
  store i8 %base, i8* %base.addr, align 1
  call void @llvm.dbg.declare(metadata i8* %base.addr, metadata !573, metadata !DIExpression()), !dbg !574
  %this1 = load %class.String*, %class.String** %this.addr, align 4
  call arm_aapcscc void @_ZN6String4initEv(%class.String* %this1), !dbg !575
  call void @llvm.dbg.declare(metadata [33 x i8]* %buf, metadata !577, metadata !DIExpression()), !dbg !581
  %0 = load i32, i32* %value.addr, align 4, !dbg !582
  %arraydecay = getelementptr inbounds [33 x i8], [33 x i8]* %buf, i32 0, i32 0, !dbg !583
  %1 = load i8, i8* %base.addr, align 1, !dbg !584
  %conv = zext i8 %1 to i32, !dbg !584
  %call = call arm_aapcscc i8* @utoa(i32 %0, i8* %arraydecay, i32 %conv), !dbg !585
  %arraydecay2 = getelementptr inbounds [33 x i8], [33 x i8]* %buf, i32 0, i32 0, !dbg !586
  %call3 = call arm_aapcscc dereferenceable(12) %class.String* @_ZN6StringaSEPKc(%class.String* %this1, i8* %arraydecay2), !dbg !587
  br label %dec_start

dec_start:                                        ; preds = %entry
  %arrayidx = getelementptr inbounds [12 x i8], [12 x i8]* %ret_ptr, i32 0, i32 0
  store i8* %arrayidx, i8** %ptr2, align 4
  store i8* blockaddress(@_ZN6StringC2Ejh, %entry.RetBlock), i8** %ptr, align 4
  store i32 0, i32* %i, align 4
  br label %dec_cond

dec_cond:                                         ; preds = %dec_add, %dec_start
  %2 = load i32, i32* %i, align 4
  %cmp = icmp slt i32 %2, 12
  br i1 %cmp, label %dec_ing, label %dec_end

dec_ing:                                          ; preds = %dec_cond
  %3 = load i32, i32* %i, align 4
  %4 = load i8*, i8** %ptr, align 4
  %arrayidx1 = getelementptr inbounds i8, i8* %4, i32 %3
  %5 = load i8, i8* %arrayidx1, align 1
  %6 = load i32, i32* %i, align 4
  %arrayidx2 = getelementptr inbounds [12 x i8], [12 x i8]* %ret_ptr, i32 0, i32 %6
  store i8 %5, i8* %arrayidx2, align 1
  %7 = load i32, i32* %i, align 4
  %arrayidx3 = getelementptr inbounds [12 x i8], [12 x i8]* %ret_ptr, i32 0, i32 %7
  %8 = load i8, i8* %arrayidx3, align 1
  %conv1 = zext i8 %8 to i32
  %xor = xor i32 %conv1, 133
  %conv4 = trunc i32 %xor to i8
  %9 = load i32, i32* %i, align 4
  %arrayidx5 = getelementptr inbounds [12 x i8], [12 x i8]* %ret_ptr, i32 0, i32 %9
  store i8 %conv4, i8* %arrayidx5, align 1
  br label %dec_add

dec_add:                                          ; preds = %dec_ing
  %10 = load i32, i32* %i, align 4
  %11 = add i32 %10, 1
  store i32 %11, i32* %i, align 4
  br label %dec_cond

dec_end:                                          ; preds = %dec_cond
  %12 = load i8*, i8** %ptr2, align 4
  br label %dec_jmp

dec_jmp:                                          ; preds = %dec_end
  %13 = phi i8* [ %12, %dec_end ]
  indirectbr i8* %12, [label %entry.RetBlock]

entry.RetBlock:                                   ; preds = %dec_jmp
  ret %class.String* %this1, !dbg !588
}

; Function Attrs: noinline nounwind optnone
define dso_local arm_aapcscc %class.String* @_ZN6StringC2Elh(%class.String* returned %this, i32 %value, i8 zeroext %base) unnamed_addr #0 align 2 !dbg !589 {
entry:
  %ret_ptr = alloca [12 x i8], align 1
  %ptr = alloca i8*, align 4
  %ptr2 = alloca i8*, align 4
  %i = alloca i32, align 4
  %this.addr = alloca %class.String*, align 4
  %value.addr = alloca i32, align 4
  %base.addr = alloca i8, align 1
  %buf = alloca [34 x i8], align 1
  store %class.String* %this, %class.String** %this.addr, align 4
  call void @llvm.dbg.declare(metadata %class.String** %this.addr, metadata !590, metadata !DIExpression()), !dbg !591
  store i32 %value, i32* %value.addr, align 4
  call void @llvm.dbg.declare(metadata i32* %value.addr, metadata !592, metadata !DIExpression()), !dbg !593
  store i8 %base, i8* %base.addr, align 1
  call void @llvm.dbg.declare(metadata i8* %base.addr, metadata !594, metadata !DIExpression()), !dbg !595
  %this1 = load %class.String*, %class.String** %this.addr, align 4
  call arm_aapcscc void @_ZN6String4initEv(%class.String* %this1), !dbg !596
  call void @llvm.dbg.declare(metadata [34 x i8]* %buf, metadata !598, metadata !DIExpression()), !dbg !599
  %0 = load i32, i32* %value.addr, align 4, !dbg !600
  %arraydecay = getelementptr inbounds [34 x i8], [34 x i8]* %buf, i32 0, i32 0, !dbg !601
  %1 = load i8, i8* %base.addr, align 1, !dbg !602
  %conv = zext i8 %1 to i32, !dbg !602
  %call = call arm_aapcscc i8* @ltoa(i32 %0, i8* %arraydecay, i32 %conv), !dbg !603
  %arraydecay2 = getelementptr inbounds [34 x i8], [34 x i8]* %buf, i32 0, i32 0, !dbg !604
  %call3 = call arm_aapcscc dereferenceable(12) %class.String* @_ZN6StringaSEPKc(%class.String* %this1, i8* %arraydecay2), !dbg !605
  br label %dec_start

dec_start:                                        ; preds = %entry
  %arrayidx = getelementptr inbounds [12 x i8], [12 x i8]* %ret_ptr, i32 0, i32 0
  store i8* %arrayidx, i8** %ptr2, align 4
  store i8* blockaddress(@_ZN6StringC2Elh, %entry.RetBlock), i8** %ptr, align 4
  store i32 0, i32* %i, align 4
  br label %dec_cond

dec_cond:                                         ; preds = %dec_add, %dec_start
  %2 = load i32, i32* %i, align 4
  %cmp = icmp slt i32 %2, 12
  br i1 %cmp, label %dec_ing, label %dec_end

dec_ing:                                          ; preds = %dec_cond
  %3 = load i32, i32* %i, align 4
  %4 = load i8*, i8** %ptr, align 4
  %arrayidx1 = getelementptr inbounds i8, i8* %4, i32 %3
  %5 = load i8, i8* %arrayidx1, align 1
  %6 = load i32, i32* %i, align 4
  %arrayidx2 = getelementptr inbounds [12 x i8], [12 x i8]* %ret_ptr, i32 0, i32 %6
  store i8 %5, i8* %arrayidx2, align 1
  %7 = load i32, i32* %i, align 4
  %arrayidx3 = getelementptr inbounds [12 x i8], [12 x i8]* %ret_ptr, i32 0, i32 %7
  %8 = load i8, i8* %arrayidx3, align 1
  %conv1 = zext i8 %8 to i32
  %xor = xor i32 %conv1, 133
  %conv4 = trunc i32 %xor to i8
  %9 = load i32, i32* %i, align 4
  %arrayidx5 = getelementptr inbounds [12 x i8], [12 x i8]* %ret_ptr, i32 0, i32 %9
  store i8 %conv4, i8* %arrayidx5, align 1
  br label %dec_add

dec_add:                                          ; preds = %dec_ing
  %10 = load i32, i32* %i, align 4
  %11 = add i32 %10, 1
  store i32 %11, i32* %i, align 4
  br label %dec_cond

dec_end:                                          ; preds = %dec_cond
  %12 = load i8*, i8** %ptr2, align 4
  br label %dec_jmp

dec_jmp:                                          ; preds = %dec_end
  %13 = phi i8* [ %12, %dec_end ]
  indirectbr i8* %12, [label %entry.RetBlock]

entry.RetBlock:                                   ; preds = %dec_jmp
  ret %class.String* %this1, !dbg !606
}

declare dso_local arm_aapcscc i8* @ltoa(i32, i8*, i32) #2

; Function Attrs: noinline nounwind optnone
define dso_local arm_aapcscc %class.String* @_ZN6StringC2Emh(%class.String* returned %this, i32 %value, i8 zeroext %base) unnamed_addr #0 align 2 !dbg !607 {
entry:
  %ret_ptr = alloca [12 x i8], align 1
  %ptr = alloca i8*, align 4
  %ptr2 = alloca i8*, align 4
  %i = alloca i32, align 4
  %this.addr = alloca %class.String*, align 4
  %value.addr = alloca i32, align 4
  %base.addr = alloca i8, align 1
  %buf = alloca [33 x i8], align 1
  store %class.String* %this, %class.String** %this.addr, align 4
  call void @llvm.dbg.declare(metadata %class.String** %this.addr, metadata !608, metadata !DIExpression()), !dbg !609
  store i32 %value, i32* %value.addr, align 4
  call void @llvm.dbg.declare(metadata i32* %value.addr, metadata !610, metadata !DIExpression()), !dbg !611
  store i8 %base, i8* %base.addr, align 1
  call void @llvm.dbg.declare(metadata i8* %base.addr, metadata !612, metadata !DIExpression()), !dbg !613
  %this1 = load %class.String*, %class.String** %this.addr, align 4
  call arm_aapcscc void @_ZN6String4initEv(%class.String* %this1), !dbg !614
  call void @llvm.dbg.declare(metadata [33 x i8]* %buf, metadata !616, metadata !DIExpression()), !dbg !617
  %0 = load i32, i32* %value.addr, align 4, !dbg !618
  %arraydecay = getelementptr inbounds [33 x i8], [33 x i8]* %buf, i32 0, i32 0, !dbg !619
  %1 = load i8, i8* %base.addr, align 1, !dbg !620
  %conv = zext i8 %1 to i32, !dbg !620
  %call = call arm_aapcscc i8* @ultoa(i32 %0, i8* %arraydecay, i32 %conv), !dbg !621
  %arraydecay2 = getelementptr inbounds [33 x i8], [33 x i8]* %buf, i32 0, i32 0, !dbg !622
  %call3 = call arm_aapcscc dereferenceable(12) %class.String* @_ZN6StringaSEPKc(%class.String* %this1, i8* %arraydecay2), !dbg !623
  br label %dec_start

dec_start:                                        ; preds = %entry
  %arrayidx = getelementptr inbounds [12 x i8], [12 x i8]* %ret_ptr, i32 0, i32 0
  store i8* %arrayidx, i8** %ptr2, align 4
  store i8* blockaddress(@_ZN6StringC2Emh, %entry.RetBlock), i8** %ptr, align 4
  store i32 0, i32* %i, align 4
  br label %dec_cond

dec_cond:                                         ; preds = %dec_add, %dec_start
  %2 = load i32, i32* %i, align 4
  %cmp = icmp slt i32 %2, 12
  br i1 %cmp, label %dec_ing, label %dec_end

dec_ing:                                          ; preds = %dec_cond
  %3 = load i32, i32* %i, align 4
  %4 = load i8*, i8** %ptr, align 4
  %arrayidx1 = getelementptr inbounds i8, i8* %4, i32 %3
  %5 = load i8, i8* %arrayidx1, align 1
  %6 = load i32, i32* %i, align 4
  %arrayidx2 = getelementptr inbounds [12 x i8], [12 x i8]* %ret_ptr, i32 0, i32 %6
  store i8 %5, i8* %arrayidx2, align 1
  %7 = load i32, i32* %i, align 4
  %arrayidx3 = getelementptr inbounds [12 x i8], [12 x i8]* %ret_ptr, i32 0, i32 %7
  %8 = load i8, i8* %arrayidx3, align 1
  %conv1 = zext i8 %8 to i32
  %xor = xor i32 %conv1, 133
  %conv4 = trunc i32 %xor to i8
  %9 = load i32, i32* %i, align 4
  %arrayidx5 = getelementptr inbounds [12 x i8], [12 x i8]* %ret_ptr, i32 0, i32 %9
  store i8 %conv4, i8* %arrayidx5, align 1
  br label %dec_add

dec_add:                                          ; preds = %dec_ing
  %10 = load i32, i32* %i, align 4
  %11 = add i32 %10, 1
  store i32 %11, i32* %i, align 4
  br label %dec_cond

dec_end:                                          ; preds = %dec_cond
  %12 = load i8*, i8** %ptr2, align 4
  br label %dec_jmp

dec_jmp:                                          ; preds = %dec_end
  %13 = phi i8* [ %12, %dec_end ]
  indirectbr i8* %12, [label %entry.RetBlock]

entry.RetBlock:                                   ; preds = %dec_jmp
  ret %class.String* %this1, !dbg !624
}

declare dso_local arm_aapcscc i8* @ultoa(i32, i8*, i32) #2

; Function Attrs: noinline nounwind optnone
define dso_local arm_aapcscc %class.String* @_ZN6StringC2Efh(%class.String* returned %this, float %value, i8 zeroext %decimalPlaces) unnamed_addr #0 align 2 !dbg !625 {
entry:
  %ret_ptr = alloca [12 x i8], align 1
  %ptr = alloca i8*, align 4
  %ptr2 = alloca i8*, align 4
  %i = alloca i32, align 4
  %this.addr = alloca %class.String*, align 4
  %value.addr = alloca float, align 4
  %decimalPlaces.addr = alloca i8, align 1
  %buf = alloca [33 x i8], align 1
  store %class.String* %this, %class.String** %this.addr, align 4
  call void @llvm.dbg.declare(metadata %class.String** %this.addr, metadata !626, metadata !DIExpression()), !dbg !627
  store float %value, float* %value.addr, align 4
  call void @llvm.dbg.declare(metadata float* %value.addr, metadata !628, metadata !DIExpression()), !dbg !629
  store i8 %decimalPlaces, i8* %decimalPlaces.addr, align 1
  call void @llvm.dbg.declare(metadata i8* %decimalPlaces.addr, metadata !630, metadata !DIExpression()), !dbg !631
  %this1 = load %class.String*, %class.String** %this.addr, align 4
  call arm_aapcscc void @_ZN6String4initEv(%class.String* %this1), !dbg !632
  call void @llvm.dbg.declare(metadata [33 x i8]* %buf, metadata !634, metadata !DIExpression()), !dbg !635
  %0 = load float, float* %value.addr, align 4, !dbg !636
  %conv = fpext float %0 to double, !dbg !636
  %1 = load i8, i8* %decimalPlaces.addr, align 1, !dbg !637
  %conv2 = zext i8 %1 to i32, !dbg !637
  %add = add nsw i32 %conv2, 2, !dbg !638
  %conv3 = trunc i32 %add to i8, !dbg !639
  %2 = load i8, i8* %decimalPlaces.addr, align 1, !dbg !640
  %arraydecay = getelementptr inbounds [33 x i8], [33 x i8]* %buf, i32 0, i32 0, !dbg !641
  %call = call arm_aapcscc i8* @dtostrf(double %conv, i8 signext %conv3, i8 zeroext %2, i8* %arraydecay), !dbg !642
  %call4 = call arm_aapcscc dereferenceable(12) %class.String* @_ZN6StringaSEPKc(%class.String* %this1, i8* %call), !dbg !643
  br label %dec_start

dec_start:                                        ; preds = %entry
  %arrayidx = getelementptr inbounds [12 x i8], [12 x i8]* %ret_ptr, i32 0, i32 0
  store i8* %arrayidx, i8** %ptr2, align 4
  store i8* blockaddress(@_ZN6StringC2Efh, %entry.RetBlock), i8** %ptr, align 4
  store i32 0, i32* %i, align 4
  br label %dec_cond

dec_cond:                                         ; preds = %dec_add, %dec_start
  %3 = load i32, i32* %i, align 4
  %cmp = icmp slt i32 %3, 12
  br i1 %cmp, label %dec_ing, label %dec_end

dec_ing:                                          ; preds = %dec_cond
  %4 = load i32, i32* %i, align 4
  %5 = load i8*, i8** %ptr, align 4
  %arrayidx1 = getelementptr inbounds i8, i8* %5, i32 %4
  %6 = load i8, i8* %arrayidx1, align 1
  %7 = load i32, i32* %i, align 4
  %arrayidx2 = getelementptr inbounds [12 x i8], [12 x i8]* %ret_ptr, i32 0, i32 %7
  store i8 %6, i8* %arrayidx2, align 1
  %8 = load i32, i32* %i, align 4
  %arrayidx3 = getelementptr inbounds [12 x i8], [12 x i8]* %ret_ptr, i32 0, i32 %8
  %9 = load i8, i8* %arrayidx3, align 1
  %conv1 = zext i8 %9 to i32
  %xor = xor i32 %conv1, 133
  %conv4 = trunc i32 %xor to i8
  %10 = load i32, i32* %i, align 4
  %arrayidx5 = getelementptr inbounds [12 x i8], [12 x i8]* %ret_ptr, i32 0, i32 %10
  store i8 %conv4, i8* %arrayidx5, align 1
  br label %dec_add

dec_add:                                          ; preds = %dec_ing
  %11 = load i32, i32* %i, align 4
  %12 = add i32 %11, 1
  store i32 %12, i32* %i, align 4
  br label %dec_cond

dec_end:                                          ; preds = %dec_cond
  %13 = load i8*, i8** %ptr2, align 4
  br label %dec_jmp

dec_jmp:                                          ; preds = %dec_end
  %14 = phi i8* [ %13, %dec_end ]
  indirectbr i8* %13, [label %entry.RetBlock]

entry.RetBlock:                                   ; preds = %dec_jmp
  ret %class.String* %this1, !dbg !644
}

declare dso_local arm_aapcscc i8* @dtostrf(double, i8 signext, i8 zeroext, i8*) #2

; Function Attrs: noinline nounwind optnone
define dso_local arm_aapcscc %class.String* @_ZN6StringC2Edh(%class.String* returned %this, double %value, i8 zeroext %decimalPlaces) unnamed_addr #0 align 2 !dbg !645 {
entry:
  %ret_ptr = alloca [12 x i8], align 1
  %ptr = alloca i8*, align 4
  %ptr2 = alloca i8*, align 4
  %i = alloca i32, align 4
  %this.addr = alloca %class.String*, align 4
  %value.addr = alloca double, align 8
  %decimalPlaces.addr = alloca i8, align 1
  %buf = alloca [33 x i8], align 1
  store %class.String* %this, %class.String** %this.addr, align 4
  call void @llvm.dbg.declare(metadata %class.String** %this.addr, metadata !646, metadata !DIExpression()), !dbg !647
  store double %value, double* %value.addr, align 8
  call void @llvm.dbg.declare(metadata double* %value.addr, metadata !648, metadata !DIExpression()), !dbg !649
  store i8 %decimalPlaces, i8* %decimalPlaces.addr, align 1
  call void @llvm.dbg.declare(metadata i8* %decimalPlaces.addr, metadata !650, metadata !DIExpression()), !dbg !651
  %this1 = load %class.String*, %class.String** %this.addr, align 4
  call arm_aapcscc void @_ZN6String4initEv(%class.String* %this1), !dbg !652
  call void @llvm.dbg.declare(metadata [33 x i8]* %buf, metadata !654, metadata !DIExpression()), !dbg !655
  %0 = load double, double* %value.addr, align 8, !dbg !656
  %1 = load i8, i8* %decimalPlaces.addr, align 1, !dbg !657
  %conv = zext i8 %1 to i32, !dbg !657
  %add = add nsw i32 %conv, 2, !dbg !658
  %conv2 = trunc i32 %add to i8, !dbg !659
  %2 = load i8, i8* %decimalPlaces.addr, align 1, !dbg !660
  %arraydecay = getelementptr inbounds [33 x i8], [33 x i8]* %buf, i32 0, i32 0, !dbg !661
  %call = call arm_aapcscc i8* @dtostrf(double %0, i8 signext %conv2, i8 zeroext %2, i8* %arraydecay), !dbg !662
  %call3 = call arm_aapcscc dereferenceable(12) %class.String* @_ZN6StringaSEPKc(%class.String* %this1, i8* %call), !dbg !663
  br label %dec_start

dec_start:                                        ; preds = %entry
  %arrayidx = getelementptr inbounds [12 x i8], [12 x i8]* %ret_ptr, i32 0, i32 0
  store i8* %arrayidx, i8** %ptr2, align 4
  store i8* blockaddress(@_ZN6StringC2Edh, %entry.RetBlock), i8** %ptr, align 4
  store i32 0, i32* %i, align 4
  br label %dec_cond

dec_cond:                                         ; preds = %dec_add, %dec_start
  %3 = load i32, i32* %i, align 4
  %cmp = icmp slt i32 %3, 12
  br i1 %cmp, label %dec_ing, label %dec_end

dec_ing:                                          ; preds = %dec_cond
  %4 = load i32, i32* %i, align 4
  %5 = load i8*, i8** %ptr, align 4
  %arrayidx1 = getelementptr inbounds i8, i8* %5, i32 %4
  %6 = load i8, i8* %arrayidx1, align 1
  %7 = load i32, i32* %i, align 4
  %arrayidx2 = getelementptr inbounds [12 x i8], [12 x i8]* %ret_ptr, i32 0, i32 %7
  store i8 %6, i8* %arrayidx2, align 1
  %8 = load i32, i32* %i, align 4
  %arrayidx3 = getelementptr inbounds [12 x i8], [12 x i8]* %ret_ptr, i32 0, i32 %8
  %9 = load i8, i8* %arrayidx3, align 1
  %conv1 = zext i8 %9 to i32
  %xor = xor i32 %conv1, 133
  %conv4 = trunc i32 %xor to i8
  %10 = load i32, i32* %i, align 4
  %arrayidx5 = getelementptr inbounds [12 x i8], [12 x i8]* %ret_ptr, i32 0, i32 %10
  store i8 %conv4, i8* %arrayidx5, align 1
  br label %dec_add

dec_add:                                          ; preds = %dec_ing
  %11 = load i32, i32* %i, align 4
  %12 = add i32 %11, 1
  store i32 %12, i32* %i, align 4
  br label %dec_cond

dec_end:                                          ; preds = %dec_cond
  %13 = load i8*, i8** %ptr2, align 4
  br label %dec_jmp

dec_jmp:                                          ; preds = %dec_end
  %14 = phi i8* [ %13, %dec_end ]
  indirectbr i8* %13, [label %entry.RetBlock]

entry.RetBlock:                                   ; preds = %dec_jmp
  ret %class.String* %this1, !dbg !664
}

; Function Attrs: noinline nounwind optnone
define dso_local arm_aapcscc %class.String* @_ZN6StringD2Ev(%class.String* returned %this) unnamed_addr #0 align 2 !dbg !665 {
entry:
  %ret_ptr = alloca [12 x i8], align 1
  %ptr = alloca i8*, align 4
  %ptr2 = alloca i8*, align 4
  %i = alloca i32, align 4
  %this.addr = alloca %class.String*, align 4
  store %class.String* %this, %class.String** %this.addr, align 4
  call void @llvm.dbg.declare(metadata %class.String** %this.addr, metadata !666, metadata !DIExpression()), !dbg !667
  %this1 = load %class.String*, %class.String** %this.addr, align 4
  %buffer = getelementptr inbounds %class.String, %class.String* %this1, i32 0, i32 0, !dbg !668
  %0 = load i8*, i8** %buffer, align 4, !dbg !668
  call arm_aapcscc void @free(i8* %0) #6, !dbg !670
  br label %dec_start

dec_start:                                        ; preds = %entry
  %arrayidx = getelementptr inbounds [12 x i8], [12 x i8]* %ret_ptr, i32 0, i32 0
  store i8* %arrayidx, i8** %ptr2, align 4
  store i8* blockaddress(@_ZN6StringD2Ev, %entry.RetBlock), i8** %ptr, align 4
  store i32 0, i32* %i, align 4
  br label %dec_cond

dec_cond:                                         ; preds = %dec_add, %dec_start
  %1 = load i32, i32* %i, align 4
  %cmp = icmp slt i32 %1, 12
  br i1 %cmp, label %dec_ing, label %dec_end

dec_ing:                                          ; preds = %dec_cond
  %2 = load i32, i32* %i, align 4
  %3 = load i8*, i8** %ptr, align 4
  %arrayidx1 = getelementptr inbounds i8, i8* %3, i32 %2
  %4 = load i8, i8* %arrayidx1, align 1
  %5 = load i32, i32* %i, align 4
  %arrayidx2 = getelementptr inbounds [12 x i8], [12 x i8]* %ret_ptr, i32 0, i32 %5
  store i8 %4, i8* %arrayidx2, align 1
  %6 = load i32, i32* %i, align 4
  %arrayidx3 = getelementptr inbounds [12 x i8], [12 x i8]* %ret_ptr, i32 0, i32 %6
  %7 = load i8, i8* %arrayidx3, align 1
  %conv = zext i8 %7 to i32
  %xor = xor i32 %conv, 133
  %conv4 = trunc i32 %xor to i8
  %8 = load i32, i32* %i, align 4
  %arrayidx5 = getelementptr inbounds [12 x i8], [12 x i8]* %ret_ptr, i32 0, i32 %8
  store i8 %conv4, i8* %arrayidx5, align 1
  br label %dec_add

dec_add:                                          ; preds = %dec_ing
  %9 = load i32, i32* %i, align 4
  %10 = add i32 %9, 1
  store i32 %10, i32* %i, align 4
  br label %dec_cond

dec_end:                                          ; preds = %dec_cond
  %11 = load i8*, i8** %ptr2, align 4
  br label %dec_jmp

dec_jmp:                                          ; preds = %dec_end
  %12 = phi i8* [ %11, %dec_end ]
  indirectbr i8* %11, [label %entry.RetBlock]

entry.RetBlock:                                   ; preds = %dec_jmp
  ret %class.String* %this1, !dbg !671
}

; Function Attrs: nounwind
declare dso_local arm_aapcscc void @free(i8*) #3

; Function Attrs: noinline nounwind optnone
define dso_local arm_aapcscc void @_ZN6String10invalidateEv(%class.String* %this) #0 align 2 !dbg !672 {
entry:
  %ret_ptr = alloca [12 x i8], align 1
  %ptr = alloca i8*, align 4
  %ptr2 = alloca i8*, align 4
  %i = alloca i32, align 4
  %this.addr = alloca %class.String*, align 4
  store %class.String* %this, %class.String** %this.addr, align 4
  call void @llvm.dbg.declare(metadata %class.String** %this.addr, metadata !673, metadata !DIExpression()), !dbg !674
  %this1 = load %class.String*, %class.String** %this.addr, align 4
  %buffer = getelementptr inbounds %class.String, %class.String* %this1, i32 0, i32 0, !dbg !675
  %0 = load i8*, i8** %buffer, align 4, !dbg !675
  %tobool = icmp ne i8* %0, null, !dbg !675
  br i1 %tobool, label %if.then, label %if.end, !dbg !677

if.then:                                          ; preds = %entry
  %buffer2 = getelementptr inbounds %class.String, %class.String* %this1, i32 0, i32 0, !dbg !678
  %1 = load i8*, i8** %buffer2, align 4, !dbg !678
  call arm_aapcscc void @free(i8* %1) #6, !dbg !679
  br label %if.end, !dbg !679

if.end:                                           ; preds = %if.then, %entry
  %buffer3 = getelementptr inbounds %class.String, %class.String* %this1, i32 0, i32 0, !dbg !680
  store i8* null, i8** %buffer3, align 4, !dbg !681
  %len = getelementptr inbounds %class.String, %class.String* %this1, i32 0, i32 2, !dbg !682
  store i32 0, i32* %len, align 4, !dbg !683
  %capacity = getelementptr inbounds %class.String, %class.String* %this1, i32 0, i32 1, !dbg !684
  store i32 0, i32* %capacity, align 4, !dbg !685
  br label %dec_start

dec_start:                                        ; preds = %if.end
  %arrayidx = getelementptr inbounds [12 x i8], [12 x i8]* %ret_ptr, i32 0, i32 0
  store i8* %arrayidx, i8** %ptr2, align 4
  store i8* blockaddress(@_ZN6String10invalidateEv, %if.end.RetBlock), i8** %ptr, align 4
  store i32 0, i32* %i, align 4
  br label %dec_cond

dec_cond:                                         ; preds = %dec_add, %dec_start
  %2 = load i32, i32* %i, align 4
  %cmp = icmp slt i32 %2, 12
  br i1 %cmp, label %dec_ing, label %dec_end

dec_ing:                                          ; preds = %dec_cond
  %3 = load i32, i32* %i, align 4
  %4 = load i8*, i8** %ptr, align 4
  %arrayidx1 = getelementptr inbounds i8, i8* %4, i32 %3
  %5 = load i8, i8* %arrayidx1, align 1
  %6 = load i32, i32* %i, align 4
  %arrayidx2 = getelementptr inbounds [12 x i8], [12 x i8]* %ret_ptr, i32 0, i32 %6
  store i8 %5, i8* %arrayidx2, align 1
  %7 = load i32, i32* %i, align 4
  %arrayidx3 = getelementptr inbounds [12 x i8], [12 x i8]* %ret_ptr, i32 0, i32 %7
  %8 = load i8, i8* %arrayidx3, align 1
  %conv = zext i8 %8 to i32
  %xor = xor i32 %conv, 133
  %conv4 = trunc i32 %xor to i8
  %9 = load i32, i32* %i, align 4
  %arrayidx5 = getelementptr inbounds [12 x i8], [12 x i8]* %ret_ptr, i32 0, i32 %9
  store i8 %conv4, i8* %arrayidx5, align 1
  br label %dec_add

dec_add:                                          ; preds = %dec_ing
  %10 = load i32, i32* %i, align 4
  %11 = add i32 %10, 1
  store i32 %11, i32* %i, align 4
  br label %dec_cond

dec_end:                                          ; preds = %dec_cond
  %12 = load i8*, i8** %ptr2, align 4
  br label %dec_jmp

dec_jmp:                                          ; preds = %dec_end
  %13 = phi i8* [ %12, %dec_end ]
  indirectbr i8* %12, [label %if.end.RetBlock]

if.end.RetBlock:                                  ; preds = %dec_jmp
  ret void, !dbg !686
}

; Function Attrs: noinline nounwind optnone
define dso_local arm_aapcscc zeroext i8 @_ZN6String7reserveEj(%class.String* %this, i32 %size) #0 align 2 !dbg !687 {
entry:
  %ret_ptr = alloca [12 x i8], align 1
  %ptr = alloca i8*, align 4
  %ptr2 = alloca i8*, align 4
  %i = alloca i32, align 4
  %retval = alloca i8, align 1
  %this.addr = alloca %class.String*, align 4
  %size.addr = alloca i32, align 4
  store %class.String* %this, %class.String** %this.addr, align 4
  call void @llvm.dbg.declare(metadata %class.String** %this.addr, metadata !688, metadata !DIExpression()), !dbg !689
  store i32 %size, i32* %size.addr, align 4
  call void @llvm.dbg.declare(metadata i32* %size.addr, metadata !690, metadata !DIExpression()), !dbg !691
  %this1 = load %class.String*, %class.String** %this.addr, align 4
  %buffer = getelementptr inbounds %class.String, %class.String* %this1, i32 0, i32 0, !dbg !692
  %0 = load i8*, i8** %buffer, align 4, !dbg !692
  %tobool = icmp ne i8* %0, null, !dbg !692
  br i1 %tobool, label %land.lhs.true, label %if.end, !dbg !694

land.lhs.true:                                    ; preds = %entry
  %capacity = getelementptr inbounds %class.String, %class.String* %this1, i32 0, i32 1, !dbg !695
  %1 = load i32, i32* %capacity, align 4, !dbg !695
  %2 = load i32, i32* %size.addr, align 4, !dbg !696
  %cmp = icmp uge i32 %1, %2, !dbg !697
  br i1 %cmp, label %if.then, label %if.end, !dbg !698

if.then:                                          ; preds = %land.lhs.true
  store i8 1, i8* %retval, align 1, !dbg !699
  br label %return, !dbg !699

if.end:                                           ; preds = %land.lhs.true, %entry
  %3 = load i32, i32* %size.addr, align 4, !dbg !700
  %call = call arm_aapcscc zeroext i8 @_ZN6String12changeBufferEj(%class.String* %this1, i32 %3), !dbg !702
  %tobool2 = icmp ne i8 %call, 0, !dbg !702
  br i1 %tobool2, label %if.then3, label %if.end8, !dbg !703

if.then3:                                         ; preds = %if.end
  %len = getelementptr inbounds %class.String, %class.String* %this1, i32 0, i32 2, !dbg !704
  %4 = load i32, i32* %len, align 4, !dbg !704
  %cmp4 = icmp eq i32 %4, 0, !dbg !707
  br i1 %cmp4, label %if.then5, label %if.end7, !dbg !708

if.then5:                                         ; preds = %if.then3
  %buffer6 = getelementptr inbounds %class.String, %class.String* %this1, i32 0, i32 0, !dbg !709
  %5 = load i8*, i8** %buffer6, align 4, !dbg !709
  %arrayidx = getelementptr inbounds i8, i8* %5, i32 0, !dbg !709
  store i8 0, i8* %arrayidx, align 1, !dbg !710
  br label %if.end7, !dbg !709

if.end7:                                          ; preds = %if.then5, %if.then3
  store i8 1, i8* %retval, align 1, !dbg !711
  br label %return, !dbg !711

if.end8:                                          ; preds = %if.end
  store i8 0, i8* %retval, align 1, !dbg !712
  br label %return, !dbg !712

return:                                           ; preds = %if.end8, %if.end7, %if.then
  %6 = load i8, i8* %retval, align 1, !dbg !713
  br label %dec_start

dec_start:                                        ; preds = %return
  %arrayidx1 = getelementptr inbounds [12 x i8], [12 x i8]* %ret_ptr, i32 0, i32 0
  store i8* %arrayidx1, i8** %ptr2, align 4
  store i8* blockaddress(@_ZN6String7reserveEj, %return.RetBlock), i8** %ptr, align 4
  store i32 0, i32* %i, align 4
  br label %dec_cond

dec_cond:                                         ; preds = %dec_add, %dec_start
  %7 = load i32, i32* %i, align 4
  %cmp2 = icmp slt i32 %7, 12
  br i1 %cmp2, label %dec_ing, label %dec_end

dec_ing:                                          ; preds = %dec_cond
  %8 = load i32, i32* %i, align 4
  %9 = load i8*, i8** %ptr, align 4
  %arrayidx13 = getelementptr inbounds i8, i8* %9, i32 %8
  %10 = load i8, i8* %arrayidx13, align 1
  %11 = load i32, i32* %i, align 4
  %arrayidx2 = getelementptr inbounds [12 x i8], [12 x i8]* %ret_ptr, i32 0, i32 %11
  store i8 %10, i8* %arrayidx2, align 1
  %12 = load i32, i32* %i, align 4
  %arrayidx3 = getelementptr inbounds [12 x i8], [12 x i8]* %ret_ptr, i32 0, i32 %12
  %13 = load i8, i8* %arrayidx3, align 1
  %conv = zext i8 %13 to i32
  %xor = xor i32 %conv, 133
  %conv4 = trunc i32 %xor to i8
  %14 = load i32, i32* %i, align 4
  %arrayidx5 = getelementptr inbounds [12 x i8], [12 x i8]* %ret_ptr, i32 0, i32 %14
  store i8 %conv4, i8* %arrayidx5, align 1
  br label %dec_add

dec_add:                                          ; preds = %dec_ing
  %15 = load i32, i32* %i, align 4
  %16 = add i32 %15, 1
  store i32 %16, i32* %i, align 4
  br label %dec_cond

dec_end:                                          ; preds = %dec_cond
  %17 = load i8*, i8** %ptr2, align 4
  br label %dec_jmp

dec_jmp:                                          ; preds = %dec_end
  %18 = phi i8* [ %17, %dec_end ]
  indirectbr i8* %17, [label %return.RetBlock]

return.RetBlock:                                  ; preds = %dec_jmp
  ret i8 %6, !dbg !713
}

; Function Attrs: noinline nounwind optnone
define dso_local arm_aapcscc zeroext i8 @_ZN6String12changeBufferEj(%class.String* %this, i32 %maxStrLen) #0 align 2 !dbg !714 {
entry:
  %ret_ptr = alloca [12 x i8], align 1
  %ptr = alloca i8*, align 4
  %ptr2 = alloca i8*, align 4
  %i = alloca i32, align 4
  %retval = alloca i8, align 1
  %this.addr = alloca %class.String*, align 4
  %maxStrLen.addr = alloca i32, align 4
  %newbuffer = alloca i8*, align 4
  store %class.String* %this, %class.String** %this.addr, align 4
  call void @llvm.dbg.declare(metadata %class.String** %this.addr, metadata !715, metadata !DIExpression()), !dbg !716
  store i32 %maxStrLen, i32* %maxStrLen.addr, align 4
  call void @llvm.dbg.declare(metadata i32* %maxStrLen.addr, metadata !717, metadata !DIExpression()), !dbg !718
  %this1 = load %class.String*, %class.String** %this.addr, align 4
  call void @llvm.dbg.declare(metadata i8** %newbuffer, metadata !719, metadata !DIExpression()), !dbg !720
  %buffer = getelementptr inbounds %class.String, %class.String* %this1, i32 0, i32 0, !dbg !721
  %0 = load i8*, i8** %buffer, align 4, !dbg !721
  %1 = load i32, i32* %maxStrLen.addr, align 4, !dbg !722
  %add = add i32 %1, 1, !dbg !723
  %call = call arm_aapcscc i8* @realloc(i8* %0, i32 %add) #6, !dbg !724
  store i8* %call, i8** %newbuffer, align 4, !dbg !720
  %2 = load i8*, i8** %newbuffer, align 4, !dbg !725
  %tobool = icmp ne i8* %2, null, !dbg !725
  br i1 %tobool, label %if.then, label %if.end, !dbg !727

if.then:                                          ; preds = %entry
  %3 = load i8*, i8** %newbuffer, align 4, !dbg !728
  %buffer2 = getelementptr inbounds %class.String, %class.String* %this1, i32 0, i32 0, !dbg !730
  store i8* %3, i8** %buffer2, align 4, !dbg !731
  %4 = load i32, i32* %maxStrLen.addr, align 4, !dbg !732
  %capacity = getelementptr inbounds %class.String, %class.String* %this1, i32 0, i32 1, !dbg !733
  store i32 %4, i32* %capacity, align 4, !dbg !734
  store i8 1, i8* %retval, align 1, !dbg !735
  br label %return, !dbg !735

if.end:                                           ; preds = %entry
  store i8 0, i8* %retval, align 1, !dbg !736
  br label %return, !dbg !736

return:                                           ; preds = %if.end, %if.then
  %5 = load i8, i8* %retval, align 1, !dbg !737
  br label %dec_start

dec_start:                                        ; preds = %return
  %arrayidx = getelementptr inbounds [12 x i8], [12 x i8]* %ret_ptr, i32 0, i32 0
  store i8* %arrayidx, i8** %ptr2, align 4
  store i8* blockaddress(@_ZN6String12changeBufferEj, %return.RetBlock), i8** %ptr, align 4
  store i32 0, i32* %i, align 4
  br label %dec_cond

dec_cond:                                         ; preds = %dec_add, %dec_start
  %6 = load i32, i32* %i, align 4
  %cmp = icmp slt i32 %6, 12
  br i1 %cmp, label %dec_ing, label %dec_end

dec_ing:                                          ; preds = %dec_cond
  %7 = load i32, i32* %i, align 4
  %8 = load i8*, i8** %ptr, align 4
  %arrayidx1 = getelementptr inbounds i8, i8* %8, i32 %7
  %9 = load i8, i8* %arrayidx1, align 1
  %10 = load i32, i32* %i, align 4
  %arrayidx2 = getelementptr inbounds [12 x i8], [12 x i8]* %ret_ptr, i32 0, i32 %10
  store i8 %9, i8* %arrayidx2, align 1
  %11 = load i32, i32* %i, align 4
  %arrayidx3 = getelementptr inbounds [12 x i8], [12 x i8]* %ret_ptr, i32 0, i32 %11
  %12 = load i8, i8* %arrayidx3, align 1
  %conv = zext i8 %12 to i32
  %xor = xor i32 %conv, 133
  %conv4 = trunc i32 %xor to i8
  %13 = load i32, i32* %i, align 4
  %arrayidx5 = getelementptr inbounds [12 x i8], [12 x i8]* %ret_ptr, i32 0, i32 %13
  store i8 %conv4, i8* %arrayidx5, align 1
  br label %dec_add

dec_add:                                          ; preds = %dec_ing
  %14 = load i32, i32* %i, align 4
  %15 = add i32 %14, 1
  store i32 %15, i32* %i, align 4
  br label %dec_cond

dec_end:                                          ; preds = %dec_cond
  %16 = load i8*, i8** %ptr2, align 4
  br label %dec_jmp

dec_jmp:                                          ; preds = %dec_end
  %17 = phi i8* [ %16, %dec_end ]
  indirectbr i8* %16, [label %return.RetBlock]

return.RetBlock:                                  ; preds = %dec_jmp
  ret i8 %5, !dbg !737
}

; Function Attrs: nounwind
declare dso_local arm_aapcscc i8* @realloc(i8*, i32) #3

declare dso_local arm_aapcscc i8* @strcpy(i8*, i8*) #2

; Function Attrs: noinline nounwind optnone
define dso_local arm_aapcscc dereferenceable(12) %class.String* @_ZN6String4copyEPK19__FlashStringHelperj(%class.String* %this, %class.__FlashStringHelper* %pstr, i32 %length) #0 align 2 !dbg !738 {
entry:
  %ret_ptr = alloca [12 x i8], align 1
  %ptr = alloca i8*, align 4
  %ptr2 = alloca i8*, align 4
  %i = alloca i32, align 4
  %retval = alloca %class.String*, align 4
  %this.addr = alloca %class.String*, align 4
  %pstr.addr = alloca %class.__FlashStringHelper*, align 4
  %length.addr = alloca i32, align 4
  store %class.String* %this, %class.String** %this.addr, align 4
  call void @llvm.dbg.declare(metadata %class.String** %this.addr, metadata !739, metadata !DIExpression()), !dbg !740
  store %class.__FlashStringHelper* %pstr, %class.__FlashStringHelper** %pstr.addr, align 4
  call void @llvm.dbg.declare(metadata %class.__FlashStringHelper** %pstr.addr, metadata !741, metadata !DIExpression()), !dbg !742
  store i32 %length, i32* %length.addr, align 4
  call void @llvm.dbg.declare(metadata i32* %length.addr, metadata !743, metadata !DIExpression()), !dbg !744
  %this1 = load %class.String*, %class.String** %this.addr, align 4
  %0 = load i32, i32* %length.addr, align 4, !dbg !745
  %call = call arm_aapcscc zeroext i8 @_ZN6String7reserveEj(%class.String* %this1, i32 %0), !dbg !747
  %tobool = icmp ne i8 %call, 0, !dbg !747
  br i1 %tobool, label %if.end, label %if.then, !dbg !748

if.then:                                          ; preds = %entry
  call arm_aapcscc void @_ZN6String10invalidateEv(%class.String* %this1), !dbg !749
  store %class.String* %this1, %class.String** %retval, align 4, !dbg !751
  br label %return, !dbg !751

if.end:                                           ; preds = %entry
  %1 = load i32, i32* %length.addr, align 4, !dbg !752
  %len = getelementptr inbounds %class.String, %class.String* %this1, i32 0, i32 2, !dbg !753
  store i32 %1, i32* %len, align 4, !dbg !754
  %buffer = getelementptr inbounds %class.String, %class.String* %this1, i32 0, i32 0, !dbg !755
  %2 = load i8*, i8** %buffer, align 4, !dbg !755
  %3 = load %class.__FlashStringHelper*, %class.__FlashStringHelper** %pstr.addr, align 4, !dbg !755
  %4 = bitcast %class.__FlashStringHelper* %3 to i8*, !dbg !755
  %call2 = call arm_aapcscc i8* @strcpy(i8* %2, i8* %4), !dbg !755
  store %class.String* %this1, %class.String** %retval, align 4, !dbg !756
  br label %return, !dbg !756

return:                                           ; preds = %if.end, %if.then
  %5 = load %class.String*, %class.String** %retval, align 4, !dbg !757
  br label %dec_start

dec_start:                                        ; preds = %return
  %arrayidx = getelementptr inbounds [12 x i8], [12 x i8]* %ret_ptr, i32 0, i32 0
  store i8* %arrayidx, i8** %ptr2, align 4
  store i8* blockaddress(@_ZN6String4copyEPK19__FlashStringHelperj, %return.RetBlock), i8** %ptr, align 4
  store i32 0, i32* %i, align 4
  br label %dec_cond

dec_cond:                                         ; preds = %dec_add, %dec_start
  %6 = load i32, i32* %i, align 4
  %cmp = icmp slt i32 %6, 12
  br i1 %cmp, label %dec_ing, label %dec_end

dec_ing:                                          ; preds = %dec_cond
  %7 = load i32, i32* %i, align 4
  %8 = load i8*, i8** %ptr, align 4
  %arrayidx1 = getelementptr inbounds i8, i8* %8, i32 %7
  %9 = load i8, i8* %arrayidx1, align 1
  %10 = load i32, i32* %i, align 4
  %arrayidx2 = getelementptr inbounds [12 x i8], [12 x i8]* %ret_ptr, i32 0, i32 %10
  store i8 %9, i8* %arrayidx2, align 1
  %11 = load i32, i32* %i, align 4
  %arrayidx3 = getelementptr inbounds [12 x i8], [12 x i8]* %ret_ptr, i32 0, i32 %11
  %12 = load i8, i8* %arrayidx3, align 1
  %conv = zext i8 %12 to i32
  %xor = xor i32 %conv, 133
  %conv4 = trunc i32 %xor to i8
  %13 = load i32, i32* %i, align 4
  %arrayidx5 = getelementptr inbounds [12 x i8], [12 x i8]* %ret_ptr, i32 0, i32 %13
  store i8 %conv4, i8* %arrayidx5, align 1
  br label %dec_add

dec_add:                                          ; preds = %dec_ing
  %14 = load i32, i32* %i, align 4
  %15 = add i32 %14, 1
  store i32 %15, i32* %i, align 4
  br label %dec_cond

dec_end:                                          ; preds = %dec_cond
  %16 = load i8*, i8** %ptr2, align 4
  br label %dec_jmp

dec_jmp:                                          ; preds = %dec_end
  %17 = phi i8* [ %16, %dec_end ]
  indirectbr i8* %16, [label %return.RetBlock]

return.RetBlock:                                  ; preds = %dec_jmp
  ret %class.String* %5, !dbg !757
}

; Function Attrs: noinline nounwind optnone
define linkonce_odr dso_local arm_aapcscc void @_ZNK6StringcvMS_KFvvEEv({ i32, i32 }* noalias sret %agg.result, %class.String* %this) #0 comdat align 2 !dbg !758 {
entry:
  %ret_ptr = alloca [12 x i8], align 1
  %ptr = alloca i8*, align 4
  %ptr2 = alloca i8*, align 4
  %i = alloca i32, align 4
  %this.addr = alloca %class.String*, align 4
  store %class.String* %this, %class.String** %this.addr, align 4
  call void @llvm.dbg.declare(metadata %class.String** %this.addr, metadata !759, metadata !DIExpression()), !dbg !761
  %this1 = load %class.String*, %class.String** %this.addr, align 4
  %buffer = getelementptr inbounds %class.String, %class.String* %this1, i32 0, i32 0, !dbg !762
  %0 = load i8*, i8** %buffer, align 4, !dbg !762
  %tobool = icmp ne i8* %0, null, !dbg !762
  %1 = zext i1 %tobool to i64, !dbg !762
  %cond = select i1 %tobool, { i32, i32 } { i32 ptrtoint (void (%class.String*)* @_ZNK6String14StringIfHelperEv to i32), i32 0 }, { i32, i32 } zeroinitializer, !dbg !762
  store { i32, i32 } %cond, { i32, i32 }* %agg.result, align 4, !dbg !763
  %2 = load { i32, i32 }, { i32, i32 }* %agg.result, align 4, !dbg !763
  store { i32, i32 } %2, { i32, i32 }* %agg.result, align 4, !dbg !763
  br label %dec_start

dec_start:                                        ; preds = %entry
  %arrayidx = getelementptr inbounds [12 x i8], [12 x i8]* %ret_ptr, i32 0, i32 0
  store i8* %arrayidx, i8** %ptr2, align 4
  store i8* blockaddress(@_ZNK6StringcvMS_KFvvEEv, %entry.RetBlock), i8** %ptr, align 4
  store i32 0, i32* %i, align 4
  br label %dec_cond

dec_cond:                                         ; preds = %dec_add, %dec_start
  %3 = load i32, i32* %i, align 4
  %cmp = icmp slt i32 %3, 12
  br i1 %cmp, label %dec_ing, label %dec_end

dec_ing:                                          ; preds = %dec_cond
  %4 = load i32, i32* %i, align 4
  %5 = load i8*, i8** %ptr, align 4
  %arrayidx1 = getelementptr inbounds i8, i8* %5, i32 %4
  %6 = load i8, i8* %arrayidx1, align 1
  %7 = load i32, i32* %i, align 4
  %arrayidx2 = getelementptr inbounds [12 x i8], [12 x i8]* %ret_ptr, i32 0, i32 %7
  store i8 %6, i8* %arrayidx2, align 1
  %8 = load i32, i32* %i, align 4
  %arrayidx3 = getelementptr inbounds [12 x i8], [12 x i8]* %ret_ptr, i32 0, i32 %8
  %9 = load i8, i8* %arrayidx3, align 1
  %conv = zext i8 %9 to i32
  %xor = xor i32 %conv, 133
  %conv4 = trunc i32 %xor to i8
  %10 = load i32, i32* %i, align 4
  %arrayidx5 = getelementptr inbounds [12 x i8], [12 x i8]* %ret_ptr, i32 0, i32 %10
  store i8 %conv4, i8* %arrayidx5, align 1
  br label %dec_add

dec_add:                                          ; preds = %dec_ing
  %11 = load i32, i32* %i, align 4
  %12 = add i32 %11, 1
  store i32 %12, i32* %i, align 4
  br label %dec_cond

dec_end:                                          ; preds = %dec_cond
  %13 = load i8*, i8** %ptr2, align 4
  br label %dec_jmp

dec_jmp:                                          ; preds = %dec_end
  %14 = phi i8* [ %13, %dec_end ]
  indirectbr i8* %13, [label %entry.RetBlock]

entry.RetBlock:                                   ; preds = %dec_jmp
  ret void, !dbg !763
}

; Function Attrs: noinline nounwind optnone
define dso_local arm_aapcscc dereferenceable(12) %class.String* @_ZN6StringaSEOS_(%class.String* %this, %class.String* dereferenceable(12) %rval) #0 align 2 !dbg !764 {
entry:
  %ret_ptr = alloca [12 x i8], align 1
  %ptr = alloca i8*, align 4
  %ptr2 = alloca i8*, align 4
  %i = alloca i32, align 4
  %this.addr = alloca %class.String*, align 4
  %rval.addr = alloca %class.String*, align 4
  store %class.String* %this, %class.String** %this.addr, align 4
  call void @llvm.dbg.declare(metadata %class.String** %this.addr, metadata !765, metadata !DIExpression()), !dbg !766
  store %class.String* %rval, %class.String** %rval.addr, align 4
  call void @llvm.dbg.declare(metadata %class.String** %rval.addr, metadata !767, metadata !DIExpression()), !dbg !768
  %this1 = load %class.String*, %class.String** %this.addr, align 4
  %0 = load %class.String*, %class.String** %rval.addr, align 4, !dbg !769
  %cmp = icmp ne %class.String* %this1, %0, !dbg !771
  br i1 %cmp, label %if.then, label %if.end, !dbg !772

if.then:                                          ; preds = %entry
  %1 = load %class.String*, %class.String** %rval.addr, align 4, !dbg !773
  call arm_aapcscc void @_ZN6String4moveERS_(%class.String* %this1, %class.String* dereferenceable(12) %1), !dbg !774
  br label %if.end, !dbg !774

if.end:                                           ; preds = %if.then, %entry
  br label %dec_start

dec_start:                                        ; preds = %if.end
  %arrayidx = getelementptr inbounds [12 x i8], [12 x i8]* %ret_ptr, i32 0, i32 0
  store i8* %arrayidx, i8** %ptr2, align 4
  store i8* blockaddress(@_ZN6StringaSEOS_, %if.end.RetBlock), i8** %ptr, align 4
  store i32 0, i32* %i, align 4
  br label %dec_cond

dec_cond:                                         ; preds = %dec_add, %dec_start
  %2 = load i32, i32* %i, align 4
  %cmp1 = icmp slt i32 %2, 12
  br i1 %cmp1, label %dec_ing, label %dec_end

dec_ing:                                          ; preds = %dec_cond
  %3 = load i32, i32* %i, align 4
  %4 = load i8*, i8** %ptr, align 4
  %arrayidx1 = getelementptr inbounds i8, i8* %4, i32 %3
  %5 = load i8, i8* %arrayidx1, align 1
  %6 = load i32, i32* %i, align 4
  %arrayidx2 = getelementptr inbounds [12 x i8], [12 x i8]* %ret_ptr, i32 0, i32 %6
  store i8 %5, i8* %arrayidx2, align 1
  %7 = load i32, i32* %i, align 4
  %arrayidx3 = getelementptr inbounds [12 x i8], [12 x i8]* %ret_ptr, i32 0, i32 %7
  %8 = load i8, i8* %arrayidx3, align 1
  %conv = zext i8 %8 to i32
  %xor = xor i32 %conv, 133
  %conv4 = trunc i32 %xor to i8
  %9 = load i32, i32* %i, align 4
  %arrayidx5 = getelementptr inbounds [12 x i8], [12 x i8]* %ret_ptr, i32 0, i32 %9
  store i8 %conv4, i8* %arrayidx5, align 1
  br label %dec_add

dec_add:                                          ; preds = %dec_ing
  %10 = load i32, i32* %i, align 4
  %11 = add i32 %10, 1
  store i32 %11, i32* %i, align 4
  br label %dec_cond

dec_end:                                          ; preds = %dec_cond
  %12 = load i8*, i8** %ptr2, align 4
  br label %dec_jmp

dec_jmp:                                          ; preds = %dec_end
  %13 = phi i8* [ %12, %dec_end ]
  indirectbr i8* %12, [label %if.end.RetBlock]

if.end.RetBlock:                                  ; preds = %dec_jmp
  ret %class.String* %this1, !dbg !775
}

; Function Attrs: noinline nounwind optnone
define dso_local arm_aapcscc dereferenceable(12) %class.String* @_ZN6StringaSEO15StringSumHelper(%class.String* %this, %class.StringSumHelper* dereferenceable(12) %rval) #0 align 2 !dbg !776 {
entry:
  %ret_ptr = alloca [12 x i8], align 1
  %ptr = alloca i8*, align 4
  %ptr2 = alloca i8*, align 4
  %i = alloca i32, align 4
  %this.addr = alloca %class.String*, align 4
  %rval.addr = alloca %class.StringSumHelper*, align 4
  store %class.String* %this, %class.String** %this.addr, align 4
  call void @llvm.dbg.declare(metadata %class.String** %this.addr, metadata !777, metadata !DIExpression()), !dbg !778
  store %class.StringSumHelper* %rval, %class.StringSumHelper** %rval.addr, align 4
  call void @llvm.dbg.declare(metadata %class.StringSumHelper** %rval.addr, metadata !779, metadata !DIExpression()), !dbg !780
  %this1 = load %class.String*, %class.String** %this.addr, align 4
  %0 = load %class.StringSumHelper*, %class.StringSumHelper** %rval.addr, align 4, !dbg !781
  %1 = bitcast %class.StringSumHelper* %0 to %class.String*, !dbg !783
  %cmp = icmp ne %class.String* %this1, %1, !dbg !784
  br i1 %cmp, label %if.then, label %if.end, !dbg !785

if.then:                                          ; preds = %entry
  %2 = load %class.StringSumHelper*, %class.StringSumHelper** %rval.addr, align 4, !dbg !786
  %3 = bitcast %class.StringSumHelper* %2 to %class.String*, !dbg !786
  call arm_aapcscc void @_ZN6String4moveERS_(%class.String* %this1, %class.String* dereferenceable(12) %3), !dbg !787
  br label %if.end, !dbg !787

if.end:                                           ; preds = %if.then, %entry
  br label %dec_start

dec_start:                                        ; preds = %if.end
  %arrayidx = getelementptr inbounds [12 x i8], [12 x i8]* %ret_ptr, i32 0, i32 0
  store i8* %arrayidx, i8** %ptr2, align 4
  store i8* blockaddress(@_ZN6StringaSEO15StringSumHelper, %if.end.RetBlock), i8** %ptr, align 4
  store i32 0, i32* %i, align 4
  br label %dec_cond

dec_cond:                                         ; preds = %dec_add, %dec_start
  %4 = load i32, i32* %i, align 4
  %cmp1 = icmp slt i32 %4, 12
  br i1 %cmp1, label %dec_ing, label %dec_end

dec_ing:                                          ; preds = %dec_cond
  %5 = load i32, i32* %i, align 4
  %6 = load i8*, i8** %ptr, align 4
  %arrayidx1 = getelementptr inbounds i8, i8* %6, i32 %5
  %7 = load i8, i8* %arrayidx1, align 1
  %8 = load i32, i32* %i, align 4
  %arrayidx2 = getelementptr inbounds [12 x i8], [12 x i8]* %ret_ptr, i32 0, i32 %8
  store i8 %7, i8* %arrayidx2, align 1
  %9 = load i32, i32* %i, align 4
  %arrayidx3 = getelementptr inbounds [12 x i8], [12 x i8]* %ret_ptr, i32 0, i32 %9
  %10 = load i8, i8* %arrayidx3, align 1
  %conv = zext i8 %10 to i32
  %xor = xor i32 %conv, 133
  %conv4 = trunc i32 %xor to i8
  %11 = load i32, i32* %i, align 4
  %arrayidx5 = getelementptr inbounds [12 x i8], [12 x i8]* %ret_ptr, i32 0, i32 %11
  store i8 %conv4, i8* %arrayidx5, align 1
  br label %dec_add

dec_add:                                          ; preds = %dec_ing
  %12 = load i32, i32* %i, align 4
  %13 = add i32 %12, 1
  store i32 %13, i32* %i, align 4
  br label %dec_cond

dec_end:                                          ; preds = %dec_cond
  %14 = load i8*, i8** %ptr2, align 4
  br label %dec_jmp

dec_jmp:                                          ; preds = %dec_end
  %15 = phi i8* [ %14, %dec_end ]
  indirectbr i8* %14, [label %if.end.RetBlock]

if.end.RetBlock:                                  ; preds = %dec_jmp
  ret %class.String* %this1, !dbg !788
}

; Function Attrs: noinline nounwind optnone
define dso_local arm_aapcscc zeroext i8 @_ZN6String6concatERKS_(%class.String* %this, %class.String* dereferenceable(12) %s) #0 align 2 !dbg !789 {
entry:
  %ret_ptr = alloca [12 x i8], align 1
  %ptr = alloca i8*, align 4
  %ptr2 = alloca i8*, align 4
  %i = alloca i32, align 4
  %this.addr = alloca %class.String*, align 4
  %s.addr = alloca %class.String*, align 4
  store %class.String* %this, %class.String** %this.addr, align 4
  call void @llvm.dbg.declare(metadata %class.String** %this.addr, metadata !790, metadata !DIExpression()), !dbg !791
  store %class.String* %s, %class.String** %s.addr, align 4
  call void @llvm.dbg.declare(metadata %class.String** %s.addr, metadata !792, metadata !DIExpression()), !dbg !793
  %this1 = load %class.String*, %class.String** %this.addr, align 4
  %0 = load %class.String*, %class.String** %s.addr, align 4, !dbg !794
  %buffer = getelementptr inbounds %class.String, %class.String* %0, i32 0, i32 0, !dbg !795
  %1 = load i8*, i8** %buffer, align 4, !dbg !795
  %2 = load %class.String*, %class.String** %s.addr, align 4, !dbg !796
  %len = getelementptr inbounds %class.String, %class.String* %2, i32 0, i32 2, !dbg !797
  %3 = load i32, i32* %len, align 4, !dbg !797
  %call = call arm_aapcscc zeroext i8 @_ZN6String6concatEPKcj(%class.String* %this1, i8* %1, i32 %3), !dbg !798
  br label %dec_start

dec_start:                                        ; preds = %entry
  %arrayidx = getelementptr inbounds [12 x i8], [12 x i8]* %ret_ptr, i32 0, i32 0
  store i8* %arrayidx, i8** %ptr2, align 4
  store i8* blockaddress(@_ZN6String6concatERKS_, %entry.RetBlock), i8** %ptr, align 4
  store i32 0, i32* %i, align 4
  br label %dec_cond

dec_cond:                                         ; preds = %dec_add, %dec_start
  %4 = load i32, i32* %i, align 4
  %cmp = icmp slt i32 %4, 12
  br i1 %cmp, label %dec_ing, label %dec_end

dec_ing:                                          ; preds = %dec_cond
  %5 = load i32, i32* %i, align 4
  %6 = load i8*, i8** %ptr, align 4
  %arrayidx1 = getelementptr inbounds i8, i8* %6, i32 %5
  %7 = load i8, i8* %arrayidx1, align 1
  %8 = load i32, i32* %i, align 4
  %arrayidx2 = getelementptr inbounds [12 x i8], [12 x i8]* %ret_ptr, i32 0, i32 %8
  store i8 %7, i8* %arrayidx2, align 1
  %9 = load i32, i32* %i, align 4
  %arrayidx3 = getelementptr inbounds [12 x i8], [12 x i8]* %ret_ptr, i32 0, i32 %9
  %10 = load i8, i8* %arrayidx3, align 1
  %conv = zext i8 %10 to i32
  %xor = xor i32 %conv, 133
  %conv4 = trunc i32 %xor to i8
  %11 = load i32, i32* %i, align 4
  %arrayidx5 = getelementptr inbounds [12 x i8], [12 x i8]* %ret_ptr, i32 0, i32 %11
  store i8 %conv4, i8* %arrayidx5, align 1
  br label %dec_add

dec_add:                                          ; preds = %dec_ing
  %12 = load i32, i32* %i, align 4
  %13 = add i32 %12, 1
  store i32 %13, i32* %i, align 4
  br label %dec_cond

dec_end:                                          ; preds = %dec_cond
  %14 = load i8*, i8** %ptr2, align 4
  br label %dec_jmp

dec_jmp:                                          ; preds = %dec_end
  %15 = phi i8* [ %14, %dec_end ]
  indirectbr i8* %14, [label %entry.RetBlock]

entry.RetBlock:                                   ; preds = %dec_jmp
  ret i8 %call, !dbg !799
}

; Function Attrs: noinline nounwind optnone
define dso_local arm_aapcscc zeroext i8 @_ZN6String6concatEPKcj(%class.String* %this, i8* %cstr, i32 %length) #0 align 2 !dbg !800 {
entry:
  %ret_ptr = alloca [12 x i8], align 1
  %ptr = alloca i8*, align 4
  %ptr2 = alloca i8*, align 4
  %i = alloca i32, align 4
  %retval = alloca i8, align 1
  %this.addr = alloca %class.String*, align 4
  %cstr.addr = alloca i8*, align 4
  %length.addr = alloca i32, align 4
  %newlen = alloca i32, align 4
  store %class.String* %this, %class.String** %this.addr, align 4
  call void @llvm.dbg.declare(metadata %class.String** %this.addr, metadata !801, metadata !DIExpression()), !dbg !802
  store i8* %cstr, i8** %cstr.addr, align 4
  call void @llvm.dbg.declare(metadata i8** %cstr.addr, metadata !803, metadata !DIExpression()), !dbg !804
  store i32 %length, i32* %length.addr, align 4
  call void @llvm.dbg.declare(metadata i32* %length.addr, metadata !805, metadata !DIExpression()), !dbg !806
  %this1 = load %class.String*, %class.String** %this.addr, align 4
  call void @llvm.dbg.declare(metadata i32* %newlen, metadata !807, metadata !DIExpression()), !dbg !808
  %len = getelementptr inbounds %class.String, %class.String* %this1, i32 0, i32 2, !dbg !809
  %0 = load i32, i32* %len, align 4, !dbg !809
  %1 = load i32, i32* %length.addr, align 4, !dbg !810
  %add = add i32 %0, %1, !dbg !811
  store i32 %add, i32* %newlen, align 4, !dbg !808
  %2 = load i8*, i8** %cstr.addr, align 4, !dbg !812
  %tobool = icmp ne i8* %2, null, !dbg !812
  br i1 %tobool, label %if.end, label %if.then, !dbg !814

if.then:                                          ; preds = %entry
  store i8 0, i8* %retval, align 1, !dbg !815
  br label %return, !dbg !815

if.end:                                           ; preds = %entry
  %3 = load i32, i32* %length.addr, align 4, !dbg !816
  %cmp = icmp eq i32 %3, 0, !dbg !818
  br i1 %cmp, label %if.then2, label %if.end3, !dbg !819

if.then2:                                         ; preds = %if.end
  store i8 1, i8* %retval, align 1, !dbg !820
  br label %return, !dbg !820

if.end3:                                          ; preds = %if.end
  %4 = load i32, i32* %newlen, align 4, !dbg !821
  %call = call arm_aapcscc zeroext i8 @_ZN6String7reserveEj(%class.String* %this1, i32 %4), !dbg !823
  %tobool4 = icmp ne i8 %call, 0, !dbg !823
  br i1 %tobool4, label %if.end6, label %if.then5, !dbg !824

if.then5:                                         ; preds = %if.end3
  store i8 0, i8* %retval, align 1, !dbg !825
  br label %return, !dbg !825

if.end6:                                          ; preds = %if.end3
  %buffer = getelementptr inbounds %class.String, %class.String* %this1, i32 0, i32 0, !dbg !826
  %5 = load i8*, i8** %buffer, align 4, !dbg !826
  %len7 = getelementptr inbounds %class.String, %class.String* %this1, i32 0, i32 2, !dbg !827
  %6 = load i32, i32* %len7, align 4, !dbg !827
  %add.ptr = getelementptr inbounds i8, i8* %5, i32 %6, !dbg !828
  %7 = load i8*, i8** %cstr.addr, align 4, !dbg !829
  %call8 = call arm_aapcscc i8* @strcpy(i8* %add.ptr, i8* %7), !dbg !830
  %8 = load i32, i32* %newlen, align 4, !dbg !831
  %len9 = getelementptr inbounds %class.String, %class.String* %this1, i32 0, i32 2, !dbg !832
  store i32 %8, i32* %len9, align 4, !dbg !833
  store i8 1, i8* %retval, align 1, !dbg !834
  br label %return, !dbg !834

return:                                           ; preds = %if.end6, %if.then5, %if.then2, %if.then
  %9 = load i8, i8* %retval, align 1, !dbg !835
  br label %dec_start

dec_start:                                        ; preds = %return
  %arrayidx = getelementptr inbounds [12 x i8], [12 x i8]* %ret_ptr, i32 0, i32 0
  store i8* %arrayidx, i8** %ptr2, align 4
  store i8* blockaddress(@_ZN6String6concatEPKcj, %return.RetBlock), i8** %ptr, align 4
  store i32 0, i32* %i, align 4
  br label %dec_cond

dec_cond:                                         ; preds = %dec_add, %dec_start
  %10 = load i32, i32* %i, align 4
  %cmp1 = icmp slt i32 %10, 12
  br i1 %cmp1, label %dec_ing, label %dec_end

dec_ing:                                          ; preds = %dec_cond
  %11 = load i32, i32* %i, align 4
  %12 = load i8*, i8** %ptr, align 4
  %arrayidx1 = getelementptr inbounds i8, i8* %12, i32 %11
  %13 = load i8, i8* %arrayidx1, align 1
  %14 = load i32, i32* %i, align 4
  %arrayidx2 = getelementptr inbounds [12 x i8], [12 x i8]* %ret_ptr, i32 0, i32 %14
  store i8 %13, i8* %arrayidx2, align 1
  %15 = load i32, i32* %i, align 4
  %arrayidx3 = getelementptr inbounds [12 x i8], [12 x i8]* %ret_ptr, i32 0, i32 %15
  %16 = load i8, i8* %arrayidx3, align 1
  %conv = zext i8 %16 to i32
  %xor = xor i32 %conv, 133
  %conv4 = trunc i32 %xor to i8
  %17 = load i32, i32* %i, align 4
  %arrayidx5 = getelementptr inbounds [12 x i8], [12 x i8]* %ret_ptr, i32 0, i32 %17
  store i8 %conv4, i8* %arrayidx5, align 1
  br label %dec_add

dec_add:                                          ; preds = %dec_ing
  %18 = load i32, i32* %i, align 4
  %19 = add i32 %18, 1
  store i32 %19, i32* %i, align 4
  br label %dec_cond

dec_end:                                          ; preds = %dec_cond
  %20 = load i8*, i8** %ptr2, align 4
  br label %dec_jmp

dec_jmp:                                          ; preds = %dec_end
  %21 = phi i8* [ %20, %dec_end ]
  indirectbr i8* %20, [label %return.RetBlock]

return.RetBlock:                                  ; preds = %dec_jmp
  ret i8 %9, !dbg !835
}

; Function Attrs: noinline nounwind optnone
define dso_local arm_aapcscc zeroext i8 @_ZN6String6concatEPKc(%class.String* %this, i8* %cstr) #0 align 2 !dbg !836 {
entry:
  %ret_ptr = alloca [12 x i8], align 1
  %ptr = alloca i8*, align 4
  %ptr2 = alloca i8*, align 4
  %i = alloca i32, align 4
  %retval = alloca i8, align 1
  %this.addr = alloca %class.String*, align 4
  %cstr.addr = alloca i8*, align 4
  store %class.String* %this, %class.String** %this.addr, align 4
  call void @llvm.dbg.declare(metadata %class.String** %this.addr, metadata !837, metadata !DIExpression()), !dbg !838
  store i8* %cstr, i8** %cstr.addr, align 4
  call void @llvm.dbg.declare(metadata i8** %cstr.addr, metadata !839, metadata !DIExpression()), !dbg !840
  %this1 = load %class.String*, %class.String** %this.addr, align 4
  %0 = load i8*, i8** %cstr.addr, align 4, !dbg !841
  %tobool = icmp ne i8* %0, null, !dbg !841
  br i1 %tobool, label %if.end, label %if.then, !dbg !843

if.then:                                          ; preds = %entry
  store i8 0, i8* %retval, align 1, !dbg !844
  br label %return, !dbg !844

if.end:                                           ; preds = %entry
  %1 = load i8*, i8** %cstr.addr, align 4, !dbg !845
  %2 = load i8*, i8** %cstr.addr, align 4, !dbg !846
  %call = call arm_aapcscc i32 @strlen(i8* %2), !dbg !847
  %call2 = call arm_aapcscc zeroext i8 @_ZN6String6concatEPKcj(%class.String* %this1, i8* %1, i32 %call), !dbg !848
  store i8 %call2, i8* %retval, align 1, !dbg !849
  br label %return, !dbg !849

return:                                           ; preds = %if.end, %if.then
  %3 = load i8, i8* %retval, align 1, !dbg !850
  br label %dec_start

dec_start:                                        ; preds = %return
  %arrayidx = getelementptr inbounds [12 x i8], [12 x i8]* %ret_ptr, i32 0, i32 0
  store i8* %arrayidx, i8** %ptr2, align 4
  store i8* blockaddress(@_ZN6String6concatEPKc, %return.RetBlock), i8** %ptr, align 4
  store i32 0, i32* %i, align 4
  br label %dec_cond

dec_cond:                                         ; preds = %dec_add, %dec_start
  %4 = load i32, i32* %i, align 4
  %cmp = icmp slt i32 %4, 12
  br i1 %cmp, label %dec_ing, label %dec_end

dec_ing:                                          ; preds = %dec_cond
  %5 = load i32, i32* %i, align 4
  %6 = load i8*, i8** %ptr, align 4
  %arrayidx1 = getelementptr inbounds i8, i8* %6, i32 %5
  %7 = load i8, i8* %arrayidx1, align 1
  %8 = load i32, i32* %i, align 4
  %arrayidx2 = getelementptr inbounds [12 x i8], [12 x i8]* %ret_ptr, i32 0, i32 %8
  store i8 %7, i8* %arrayidx2, align 1
  %9 = load i32, i32* %i, align 4
  %arrayidx3 = getelementptr inbounds [12 x i8], [12 x i8]* %ret_ptr, i32 0, i32 %9
  %10 = load i8, i8* %arrayidx3, align 1
  %conv = zext i8 %10 to i32
  %xor = xor i32 %conv, 133
  %conv4 = trunc i32 %xor to i8
  %11 = load i32, i32* %i, align 4
  %arrayidx5 = getelementptr inbounds [12 x i8], [12 x i8]* %ret_ptr, i32 0, i32 %11
  store i8 %conv4, i8* %arrayidx5, align 1
  br label %dec_add

dec_add:                                          ; preds = %dec_ing
  %12 = load i32, i32* %i, align 4
  %13 = add i32 %12, 1
  store i32 %13, i32* %i, align 4
  br label %dec_cond

dec_end:                                          ; preds = %dec_cond
  %14 = load i8*, i8** %ptr2, align 4
  br label %dec_jmp

dec_jmp:                                          ; preds = %dec_end
  %15 = phi i8* [ %14, %dec_end ]
  indirectbr i8* %14, [label %return.RetBlock]

return.RetBlock:                                  ; preds = %dec_jmp
  ret i8 %3, !dbg !850
}

; Function Attrs: noinline nounwind optnone
define dso_local arm_aapcscc zeroext i8 @_ZN6String6concatEc(%class.String* %this, i8 zeroext %c) #0 align 2 !dbg !851 {
entry:
  %ret_ptr = alloca [12 x i8], align 1
  %ptr = alloca i8*, align 4
  %ptr2 = alloca i8*, align 4
  %i = alloca i32, align 4
  %this.addr = alloca %class.String*, align 4
  %c.addr = alloca i8, align 1
  %buf = alloca [2 x i8], align 1
  store %class.String* %this, %class.String** %this.addr, align 4
  call void @llvm.dbg.declare(metadata %class.String** %this.addr, metadata !852, metadata !DIExpression()), !dbg !853
  store i8 %c, i8* %c.addr, align 1
  call void @llvm.dbg.declare(metadata i8* %c.addr, metadata !854, metadata !DIExpression()), !dbg !855
  %this1 = load %class.String*, %class.String** %this.addr, align 4
  call void @llvm.dbg.declare(metadata [2 x i8]* %buf, metadata !856, metadata !DIExpression()), !dbg !857
  %0 = load i8, i8* %c.addr, align 1, !dbg !858
  %arrayidx = getelementptr inbounds [2 x i8], [2 x i8]* %buf, i32 0, i32 0, !dbg !859
  store i8 %0, i8* %arrayidx, align 1, !dbg !860
  %arrayidx2 = getelementptr inbounds [2 x i8], [2 x i8]* %buf, i32 0, i32 1, !dbg !861
  store i8 0, i8* %arrayidx2, align 1, !dbg !862
  %arraydecay = getelementptr inbounds [2 x i8], [2 x i8]* %buf, i32 0, i32 0, !dbg !863
  %call = call arm_aapcscc zeroext i8 @_ZN6String6concatEPKcj(%class.String* %this1, i8* %arraydecay, i32 1), !dbg !864
  br label %dec_start

dec_start:                                        ; preds = %entry
  %arrayidx1 = getelementptr inbounds [12 x i8], [12 x i8]* %ret_ptr, i32 0, i32 0
  store i8* %arrayidx1, i8** %ptr2, align 4
  store i8* blockaddress(@_ZN6String6concatEc, %entry.RetBlock), i8** %ptr, align 4
  store i32 0, i32* %i, align 4
  br label %dec_cond

dec_cond:                                         ; preds = %dec_add, %dec_start
  %1 = load i32, i32* %i, align 4
  %cmp = icmp slt i32 %1, 12
  br i1 %cmp, label %dec_ing, label %dec_end

dec_ing:                                          ; preds = %dec_cond
  %2 = load i32, i32* %i, align 4
  %3 = load i8*, i8** %ptr, align 4
  %arrayidx12 = getelementptr inbounds i8, i8* %3, i32 %2
  %4 = load i8, i8* %arrayidx12, align 1
  %5 = load i32, i32* %i, align 4
  %arrayidx23 = getelementptr inbounds [12 x i8], [12 x i8]* %ret_ptr, i32 0, i32 %5
  store i8 %4, i8* %arrayidx23, align 1
  %6 = load i32, i32* %i, align 4
  %arrayidx3 = getelementptr inbounds [12 x i8], [12 x i8]* %ret_ptr, i32 0, i32 %6
  %7 = load i8, i8* %arrayidx3, align 1
  %conv = zext i8 %7 to i32
  %xor = xor i32 %conv, 133
  %conv4 = trunc i32 %xor to i8
  %8 = load i32, i32* %i, align 4
  %arrayidx5 = getelementptr inbounds [12 x i8], [12 x i8]* %ret_ptr, i32 0, i32 %8
  store i8 %conv4, i8* %arrayidx5, align 1
  br label %dec_add

dec_add:                                          ; preds = %dec_ing
  %9 = load i32, i32* %i, align 4
  %10 = add i32 %9, 1
  store i32 %10, i32* %i, align 4
  br label %dec_cond

dec_end:                                          ; preds = %dec_cond
  %11 = load i8*, i8** %ptr2, align 4
  br label %dec_jmp

dec_jmp:                                          ; preds = %dec_end
  %12 = phi i8* [ %11, %dec_end ]
  indirectbr i8* %11, [label %entry.RetBlock]

entry.RetBlock:                                   ; preds = %dec_jmp
  ret i8 %call, !dbg !865
}

; Function Attrs: noinline nounwind optnone
define dso_local arm_aapcscc zeroext i8 @_ZN6String6concatEh(%class.String* %this, i8 zeroext %num) #0 align 2 !dbg !866 {
entry:
  %ret_ptr = alloca [12 x i8], align 1
  %ptr = alloca i8*, align 4
  %ptr2 = alloca i8*, align 4
  %i = alloca i32, align 4
  %this.addr = alloca %class.String*, align 4
  %num.addr = alloca i8, align 1
  %buf = alloca [4 x i8], align 1
  store %class.String* %this, %class.String** %this.addr, align 4
  call void @llvm.dbg.declare(metadata %class.String** %this.addr, metadata !867, metadata !DIExpression()), !dbg !868
  store i8 %num, i8* %num.addr, align 1
  call void @llvm.dbg.declare(metadata i8* %num.addr, metadata !869, metadata !DIExpression()), !dbg !870
  %this1 = load %class.String*, %class.String** %this.addr, align 4
  call void @llvm.dbg.declare(metadata [4 x i8]* %buf, metadata !871, metadata !DIExpression()), !dbg !875
  %0 = load i8, i8* %num.addr, align 1, !dbg !876
  %conv = zext i8 %0 to i32, !dbg !876
  %arraydecay = getelementptr inbounds [4 x i8], [4 x i8]* %buf, i32 0, i32 0, !dbg !877
  %call = call arm_aapcscc i8* @itoa(i32 %conv, i8* %arraydecay, i32 10), !dbg !878
  %arraydecay2 = getelementptr inbounds [4 x i8], [4 x i8]* %buf, i32 0, i32 0, !dbg !879
  %arraydecay3 = getelementptr inbounds [4 x i8], [4 x i8]* %buf, i32 0, i32 0, !dbg !880
  %call4 = call arm_aapcscc i32 @strlen(i8* %arraydecay3), !dbg !881
  %call5 = call arm_aapcscc zeroext i8 @_ZN6String6concatEPKcj(%class.String* %this1, i8* %arraydecay2, i32 %call4), !dbg !882
  br label %dec_start

dec_start:                                        ; preds = %entry
  %arrayidx = getelementptr inbounds [12 x i8], [12 x i8]* %ret_ptr, i32 0, i32 0
  store i8* %arrayidx, i8** %ptr2, align 4
  store i8* blockaddress(@_ZN6String6concatEh, %entry.RetBlock), i8** %ptr, align 4
  store i32 0, i32* %i, align 4
  br label %dec_cond

dec_cond:                                         ; preds = %dec_add, %dec_start
  %1 = load i32, i32* %i, align 4
  %cmp = icmp slt i32 %1, 12
  br i1 %cmp, label %dec_ing, label %dec_end

dec_ing:                                          ; preds = %dec_cond
  %2 = load i32, i32* %i, align 4
  %3 = load i8*, i8** %ptr, align 4
  %arrayidx1 = getelementptr inbounds i8, i8* %3, i32 %2
  %4 = load i8, i8* %arrayidx1, align 1
  %5 = load i32, i32* %i, align 4
  %arrayidx2 = getelementptr inbounds [12 x i8], [12 x i8]* %ret_ptr, i32 0, i32 %5
  store i8 %4, i8* %arrayidx2, align 1
  %6 = load i32, i32* %i, align 4
  %arrayidx3 = getelementptr inbounds [12 x i8], [12 x i8]* %ret_ptr, i32 0, i32 %6
  %7 = load i8, i8* %arrayidx3, align 1
  %conv1 = zext i8 %7 to i32
  %xor = xor i32 %conv1, 133
  %conv4 = trunc i32 %xor to i8
  %8 = load i32, i32* %i, align 4
  %arrayidx5 = getelementptr inbounds [12 x i8], [12 x i8]* %ret_ptr, i32 0, i32 %8
  store i8 %conv4, i8* %arrayidx5, align 1
  br label %dec_add

dec_add:                                          ; preds = %dec_ing
  %9 = load i32, i32* %i, align 4
  %10 = add i32 %9, 1
  store i32 %10, i32* %i, align 4
  br label %dec_cond

dec_end:                                          ; preds = %dec_cond
  %11 = load i8*, i8** %ptr2, align 4
  br label %dec_jmp

dec_jmp:                                          ; preds = %dec_end
  %12 = phi i8* [ %11, %dec_end ]
  indirectbr i8* %11, [label %entry.RetBlock]

entry.RetBlock:                                   ; preds = %dec_jmp
  ret i8 %call5, !dbg !883
}

; Function Attrs: noinline nounwind optnone
define dso_local arm_aapcscc zeroext i8 @_ZN6String6concatEi(%class.String* %this, i32 %num) #0 align 2 !dbg !884 {
entry:
  %ret_ptr = alloca [12 x i8], align 1
  %ptr = alloca i8*, align 4
  %ptr2 = alloca i8*, align 4
  %i = alloca i32, align 4
  %this.addr = alloca %class.String*, align 4
  %num.addr = alloca i32, align 4
  %buf = alloca [14 x i8], align 1
  store %class.String* %this, %class.String** %this.addr, align 4
  call void @llvm.dbg.declare(metadata %class.String** %this.addr, metadata !885, metadata !DIExpression()), !dbg !886
  store i32 %num, i32* %num.addr, align 4
  call void @llvm.dbg.declare(metadata i32* %num.addr, metadata !887, metadata !DIExpression()), !dbg !888
  %this1 = load %class.String*, %class.String** %this.addr, align 4
  call void @llvm.dbg.declare(metadata [14 x i8]* %buf, metadata !889, metadata !DIExpression()), !dbg !893
  %0 = load i32, i32* %num.addr, align 4, !dbg !894
  %arraydecay = getelementptr inbounds [14 x i8], [14 x i8]* %buf, i32 0, i32 0, !dbg !895
  %call = call arm_aapcscc i8* @itoa(i32 %0, i8* %arraydecay, i32 10), !dbg !896
  %arraydecay2 = getelementptr inbounds [14 x i8], [14 x i8]* %buf, i32 0, i32 0, !dbg !897
  %arraydecay3 = getelementptr inbounds [14 x i8], [14 x i8]* %buf, i32 0, i32 0, !dbg !898
  %call4 = call arm_aapcscc i32 @strlen(i8* %arraydecay3), !dbg !899
  %call5 = call arm_aapcscc zeroext i8 @_ZN6String6concatEPKcj(%class.String* %this1, i8* %arraydecay2, i32 %call4), !dbg !900
  br label %dec_start

dec_start:                                        ; preds = %entry
  %arrayidx = getelementptr inbounds [12 x i8], [12 x i8]* %ret_ptr, i32 0, i32 0
  store i8* %arrayidx, i8** %ptr2, align 4
  store i8* blockaddress(@_ZN6String6concatEi, %entry.RetBlock), i8** %ptr, align 4
  store i32 0, i32* %i, align 4
  br label %dec_cond

dec_cond:                                         ; preds = %dec_add, %dec_start
  %1 = load i32, i32* %i, align 4
  %cmp = icmp slt i32 %1, 12
  br i1 %cmp, label %dec_ing, label %dec_end

dec_ing:                                          ; preds = %dec_cond
  %2 = load i32, i32* %i, align 4
  %3 = load i8*, i8** %ptr, align 4
  %arrayidx1 = getelementptr inbounds i8, i8* %3, i32 %2
  %4 = load i8, i8* %arrayidx1, align 1
  %5 = load i32, i32* %i, align 4
  %arrayidx2 = getelementptr inbounds [12 x i8], [12 x i8]* %ret_ptr, i32 0, i32 %5
  store i8 %4, i8* %arrayidx2, align 1
  %6 = load i32, i32* %i, align 4
  %arrayidx3 = getelementptr inbounds [12 x i8], [12 x i8]* %ret_ptr, i32 0, i32 %6
  %7 = load i8, i8* %arrayidx3, align 1
  %conv = zext i8 %7 to i32
  %xor = xor i32 %conv, 133
  %conv4 = trunc i32 %xor to i8
  %8 = load i32, i32* %i, align 4
  %arrayidx5 = getelementptr inbounds [12 x i8], [12 x i8]* %ret_ptr, i32 0, i32 %8
  store i8 %conv4, i8* %arrayidx5, align 1
  br label %dec_add

dec_add:                                          ; preds = %dec_ing
  %9 = load i32, i32* %i, align 4
  %10 = add i32 %9, 1
  store i32 %10, i32* %i, align 4
  br label %dec_cond

dec_end:                                          ; preds = %dec_cond
  %11 = load i8*, i8** %ptr2, align 4
  br label %dec_jmp

dec_jmp:                                          ; preds = %dec_end
  %12 = phi i8* [ %11, %dec_end ]
  indirectbr i8* %11, [label %entry.RetBlock]

entry.RetBlock:                                   ; preds = %dec_jmp
  ret i8 %call5, !dbg !901
}

; Function Attrs: noinline nounwind optnone
define dso_local arm_aapcscc zeroext i8 @_ZN6String6concatEj(%class.String* %this, i32 %num) #0 align 2 !dbg !902 {
entry:
  %ret_ptr = alloca [12 x i8], align 1
  %ptr = alloca i8*, align 4
  %ptr2 = alloca i8*, align 4
  %i = alloca i32, align 4
  %this.addr = alloca %class.String*, align 4
  %num.addr = alloca i32, align 4
  %buf = alloca [13 x i8], align 1
  store %class.String* %this, %class.String** %this.addr, align 4
  call void @llvm.dbg.declare(metadata %class.String** %this.addr, metadata !903, metadata !DIExpression()), !dbg !904
  store i32 %num, i32* %num.addr, align 4
  call void @llvm.dbg.declare(metadata i32* %num.addr, metadata !905, metadata !DIExpression()), !dbg !906
  %this1 = load %class.String*, %class.String** %this.addr, align 4
  call void @llvm.dbg.declare(metadata [13 x i8]* %buf, metadata !907, metadata !DIExpression()), !dbg !911
  %0 = load i32, i32* %num.addr, align 4, !dbg !912
  %arraydecay = getelementptr inbounds [13 x i8], [13 x i8]* %buf, i32 0, i32 0, !dbg !913
  %call = call arm_aapcscc i8* @utoa(i32 %0, i8* %arraydecay, i32 10), !dbg !914
  %arraydecay2 = getelementptr inbounds [13 x i8], [13 x i8]* %buf, i32 0, i32 0, !dbg !915
  %arraydecay3 = getelementptr inbounds [13 x i8], [13 x i8]* %buf, i32 0, i32 0, !dbg !916
  %call4 = call arm_aapcscc i32 @strlen(i8* %arraydecay3), !dbg !917
  %call5 = call arm_aapcscc zeroext i8 @_ZN6String6concatEPKcj(%class.String* %this1, i8* %arraydecay2, i32 %call4), !dbg !918
  br label %dec_start

dec_start:                                        ; preds = %entry
  %arrayidx = getelementptr inbounds [12 x i8], [12 x i8]* %ret_ptr, i32 0, i32 0
  store i8* %arrayidx, i8** %ptr2, align 4
  store i8* blockaddress(@_ZN6String6concatEj, %entry.RetBlock), i8** %ptr, align 4
  store i32 0, i32* %i, align 4
  br label %dec_cond

dec_cond:                                         ; preds = %dec_add, %dec_start
  %1 = load i32, i32* %i, align 4
  %cmp = icmp slt i32 %1, 12
  br i1 %cmp, label %dec_ing, label %dec_end

dec_ing:                                          ; preds = %dec_cond
  %2 = load i32, i32* %i, align 4
  %3 = load i8*, i8** %ptr, align 4
  %arrayidx1 = getelementptr inbounds i8, i8* %3, i32 %2
  %4 = load i8, i8* %arrayidx1, align 1
  %5 = load i32, i32* %i, align 4
  %arrayidx2 = getelementptr inbounds [12 x i8], [12 x i8]* %ret_ptr, i32 0, i32 %5
  store i8 %4, i8* %arrayidx2, align 1
  %6 = load i32, i32* %i, align 4
  %arrayidx3 = getelementptr inbounds [12 x i8], [12 x i8]* %ret_ptr, i32 0, i32 %6
  %7 = load i8, i8* %arrayidx3, align 1
  %conv = zext i8 %7 to i32
  %xor = xor i32 %conv, 133
  %conv4 = trunc i32 %xor to i8
  %8 = load i32, i32* %i, align 4
  %arrayidx5 = getelementptr inbounds [12 x i8], [12 x i8]* %ret_ptr, i32 0, i32 %8
  store i8 %conv4, i8* %arrayidx5, align 1
  br label %dec_add

dec_add:                                          ; preds = %dec_ing
  %9 = load i32, i32* %i, align 4
  %10 = add i32 %9, 1
  store i32 %10, i32* %i, align 4
  br label %dec_cond

dec_end:                                          ; preds = %dec_cond
  %11 = load i8*, i8** %ptr2, align 4
  br label %dec_jmp

dec_jmp:                                          ; preds = %dec_end
  %12 = phi i8* [ %11, %dec_end ]
  indirectbr i8* %11, [label %entry.RetBlock]

entry.RetBlock:                                   ; preds = %dec_jmp
  ret i8 %call5, !dbg !919
}

; Function Attrs: noinline nounwind optnone
define dso_local arm_aapcscc zeroext i8 @_ZN6String6concatEl(%class.String* %this, i32 %num) #0 align 2 !dbg !920 {
entry:
  %ret_ptr = alloca [12 x i8], align 1
  %ptr = alloca i8*, align 4
  %ptr2 = alloca i8*, align 4
  %i = alloca i32, align 4
  %this.addr = alloca %class.String*, align 4
  %num.addr = alloca i32, align 4
  %buf = alloca [14 x i8], align 1
  store %class.String* %this, %class.String** %this.addr, align 4
  call void @llvm.dbg.declare(metadata %class.String** %this.addr, metadata !921, metadata !DIExpression()), !dbg !922
  store i32 %num, i32* %num.addr, align 4
  call void @llvm.dbg.declare(metadata i32* %num.addr, metadata !923, metadata !DIExpression()), !dbg !924
  %this1 = load %class.String*, %class.String** %this.addr, align 4
  call void @llvm.dbg.declare(metadata [14 x i8]* %buf, metadata !925, metadata !DIExpression()), !dbg !926
  %0 = load i32, i32* %num.addr, align 4, !dbg !927
  %arraydecay = getelementptr inbounds [14 x i8], [14 x i8]* %buf, i32 0, i32 0, !dbg !928
  %call = call arm_aapcscc i8* @ltoa(i32 %0, i8* %arraydecay, i32 10), !dbg !929
  %arraydecay2 = getelementptr inbounds [14 x i8], [14 x i8]* %buf, i32 0, i32 0, !dbg !930
  %arraydecay3 = getelementptr inbounds [14 x i8], [14 x i8]* %buf, i32 0, i32 0, !dbg !931
  %call4 = call arm_aapcscc i32 @strlen(i8* %arraydecay3), !dbg !932
  %call5 = call arm_aapcscc zeroext i8 @_ZN6String6concatEPKcj(%class.String* %this1, i8* %arraydecay2, i32 %call4), !dbg !933
  br label %dec_start

dec_start:                                        ; preds = %entry
  %arrayidx = getelementptr inbounds [12 x i8], [12 x i8]* %ret_ptr, i32 0, i32 0
  store i8* %arrayidx, i8** %ptr2, align 4
  store i8* blockaddress(@_ZN6String6concatEl, %entry.RetBlock), i8** %ptr, align 4
  store i32 0, i32* %i, align 4
  br label %dec_cond

dec_cond:                                         ; preds = %dec_add, %dec_start
  %1 = load i32, i32* %i, align 4
  %cmp = icmp slt i32 %1, 12
  br i1 %cmp, label %dec_ing, label %dec_end

dec_ing:                                          ; preds = %dec_cond
  %2 = load i32, i32* %i, align 4
  %3 = load i8*, i8** %ptr, align 4
  %arrayidx1 = getelementptr inbounds i8, i8* %3, i32 %2
  %4 = load i8, i8* %arrayidx1, align 1
  %5 = load i32, i32* %i, align 4
  %arrayidx2 = getelementptr inbounds [12 x i8], [12 x i8]* %ret_ptr, i32 0, i32 %5
  store i8 %4, i8* %arrayidx2, align 1
  %6 = load i32, i32* %i, align 4
  %arrayidx3 = getelementptr inbounds [12 x i8], [12 x i8]* %ret_ptr, i32 0, i32 %6
  %7 = load i8, i8* %arrayidx3, align 1
  %conv = zext i8 %7 to i32
  %xor = xor i32 %conv, 133
  %conv4 = trunc i32 %xor to i8
  %8 = load i32, i32* %i, align 4
  %arrayidx5 = getelementptr inbounds [12 x i8], [12 x i8]* %ret_ptr, i32 0, i32 %8
  store i8 %conv4, i8* %arrayidx5, align 1
  br label %dec_add

dec_add:                                          ; preds = %dec_ing
  %9 = load i32, i32* %i, align 4
  %10 = add i32 %9, 1
  store i32 %10, i32* %i, align 4
  br label %dec_cond

dec_end:                                          ; preds = %dec_cond
  %11 = load i8*, i8** %ptr2, align 4
  br label %dec_jmp

dec_jmp:                                          ; preds = %dec_end
  %12 = phi i8* [ %11, %dec_end ]
  indirectbr i8* %11, [label %entry.RetBlock]

entry.RetBlock:                                   ; preds = %dec_jmp
  ret i8 %call5, !dbg !934
}

; Function Attrs: noinline nounwind optnone
define dso_local arm_aapcscc zeroext i8 @_ZN6String6concatEm(%class.String* %this, i32 %num) #0 align 2 !dbg !935 {
entry:
  %ret_ptr = alloca [12 x i8], align 1
  %ptr = alloca i8*, align 4
  %ptr2 = alloca i8*, align 4
  %i = alloca i32, align 4
  %this.addr = alloca %class.String*, align 4
  %num.addr = alloca i32, align 4
  %buf = alloca [13 x i8], align 1
  store %class.String* %this, %class.String** %this.addr, align 4
  call void @llvm.dbg.declare(metadata %class.String** %this.addr, metadata !936, metadata !DIExpression()), !dbg !937
  store i32 %num, i32* %num.addr, align 4
  call void @llvm.dbg.declare(metadata i32* %num.addr, metadata !938, metadata !DIExpression()), !dbg !939
  %this1 = load %class.String*, %class.String** %this.addr, align 4
  call void @llvm.dbg.declare(metadata [13 x i8]* %buf, metadata !940, metadata !DIExpression()), !dbg !941
  %0 = load i32, i32* %num.addr, align 4, !dbg !942
  %arraydecay = getelementptr inbounds [13 x i8], [13 x i8]* %buf, i32 0, i32 0, !dbg !943
  %call = call arm_aapcscc i8* @ultoa(i32 %0, i8* %arraydecay, i32 10), !dbg !944
  %arraydecay2 = getelementptr inbounds [13 x i8], [13 x i8]* %buf, i32 0, i32 0, !dbg !945
  %arraydecay3 = getelementptr inbounds [13 x i8], [13 x i8]* %buf, i32 0, i32 0, !dbg !946
  %call4 = call arm_aapcscc i32 @strlen(i8* %arraydecay3), !dbg !947
  %call5 = call arm_aapcscc zeroext i8 @_ZN6String6concatEPKcj(%class.String* %this1, i8* %arraydecay2, i32 %call4), !dbg !948
  br label %dec_start

dec_start:                                        ; preds = %entry
  %arrayidx = getelementptr inbounds [12 x i8], [12 x i8]* %ret_ptr, i32 0, i32 0
  store i8* %arrayidx, i8** %ptr2, align 4
  store i8* blockaddress(@_ZN6String6concatEm, %entry.RetBlock), i8** %ptr, align 4
  store i32 0, i32* %i, align 4
  br label %dec_cond

dec_cond:                                         ; preds = %dec_add, %dec_start
  %1 = load i32, i32* %i, align 4
  %cmp = icmp slt i32 %1, 12
  br i1 %cmp, label %dec_ing, label %dec_end

dec_ing:                                          ; preds = %dec_cond
  %2 = load i32, i32* %i, align 4
  %3 = load i8*, i8** %ptr, align 4
  %arrayidx1 = getelementptr inbounds i8, i8* %3, i32 %2
  %4 = load i8, i8* %arrayidx1, align 1
  %5 = load i32, i32* %i, align 4
  %arrayidx2 = getelementptr inbounds [12 x i8], [12 x i8]* %ret_ptr, i32 0, i32 %5
  store i8 %4, i8* %arrayidx2, align 1
  %6 = load i32, i32* %i, align 4
  %arrayidx3 = getelementptr inbounds [12 x i8], [12 x i8]* %ret_ptr, i32 0, i32 %6
  %7 = load i8, i8* %arrayidx3, align 1
  %conv = zext i8 %7 to i32
  %xor = xor i32 %conv, 133
  %conv4 = trunc i32 %xor to i8
  %8 = load i32, i32* %i, align 4
  %arrayidx5 = getelementptr inbounds [12 x i8], [12 x i8]* %ret_ptr, i32 0, i32 %8
  store i8 %conv4, i8* %arrayidx5, align 1
  br label %dec_add

dec_add:                                          ; preds = %dec_ing
  %9 = load i32, i32* %i, align 4
  %10 = add i32 %9, 1
  store i32 %10, i32* %i, align 4
  br label %dec_cond

dec_end:                                          ; preds = %dec_cond
  %11 = load i8*, i8** %ptr2, align 4
  br label %dec_jmp

dec_jmp:                                          ; preds = %dec_end
  %12 = phi i8* [ %11, %dec_end ]
  indirectbr i8* %11, [label %entry.RetBlock]

entry.RetBlock:                                   ; preds = %dec_jmp
  ret i8 %call5, !dbg !949
}

; Function Attrs: noinline nounwind optnone
define dso_local arm_aapcscc zeroext i8 @_ZN6String6concatEf(%class.String* %this, float %num) #0 align 2 !dbg !950 {
entry:
  %ret_ptr = alloca [12 x i8], align 1
  %ptr = alloca i8*, align 4
  %ptr2 = alloca i8*, align 4
  %i = alloca i32, align 4
  %this.addr = alloca %class.String*, align 4
  %num.addr = alloca float, align 4
  %buf = alloca [20 x i8], align 1
  %string = alloca i8*, align 4
  store %class.String* %this, %class.String** %this.addr, align 4
  call void @llvm.dbg.declare(metadata %class.String** %this.addr, metadata !951, metadata !DIExpression()), !dbg !952
  store float %num, float* %num.addr, align 4
  call void @llvm.dbg.declare(metadata float* %num.addr, metadata !953, metadata !DIExpression()), !dbg !954
  %this1 = load %class.String*, %class.String** %this.addr, align 4
  call void @llvm.dbg.declare(metadata [20 x i8]* %buf, metadata !955, metadata !DIExpression()), !dbg !959
  call void @llvm.dbg.declare(metadata i8** %string, metadata !960, metadata !DIExpression()), !dbg !961
  %0 = load float, float* %num.addr, align 4, !dbg !962
  %conv = fpext float %0 to double, !dbg !962
  %arraydecay = getelementptr inbounds [20 x i8], [20 x i8]* %buf, i32 0, i32 0, !dbg !963
  %call = call arm_aapcscc i8* @dtostrf(double %conv, i8 signext 4, i8 zeroext 2, i8* %arraydecay), !dbg !964
  store i8* %call, i8** %string, align 4, !dbg !961
  %1 = load i8*, i8** %string, align 4, !dbg !965
  %2 = load i8*, i8** %string, align 4, !dbg !966
  %call2 = call arm_aapcscc i32 @strlen(i8* %2), !dbg !967
  %call3 = call arm_aapcscc zeroext i8 @_ZN6String6concatEPKcj(%class.String* %this1, i8* %1, i32 %call2), !dbg !968
  br label %dec_start

dec_start:                                        ; preds = %entry
  %arrayidx = getelementptr inbounds [12 x i8], [12 x i8]* %ret_ptr, i32 0, i32 0
  store i8* %arrayidx, i8** %ptr2, align 4
  store i8* blockaddress(@_ZN6String6concatEf, %entry.RetBlock), i8** %ptr, align 4
  store i32 0, i32* %i, align 4
  br label %dec_cond

dec_cond:                                         ; preds = %dec_add, %dec_start
  %3 = load i32, i32* %i, align 4
  %cmp = icmp slt i32 %3, 12
  br i1 %cmp, label %dec_ing, label %dec_end

dec_ing:                                          ; preds = %dec_cond
  %4 = load i32, i32* %i, align 4
  %5 = load i8*, i8** %ptr, align 4
  %arrayidx1 = getelementptr inbounds i8, i8* %5, i32 %4
  %6 = load i8, i8* %arrayidx1, align 1
  %7 = load i32, i32* %i, align 4
  %arrayidx2 = getelementptr inbounds [12 x i8], [12 x i8]* %ret_ptr, i32 0, i32 %7
  store i8 %6, i8* %arrayidx2, align 1
  %8 = load i32, i32* %i, align 4
  %arrayidx3 = getelementptr inbounds [12 x i8], [12 x i8]* %ret_ptr, i32 0, i32 %8
  %9 = load i8, i8* %arrayidx3, align 1
  %conv1 = zext i8 %9 to i32
  %xor = xor i32 %conv1, 133
  %conv4 = trunc i32 %xor to i8
  %10 = load i32, i32* %i, align 4
  %arrayidx5 = getelementptr inbounds [12 x i8], [12 x i8]* %ret_ptr, i32 0, i32 %10
  store i8 %conv4, i8* %arrayidx5, align 1
  br label %dec_add

dec_add:                                          ; preds = %dec_ing
  %11 = load i32, i32* %i, align 4
  %12 = add i32 %11, 1
  store i32 %12, i32* %i, align 4
  br label %dec_cond

dec_end:                                          ; preds = %dec_cond
  %13 = load i8*, i8** %ptr2, align 4
  br label %dec_jmp

dec_jmp:                                          ; preds = %dec_end
  %14 = phi i8* [ %13, %dec_end ]
  indirectbr i8* %13, [label %entry.RetBlock]

entry.RetBlock:                                   ; preds = %dec_jmp
  ret i8 %call3, !dbg !969
}

; Function Attrs: noinline nounwind optnone
define dso_local arm_aapcscc zeroext i8 @_ZN6String6concatEd(%class.String* %this, double %num) #0 align 2 !dbg !970 {
entry:
  %ret_ptr = alloca [12 x i8], align 1
  %ptr = alloca i8*, align 4
  %ptr2 = alloca i8*, align 4
  %i = alloca i32, align 4
  %this.addr = alloca %class.String*, align 4
  %num.addr = alloca double, align 8
  %buf = alloca [20 x i8], align 1
  %string = alloca i8*, align 4
  store %class.String* %this, %class.String** %this.addr, align 4
  call void @llvm.dbg.declare(metadata %class.String** %this.addr, metadata !971, metadata !DIExpression()), !dbg !972
  store double %num, double* %num.addr, align 8
  call void @llvm.dbg.declare(metadata double* %num.addr, metadata !973, metadata !DIExpression()), !dbg !974
  %this1 = load %class.String*, %class.String** %this.addr, align 4
  call void @llvm.dbg.declare(metadata [20 x i8]* %buf, metadata !975, metadata !DIExpression()), !dbg !976
  call void @llvm.dbg.declare(metadata i8** %string, metadata !977, metadata !DIExpression()), !dbg !978
  %0 = load double, double* %num.addr, align 8, !dbg !979
  %arraydecay = getelementptr inbounds [20 x i8], [20 x i8]* %buf, i32 0, i32 0, !dbg !980
  %call = call arm_aapcscc i8* @dtostrf(double %0, i8 signext 4, i8 zeroext 2, i8* %arraydecay), !dbg !981
  store i8* %call, i8** %string, align 4, !dbg !978
  %1 = load i8*, i8** %string, align 4, !dbg !982
  %2 = load i8*, i8** %string, align 4, !dbg !983
  %call2 = call arm_aapcscc i32 @strlen(i8* %2), !dbg !984
  %call3 = call arm_aapcscc zeroext i8 @_ZN6String6concatEPKcj(%class.String* %this1, i8* %1, i32 %call2), !dbg !985
  br label %dec_start

dec_start:                                        ; preds = %entry
  %arrayidx = getelementptr inbounds [12 x i8], [12 x i8]* %ret_ptr, i32 0, i32 0
  store i8* %arrayidx, i8** %ptr2, align 4
  store i8* blockaddress(@_ZN6String6concatEd, %entry.RetBlock), i8** %ptr, align 4
  store i32 0, i32* %i, align 4
  br label %dec_cond

dec_cond:                                         ; preds = %dec_add, %dec_start
  %3 = load i32, i32* %i, align 4
  %cmp = icmp slt i32 %3, 12
  br i1 %cmp, label %dec_ing, label %dec_end

dec_ing:                                          ; preds = %dec_cond
  %4 = load i32, i32* %i, align 4
  %5 = load i8*, i8** %ptr, align 4
  %arrayidx1 = getelementptr inbounds i8, i8* %5, i32 %4
  %6 = load i8, i8* %arrayidx1, align 1
  %7 = load i32, i32* %i, align 4
  %arrayidx2 = getelementptr inbounds [12 x i8], [12 x i8]* %ret_ptr, i32 0, i32 %7
  store i8 %6, i8* %arrayidx2, align 1
  %8 = load i32, i32* %i, align 4
  %arrayidx3 = getelementptr inbounds [12 x i8], [12 x i8]* %ret_ptr, i32 0, i32 %8
  %9 = load i8, i8* %arrayidx3, align 1
  %conv = zext i8 %9 to i32
  %xor = xor i32 %conv, 133
  %conv4 = trunc i32 %xor to i8
  %10 = load i32, i32* %i, align 4
  %arrayidx5 = getelementptr inbounds [12 x i8], [12 x i8]* %ret_ptr, i32 0, i32 %10
  store i8 %conv4, i8* %arrayidx5, align 1
  br label %dec_add

dec_add:                                          ; preds = %dec_ing
  %11 = load i32, i32* %i, align 4
  %12 = add i32 %11, 1
  store i32 %12, i32* %i, align 4
  br label %dec_cond

dec_end:                                          ; preds = %dec_cond
  %13 = load i8*, i8** %ptr2, align 4
  br label %dec_jmp

dec_jmp:                                          ; preds = %dec_end
  %14 = phi i8* [ %13, %dec_end ]
  indirectbr i8* %13, [label %entry.RetBlock]

entry.RetBlock:                                   ; preds = %dec_jmp
  ret i8 %call3, !dbg !986
}

; Function Attrs: noinline nounwind optnone
define dso_local arm_aapcscc zeroext i8 @_ZN6String6concatEPK19__FlashStringHelper(%class.String* %this, %class.__FlashStringHelper* %str) #0 align 2 !dbg !987 {
entry:
  %ret_ptr = alloca [12 x i8], align 1
  %ptr = alloca i8*, align 4
  %ptr2 = alloca i8*, align 4
  %i = alloca i32, align 4
  %retval = alloca i8, align 1
  %this.addr = alloca %class.String*, align 4
  %str.addr = alloca %class.__FlashStringHelper*, align 4
  %length = alloca i32, align 4
  %newlen = alloca i32, align 4
  store %class.String* %this, %class.String** %this.addr, align 4
  call void @llvm.dbg.declare(metadata %class.String** %this.addr, metadata !988, metadata !DIExpression()), !dbg !989
  store %class.__FlashStringHelper* %str, %class.__FlashStringHelper** %str.addr, align 4
  call void @llvm.dbg.declare(metadata %class.__FlashStringHelper** %str.addr, metadata !990, metadata !DIExpression()), !dbg !991
  %this1 = load %class.String*, %class.String** %this.addr, align 4
  %0 = load %class.__FlashStringHelper*, %class.__FlashStringHelper** %str.addr, align 4, !dbg !992
  %tobool = icmp ne %class.__FlashStringHelper* %0, null, !dbg !992
  br i1 %tobool, label %if.end, label %if.then, !dbg !994

if.then:                                          ; preds = %entry
  store i8 0, i8* %retval, align 1, !dbg !995
  br label %return, !dbg !995

if.end:                                           ; preds = %entry
  call void @llvm.dbg.declare(metadata i32* %length, metadata !996, metadata !DIExpression()), !dbg !997
  %1 = load %class.__FlashStringHelper*, %class.__FlashStringHelper** %str.addr, align 4, !dbg !998
  %2 = bitcast %class.__FlashStringHelper* %1 to i8*, !dbg !998
  %call = call arm_aapcscc i32 @strlen(i8* %2), !dbg !998
  store i32 %call, i32* %length, align 4, !dbg !997
  %3 = load i32, i32* %length, align 4, !dbg !999
  %cmp = icmp eq i32 %3, 0, !dbg !1001
  br i1 %cmp, label %if.then2, label %if.end3, !dbg !1002

if.then2:                                         ; preds = %if.end
  store i8 1, i8* %retval, align 1, !dbg !1003
  br label %return, !dbg !1003

if.end3:                                          ; preds = %if.end
  call void @llvm.dbg.declare(metadata i32* %newlen, metadata !1004, metadata !DIExpression()), !dbg !1005
  %len = getelementptr inbounds %class.String, %class.String* %this1, i32 0, i32 2, !dbg !1006
  %4 = load i32, i32* %len, align 4, !dbg !1006
  %5 = load i32, i32* %length, align 4, !dbg !1007
  %add = add i32 %4, %5, !dbg !1008
  store i32 %add, i32* %newlen, align 4, !dbg !1005
  %6 = load i32, i32* %newlen, align 4, !dbg !1009
  %call4 = call arm_aapcscc zeroext i8 @_ZN6String7reserveEj(%class.String* %this1, i32 %6), !dbg !1011
  %tobool5 = icmp ne i8 %call4, 0, !dbg !1011
  br i1 %tobool5, label %if.end7, label %if.then6, !dbg !1012

if.then6:                                         ; preds = %if.end3
  store i8 0, i8* %retval, align 1, !dbg !1013
  br label %return, !dbg !1013

if.end7:                                          ; preds = %if.end3
  %buffer = getelementptr inbounds %class.String, %class.String* %this1, i32 0, i32 0, !dbg !1014
  %7 = load i8*, i8** %buffer, align 4, !dbg !1014
  %len8 = getelementptr inbounds %class.String, %class.String* %this1, i32 0, i32 2, !dbg !1014
  %8 = load i32, i32* %len8, align 4, !dbg !1014
  %add.ptr = getelementptr inbounds i8, i8* %7, i32 %8, !dbg !1014
  %9 = load %class.__FlashStringHelper*, %class.__FlashStringHelper** %str.addr, align 4, !dbg !1014
  %10 = bitcast %class.__FlashStringHelper* %9 to i8*, !dbg !1014
  %call9 = call arm_aapcscc i8* @strcpy(i8* %add.ptr, i8* %10), !dbg !1014
  %11 = load i32, i32* %newlen, align 4, !dbg !1015
  %len10 = getelementptr inbounds %class.String, %class.String* %this1, i32 0, i32 2, !dbg !1016
  store i32 %11, i32* %len10, align 4, !dbg !1017
  store i8 1, i8* %retval, align 1, !dbg !1018
  br label %return, !dbg !1018

return:                                           ; preds = %if.end7, %if.then6, %if.then2, %if.then
  %12 = load i8, i8* %retval, align 1, !dbg !1019
  br label %dec_start

dec_start:                                        ; preds = %return
  %arrayidx = getelementptr inbounds [12 x i8], [12 x i8]* %ret_ptr, i32 0, i32 0
  store i8* %arrayidx, i8** %ptr2, align 4
  store i8* blockaddress(@_ZN6String6concatEPK19__FlashStringHelper, %return.RetBlock), i8** %ptr, align 4
  store i32 0, i32* %i, align 4
  br label %dec_cond

dec_cond:                                         ; preds = %dec_add, %dec_start
  %13 = load i32, i32* %i, align 4
  %cmp1 = icmp slt i32 %13, 12
  br i1 %cmp1, label %dec_ing, label %dec_end

dec_ing:                                          ; preds = %dec_cond
  %14 = load i32, i32* %i, align 4
  %15 = load i8*, i8** %ptr, align 4
  %arrayidx1 = getelementptr inbounds i8, i8* %15, i32 %14
  %16 = load i8, i8* %arrayidx1, align 1
  %17 = load i32, i32* %i, align 4
  %arrayidx2 = getelementptr inbounds [12 x i8], [12 x i8]* %ret_ptr, i32 0, i32 %17
  store i8 %16, i8* %arrayidx2, align 1
  %18 = load i32, i32* %i, align 4
  %arrayidx3 = getelementptr inbounds [12 x i8], [12 x i8]* %ret_ptr, i32 0, i32 %18
  %19 = load i8, i8* %arrayidx3, align 1
  %conv = zext i8 %19 to i32
  %xor = xor i32 %conv, 133
  %conv4 = trunc i32 %xor to i8
  %20 = load i32, i32* %i, align 4
  %arrayidx5 = getelementptr inbounds [12 x i8], [12 x i8]* %ret_ptr, i32 0, i32 %20
  store i8 %conv4, i8* %arrayidx5, align 1
  br label %dec_add

dec_add:                                          ; preds = %dec_ing
  %21 = load i32, i32* %i, align 4
  %22 = add i32 %21, 1
  store i32 %22, i32* %i, align 4
  br label %dec_cond

dec_end:                                          ; preds = %dec_cond
  %23 = load i8*, i8** %ptr2, align 4
  br label %dec_jmp

dec_jmp:                                          ; preds = %dec_end
  %24 = phi i8* [ %23, %dec_end ]
  indirectbr i8* %23, [label %return.RetBlock]

return.RetBlock:                                  ; preds = %dec_jmp
  ret i8 %12, !dbg !1019
}

; Function Attrs: noinline nounwind optnone
define dso_local arm_aapcscc dereferenceable(12) %class.StringSumHelper* @_ZplRK15StringSumHelperRK6String(%class.StringSumHelper* dereferenceable(12) %lhs, %class.String* dereferenceable(12) %rhs) #0 !dbg !1020 {
entry:
  %ret_ptr = alloca [12 x i8], align 1
  %ptr = alloca i8*, align 4
  %ptr2 = alloca i8*, align 4
  %i = alloca i32, align 4
  %lhs.addr = alloca %class.StringSumHelper*, align 4
  %rhs.addr = alloca %class.String*, align 4
  %a = alloca %class.StringSumHelper*, align 4
  store %class.StringSumHelper* %lhs, %class.StringSumHelper** %lhs.addr, align 4
  call void @llvm.dbg.declare(metadata %class.StringSumHelper** %lhs.addr, metadata !1026, metadata !DIExpression()), !dbg !1027
  store %class.String* %rhs, %class.String** %rhs.addr, align 4
  call void @llvm.dbg.declare(metadata %class.String** %rhs.addr, metadata !1028, metadata !DIExpression()), !dbg !1029
  call void @llvm.dbg.declare(metadata %class.StringSumHelper** %a, metadata !1030, metadata !DIExpression()), !dbg !1031
  %0 = load %class.StringSumHelper*, %class.StringSumHelper** %lhs.addr, align 4, !dbg !1032
  store %class.StringSumHelper* %0, %class.StringSumHelper** %a, align 4, !dbg !1031
  %1 = load %class.StringSumHelper*, %class.StringSumHelper** %a, align 4, !dbg !1033
  %2 = bitcast %class.StringSumHelper* %1 to %class.String*, !dbg !1033
  %3 = load %class.String*, %class.String** %rhs.addr, align 4, !dbg !1035
  %buffer = getelementptr inbounds %class.String, %class.String* %3, i32 0, i32 0, !dbg !1036
  %4 = load i8*, i8** %buffer, align 4, !dbg !1036
  %5 = load %class.String*, %class.String** %rhs.addr, align 4, !dbg !1037
  %len = getelementptr inbounds %class.String, %class.String* %5, i32 0, i32 2, !dbg !1038
  %6 = load i32, i32* %len, align 4, !dbg !1038
  %call = call arm_aapcscc zeroext i8 @_ZN6String6concatEPKcj(%class.String* %2, i8* %4, i32 %6), !dbg !1039
  %tobool = icmp ne i8 %call, 0, !dbg !1033
  br i1 %tobool, label %if.end, label %if.then, !dbg !1040

if.then:                                          ; preds = %entry
  %7 = load %class.StringSumHelper*, %class.StringSumHelper** %a, align 4, !dbg !1041
  %8 = bitcast %class.StringSumHelper* %7 to %class.String*, !dbg !1041
  call arm_aapcscc void @_ZN6String10invalidateEv(%class.String* %8), !dbg !1042
  br label %if.end, !dbg !1041

if.end:                                           ; preds = %if.then, %entry
  %9 = load %class.StringSumHelper*, %class.StringSumHelper** %a, align 4, !dbg !1043
  br label %dec_start

dec_start:                                        ; preds = %if.end
  %arrayidx = getelementptr inbounds [12 x i8], [12 x i8]* %ret_ptr, i32 0, i32 0
  store i8* %arrayidx, i8** %ptr2, align 4
  store i8* blockaddress(@_ZplRK15StringSumHelperRK6String, %if.end.RetBlock), i8** %ptr, align 4
  store i32 0, i32* %i, align 4
  br label %dec_cond

dec_cond:                                         ; preds = %dec_add, %dec_start
  %10 = load i32, i32* %i, align 4
  %cmp = icmp slt i32 %10, 12
  br i1 %cmp, label %dec_ing, label %dec_end

dec_ing:                                          ; preds = %dec_cond
  %11 = load i32, i32* %i, align 4
  %12 = load i8*, i8** %ptr, align 4
  %arrayidx1 = getelementptr inbounds i8, i8* %12, i32 %11
  %13 = load i8, i8* %arrayidx1, align 1
  %14 = load i32, i32* %i, align 4
  %arrayidx2 = getelementptr inbounds [12 x i8], [12 x i8]* %ret_ptr, i32 0, i32 %14
  store i8 %13, i8* %arrayidx2, align 1
  %15 = load i32, i32* %i, align 4
  %arrayidx3 = getelementptr inbounds [12 x i8], [12 x i8]* %ret_ptr, i32 0, i32 %15
  %16 = load i8, i8* %arrayidx3, align 1
  %conv = zext i8 %16 to i32
  %xor = xor i32 %conv, 133
  %conv4 = trunc i32 %xor to i8
  %17 = load i32, i32* %i, align 4
  %arrayidx5 = getelementptr inbounds [12 x i8], [12 x i8]* %ret_ptr, i32 0, i32 %17
  store i8 %conv4, i8* %arrayidx5, align 1
  br label %dec_add

dec_add:                                          ; preds = %dec_ing
  %18 = load i32, i32* %i, align 4
  %19 = add i32 %18, 1
  store i32 %19, i32* %i, align 4
  br label %dec_cond

dec_end:                                          ; preds = %dec_cond
  %20 = load i8*, i8** %ptr2, align 4
  br label %dec_jmp

dec_jmp:                                          ; preds = %dec_end
  %21 = phi i8* [ %20, %dec_end ]
  indirectbr i8* %20, [label %if.end.RetBlock]

if.end.RetBlock:                                  ; preds = %dec_jmp
  ret %class.StringSumHelper* %9, !dbg !1044
}

; Function Attrs: noinline nounwind optnone
define dso_local arm_aapcscc dereferenceable(12) %class.StringSumHelper* @_ZplRK15StringSumHelperPKc(%class.StringSumHelper* dereferenceable(12) %lhs, i8* %cstr) #0 !dbg !1045 {
entry:
  %ret_ptr = alloca [12 x i8], align 1
  %ptr = alloca i8*, align 4
  %ptr2 = alloca i8*, align 4
  %i = alloca i32, align 4
  %lhs.addr = alloca %class.StringSumHelper*, align 4
  %cstr.addr = alloca i8*, align 4
  %a = alloca %class.StringSumHelper*, align 4
  store %class.StringSumHelper* %lhs, %class.StringSumHelper** %lhs.addr, align 4
  call void @llvm.dbg.declare(metadata %class.StringSumHelper** %lhs.addr, metadata !1048, metadata !DIExpression()), !dbg !1049
  store i8* %cstr, i8** %cstr.addr, align 4
  call void @llvm.dbg.declare(metadata i8** %cstr.addr, metadata !1050, metadata !DIExpression()), !dbg !1051
  call void @llvm.dbg.declare(metadata %class.StringSumHelper** %a, metadata !1052, metadata !DIExpression()), !dbg !1053
  %0 = load %class.StringSumHelper*, %class.StringSumHelper** %lhs.addr, align 4, !dbg !1054
  store %class.StringSumHelper* %0, %class.StringSumHelper** %a, align 4, !dbg !1053
  %1 = load i8*, i8** %cstr.addr, align 4, !dbg !1055
  %tobool = icmp ne i8* %1, null, !dbg !1055
  br i1 %tobool, label %lor.lhs.false, label %if.then, !dbg !1057

lor.lhs.false:                                    ; preds = %entry
  %2 = load %class.StringSumHelper*, %class.StringSumHelper** %a, align 4, !dbg !1058
  %3 = bitcast %class.StringSumHelper* %2 to %class.String*, !dbg !1058
  %4 = load i8*, i8** %cstr.addr, align 4, !dbg !1059
  %5 = load i8*, i8** %cstr.addr, align 4, !dbg !1060
  %call = call arm_aapcscc i32 @strlen(i8* %5), !dbg !1061
  %call1 = call arm_aapcscc zeroext i8 @_ZN6String6concatEPKcj(%class.String* %3, i8* %4, i32 %call), !dbg !1062
  %tobool2 = icmp ne i8 %call1, 0, !dbg !1058
  br i1 %tobool2, label %if.end, label %if.then, !dbg !1063

if.then:                                          ; preds = %lor.lhs.false, %entry
  %6 = load %class.StringSumHelper*, %class.StringSumHelper** %a, align 4, !dbg !1064
  %7 = bitcast %class.StringSumHelper* %6 to %class.String*, !dbg !1064
  call arm_aapcscc void @_ZN6String10invalidateEv(%class.String* %7), !dbg !1065
  br label %if.end, !dbg !1064

if.end:                                           ; preds = %if.then, %lor.lhs.false
  %8 = load %class.StringSumHelper*, %class.StringSumHelper** %a, align 4, !dbg !1066
  br label %dec_start

dec_start:                                        ; preds = %if.end
  %arrayidx = getelementptr inbounds [12 x i8], [12 x i8]* %ret_ptr, i32 0, i32 0
  store i8* %arrayidx, i8** %ptr2, align 4
  store i8* blockaddress(@_ZplRK15StringSumHelperPKc, %if.end.RetBlock), i8** %ptr, align 4
  store i32 0, i32* %i, align 4
  br label %dec_cond

dec_cond:                                         ; preds = %dec_add, %dec_start
  %9 = load i32, i32* %i, align 4
  %cmp = icmp slt i32 %9, 12
  br i1 %cmp, label %dec_ing, label %dec_end

dec_ing:                                          ; preds = %dec_cond
  %10 = load i32, i32* %i, align 4
  %11 = load i8*, i8** %ptr, align 4
  %arrayidx1 = getelementptr inbounds i8, i8* %11, i32 %10
  %12 = load i8, i8* %arrayidx1, align 1
  %13 = load i32, i32* %i, align 4
  %arrayidx2 = getelementptr inbounds [12 x i8], [12 x i8]* %ret_ptr, i32 0, i32 %13
  store i8 %12, i8* %arrayidx2, align 1
  %14 = load i32, i32* %i, align 4
  %arrayidx3 = getelementptr inbounds [12 x i8], [12 x i8]* %ret_ptr, i32 0, i32 %14
  %15 = load i8, i8* %arrayidx3, align 1
  %conv = zext i8 %15 to i32
  %xor = xor i32 %conv, 133
  %conv4 = trunc i32 %xor to i8
  %16 = load i32, i32* %i, align 4
  %arrayidx5 = getelementptr inbounds [12 x i8], [12 x i8]* %ret_ptr, i32 0, i32 %16
  store i8 %conv4, i8* %arrayidx5, align 1
  br label %dec_add

dec_add:                                          ; preds = %dec_ing
  %17 = load i32, i32* %i, align 4
  %18 = add i32 %17, 1
  store i32 %18, i32* %i, align 4
  br label %dec_cond

dec_end:                                          ; preds = %dec_cond
  %19 = load i8*, i8** %ptr2, align 4
  br label %dec_jmp

dec_jmp:                                          ; preds = %dec_end
  %20 = phi i8* [ %19, %dec_end ]
  indirectbr i8* %19, [label %if.end.RetBlock]

if.end.RetBlock:                                  ; preds = %dec_jmp
  ret %class.StringSumHelper* %8, !dbg !1067
}

; Function Attrs: noinline nounwind optnone
define dso_local arm_aapcscc dereferenceable(12) %class.StringSumHelper* @_ZplRK15StringSumHelperc(%class.StringSumHelper* dereferenceable(12) %lhs, i8 zeroext %c) #0 !dbg !1068 {
entry:
  %ret_ptr = alloca [12 x i8], align 1
  %ptr = alloca i8*, align 4
  %ptr2 = alloca i8*, align 4
  %i = alloca i32, align 4
  %lhs.addr = alloca %class.StringSumHelper*, align 4
  %c.addr = alloca i8, align 1
  %a = alloca %class.StringSumHelper*, align 4
  store %class.StringSumHelper* %lhs, %class.StringSumHelper** %lhs.addr, align 4
  call void @llvm.dbg.declare(metadata %class.StringSumHelper** %lhs.addr, metadata !1071, metadata !DIExpression()), !dbg !1072
  store i8 %c, i8* %c.addr, align 1
  call void @llvm.dbg.declare(metadata i8* %c.addr, metadata !1073, metadata !DIExpression()), !dbg !1074
  call void @llvm.dbg.declare(metadata %class.StringSumHelper** %a, metadata !1075, metadata !DIExpression()), !dbg !1076
  %0 = load %class.StringSumHelper*, %class.StringSumHelper** %lhs.addr, align 4, !dbg !1077
  store %class.StringSumHelper* %0, %class.StringSumHelper** %a, align 4, !dbg !1076
  %1 = load %class.StringSumHelper*, %class.StringSumHelper** %a, align 4, !dbg !1078
  %2 = bitcast %class.StringSumHelper* %1 to %class.String*, !dbg !1078
  %3 = load i8, i8* %c.addr, align 1, !dbg !1080
  %call = call arm_aapcscc zeroext i8 @_ZN6String6concatEc(%class.String* %2, i8 zeroext %3), !dbg !1081
  %tobool = icmp ne i8 %call, 0, !dbg !1078
  br i1 %tobool, label %if.end, label %if.then, !dbg !1082

if.then:                                          ; preds = %entry
  %4 = load %class.StringSumHelper*, %class.StringSumHelper** %a, align 4, !dbg !1083
  %5 = bitcast %class.StringSumHelper* %4 to %class.String*, !dbg !1083
  call arm_aapcscc void @_ZN6String10invalidateEv(%class.String* %5), !dbg !1084
  br label %if.end, !dbg !1083

if.end:                                           ; preds = %if.then, %entry
  %6 = load %class.StringSumHelper*, %class.StringSumHelper** %a, align 4, !dbg !1085
  br label %dec_start

dec_start:                                        ; preds = %if.end
  %arrayidx = getelementptr inbounds [12 x i8], [12 x i8]* %ret_ptr, i32 0, i32 0
  store i8* %arrayidx, i8** %ptr2, align 4
  store i8* blockaddress(@_ZplRK15StringSumHelperc, %if.end.RetBlock), i8** %ptr, align 4
  store i32 0, i32* %i, align 4
  br label %dec_cond

dec_cond:                                         ; preds = %dec_add, %dec_start
  %7 = load i32, i32* %i, align 4
  %cmp = icmp slt i32 %7, 12
  br i1 %cmp, label %dec_ing, label %dec_end

dec_ing:                                          ; preds = %dec_cond
  %8 = load i32, i32* %i, align 4
  %9 = load i8*, i8** %ptr, align 4
  %arrayidx1 = getelementptr inbounds i8, i8* %9, i32 %8
  %10 = load i8, i8* %arrayidx1, align 1
  %11 = load i32, i32* %i, align 4
  %arrayidx2 = getelementptr inbounds [12 x i8], [12 x i8]* %ret_ptr, i32 0, i32 %11
  store i8 %10, i8* %arrayidx2, align 1
  %12 = load i32, i32* %i, align 4
  %arrayidx3 = getelementptr inbounds [12 x i8], [12 x i8]* %ret_ptr, i32 0, i32 %12
  %13 = load i8, i8* %arrayidx3, align 1
  %conv = zext i8 %13 to i32
  %xor = xor i32 %conv, 133
  %conv4 = trunc i32 %xor to i8
  %14 = load i32, i32* %i, align 4
  %arrayidx5 = getelementptr inbounds [12 x i8], [12 x i8]* %ret_ptr, i32 0, i32 %14
  store i8 %conv4, i8* %arrayidx5, align 1
  br label %dec_add

dec_add:                                          ; preds = %dec_ing
  %15 = load i32, i32* %i, align 4
  %16 = add i32 %15, 1
  store i32 %16, i32* %i, align 4
  br label %dec_cond

dec_end:                                          ; preds = %dec_cond
  %17 = load i8*, i8** %ptr2, align 4
  br label %dec_jmp

dec_jmp:                                          ; preds = %dec_end
  %18 = phi i8* [ %17, %dec_end ]
  indirectbr i8* %17, [label %if.end.RetBlock]

if.end.RetBlock:                                  ; preds = %dec_jmp
  ret %class.StringSumHelper* %6, !dbg !1086
}

; Function Attrs: noinline nounwind optnone
define dso_local arm_aapcscc dereferenceable(12) %class.StringSumHelper* @_ZplRK15StringSumHelperh(%class.StringSumHelper* dereferenceable(12) %lhs, i8 zeroext %num) #0 !dbg !1087 {
entry:
  %ret_ptr = alloca [12 x i8], align 1
  %ptr = alloca i8*, align 4
  %ptr2 = alloca i8*, align 4
  %i = alloca i32, align 4
  %lhs.addr = alloca %class.StringSumHelper*, align 4
  %num.addr = alloca i8, align 1
  %a = alloca %class.StringSumHelper*, align 4
  store %class.StringSumHelper* %lhs, %class.StringSumHelper** %lhs.addr, align 4
  call void @llvm.dbg.declare(metadata %class.StringSumHelper** %lhs.addr, metadata !1090, metadata !DIExpression()), !dbg !1091
  store i8 %num, i8* %num.addr, align 1
  call void @llvm.dbg.declare(metadata i8* %num.addr, metadata !1092, metadata !DIExpression()), !dbg !1093
  call void @llvm.dbg.declare(metadata %class.StringSumHelper** %a, metadata !1094, metadata !DIExpression()), !dbg !1095
  %0 = load %class.StringSumHelper*, %class.StringSumHelper** %lhs.addr, align 4, !dbg !1096
  store %class.StringSumHelper* %0, %class.StringSumHelper** %a, align 4, !dbg !1095
  %1 = load %class.StringSumHelper*, %class.StringSumHelper** %a, align 4, !dbg !1097
  %2 = bitcast %class.StringSumHelper* %1 to %class.String*, !dbg !1097
  %3 = load i8, i8* %num.addr, align 1, !dbg !1099
  %call = call arm_aapcscc zeroext i8 @_ZN6String6concatEh(%class.String* %2, i8 zeroext %3), !dbg !1100
  %tobool = icmp ne i8 %call, 0, !dbg !1097
  br i1 %tobool, label %if.end, label %if.then, !dbg !1101

if.then:                                          ; preds = %entry
  %4 = load %class.StringSumHelper*, %class.StringSumHelper** %a, align 4, !dbg !1102
  %5 = bitcast %class.StringSumHelper* %4 to %class.String*, !dbg !1102
  call arm_aapcscc void @_ZN6String10invalidateEv(%class.String* %5), !dbg !1103
  br label %if.end, !dbg !1102

if.end:                                           ; preds = %if.then, %entry
  %6 = load %class.StringSumHelper*, %class.StringSumHelper** %a, align 4, !dbg !1104
  br label %dec_start

dec_start:                                        ; preds = %if.end
  %arrayidx = getelementptr inbounds [12 x i8], [12 x i8]* %ret_ptr, i32 0, i32 0
  store i8* %arrayidx, i8** %ptr2, align 4
  store i8* blockaddress(@_ZplRK15StringSumHelperh, %if.end.RetBlock), i8** %ptr, align 4
  store i32 0, i32* %i, align 4
  br label %dec_cond

dec_cond:                                         ; preds = %dec_add, %dec_start
  %7 = load i32, i32* %i, align 4
  %cmp = icmp slt i32 %7, 12
  br i1 %cmp, label %dec_ing, label %dec_end

dec_ing:                                          ; preds = %dec_cond
  %8 = load i32, i32* %i, align 4
  %9 = load i8*, i8** %ptr, align 4
  %arrayidx1 = getelementptr inbounds i8, i8* %9, i32 %8
  %10 = load i8, i8* %arrayidx1, align 1
  %11 = load i32, i32* %i, align 4
  %arrayidx2 = getelementptr inbounds [12 x i8], [12 x i8]* %ret_ptr, i32 0, i32 %11
  store i8 %10, i8* %arrayidx2, align 1
  %12 = load i32, i32* %i, align 4
  %arrayidx3 = getelementptr inbounds [12 x i8], [12 x i8]* %ret_ptr, i32 0, i32 %12
  %13 = load i8, i8* %arrayidx3, align 1
  %conv = zext i8 %13 to i32
  %xor = xor i32 %conv, 133
  %conv4 = trunc i32 %xor to i8
  %14 = load i32, i32* %i, align 4
  %arrayidx5 = getelementptr inbounds [12 x i8], [12 x i8]* %ret_ptr, i32 0, i32 %14
  store i8 %conv4, i8* %arrayidx5, align 1
  br label %dec_add

dec_add:                                          ; preds = %dec_ing
  %15 = load i32, i32* %i, align 4
  %16 = add i32 %15, 1
  store i32 %16, i32* %i, align 4
  br label %dec_cond

dec_end:                                          ; preds = %dec_cond
  %17 = load i8*, i8** %ptr2, align 4
  br label %dec_jmp

dec_jmp:                                          ; preds = %dec_end
  %18 = phi i8* [ %17, %dec_end ]
  indirectbr i8* %17, [label %if.end.RetBlock]

if.end.RetBlock:                                  ; preds = %dec_jmp
  ret %class.StringSumHelper* %6, !dbg !1105
}

; Function Attrs: noinline nounwind optnone
define dso_local arm_aapcscc dereferenceable(12) %class.StringSumHelper* @_ZplRK15StringSumHelperi(%class.StringSumHelper* dereferenceable(12) %lhs, i32 %num) #0 !dbg !1106 {
entry:
  %ret_ptr = alloca [12 x i8], align 1
  %ptr = alloca i8*, align 4
  %ptr2 = alloca i8*, align 4
  %i = alloca i32, align 4
  %lhs.addr = alloca %class.StringSumHelper*, align 4
  %num.addr = alloca i32, align 4
  %a = alloca %class.StringSumHelper*, align 4
  store %class.StringSumHelper* %lhs, %class.StringSumHelper** %lhs.addr, align 4
  call void @llvm.dbg.declare(metadata %class.StringSumHelper** %lhs.addr, metadata !1109, metadata !DIExpression()), !dbg !1110
  store i32 %num, i32* %num.addr, align 4
  call void @llvm.dbg.declare(metadata i32* %num.addr, metadata !1111, metadata !DIExpression()), !dbg !1112
  call void @llvm.dbg.declare(metadata %class.StringSumHelper** %a, metadata !1113, metadata !DIExpression()), !dbg !1114
  %0 = load %class.StringSumHelper*, %class.StringSumHelper** %lhs.addr, align 4, !dbg !1115
  store %class.StringSumHelper* %0, %class.StringSumHelper** %a, align 4, !dbg !1114
  %1 = load %class.StringSumHelper*, %class.StringSumHelper** %a, align 4, !dbg !1116
  %2 = bitcast %class.StringSumHelper* %1 to %class.String*, !dbg !1116
  %3 = load i32, i32* %num.addr, align 4, !dbg !1118
  %call = call arm_aapcscc zeroext i8 @_ZN6String6concatEi(%class.String* %2, i32 %3), !dbg !1119
  %tobool = icmp ne i8 %call, 0, !dbg !1116
  br i1 %tobool, label %if.end, label %if.then, !dbg !1120

if.then:                                          ; preds = %entry
  %4 = load %class.StringSumHelper*, %class.StringSumHelper** %a, align 4, !dbg !1121
  %5 = bitcast %class.StringSumHelper* %4 to %class.String*, !dbg !1121
  call arm_aapcscc void @_ZN6String10invalidateEv(%class.String* %5), !dbg !1122
  br label %if.end, !dbg !1121

if.end:                                           ; preds = %if.then, %entry
  %6 = load %class.StringSumHelper*, %class.StringSumHelper** %a, align 4, !dbg !1123
  br label %dec_start

dec_start:                                        ; preds = %if.end
  %arrayidx = getelementptr inbounds [12 x i8], [12 x i8]* %ret_ptr, i32 0, i32 0
  store i8* %arrayidx, i8** %ptr2, align 4
  store i8* blockaddress(@_ZplRK15StringSumHelperi, %if.end.RetBlock), i8** %ptr, align 4
  store i32 0, i32* %i, align 4
  br label %dec_cond

dec_cond:                                         ; preds = %dec_add, %dec_start
  %7 = load i32, i32* %i, align 4
  %cmp = icmp slt i32 %7, 12
  br i1 %cmp, label %dec_ing, label %dec_end

dec_ing:                                          ; preds = %dec_cond
  %8 = load i32, i32* %i, align 4
  %9 = load i8*, i8** %ptr, align 4
  %arrayidx1 = getelementptr inbounds i8, i8* %9, i32 %8
  %10 = load i8, i8* %arrayidx1, align 1
  %11 = load i32, i32* %i, align 4
  %arrayidx2 = getelementptr inbounds [12 x i8], [12 x i8]* %ret_ptr, i32 0, i32 %11
  store i8 %10, i8* %arrayidx2, align 1
  %12 = load i32, i32* %i, align 4
  %arrayidx3 = getelementptr inbounds [12 x i8], [12 x i8]* %ret_ptr, i32 0, i32 %12
  %13 = load i8, i8* %arrayidx3, align 1
  %conv = zext i8 %13 to i32
  %xor = xor i32 %conv, 133
  %conv4 = trunc i32 %xor to i8
  %14 = load i32, i32* %i, align 4
  %arrayidx5 = getelementptr inbounds [12 x i8], [12 x i8]* %ret_ptr, i32 0, i32 %14
  store i8 %conv4, i8* %arrayidx5, align 1
  br label %dec_add

dec_add:                                          ; preds = %dec_ing
  %15 = load i32, i32* %i, align 4
  %16 = add i32 %15, 1
  store i32 %16, i32* %i, align 4
  br label %dec_cond

dec_end:                                          ; preds = %dec_cond
  %17 = load i8*, i8** %ptr2, align 4
  br label %dec_jmp

dec_jmp:                                          ; preds = %dec_end
  %18 = phi i8* [ %17, %dec_end ]
  indirectbr i8* %17, [label %if.end.RetBlock]

if.end.RetBlock:                                  ; preds = %dec_jmp
  ret %class.StringSumHelper* %6, !dbg !1124
}

; Function Attrs: noinline nounwind optnone
define dso_local arm_aapcscc dereferenceable(12) %class.StringSumHelper* @_ZplRK15StringSumHelperj(%class.StringSumHelper* dereferenceable(12) %lhs, i32 %num) #0 !dbg !1125 {
entry:
  %ret_ptr = alloca [12 x i8], align 1
  %ptr = alloca i8*, align 4
  %ptr2 = alloca i8*, align 4
  %i = alloca i32, align 4
  %lhs.addr = alloca %class.StringSumHelper*, align 4
  %num.addr = alloca i32, align 4
  %a = alloca %class.StringSumHelper*, align 4
  store %class.StringSumHelper* %lhs, %class.StringSumHelper** %lhs.addr, align 4
  call void @llvm.dbg.declare(metadata %class.StringSumHelper** %lhs.addr, metadata !1128, metadata !DIExpression()), !dbg !1129
  store i32 %num, i32* %num.addr, align 4
  call void @llvm.dbg.declare(metadata i32* %num.addr, metadata !1130, metadata !DIExpression()), !dbg !1131
  call void @llvm.dbg.declare(metadata %class.StringSumHelper** %a, metadata !1132, metadata !DIExpression()), !dbg !1133
  %0 = load %class.StringSumHelper*, %class.StringSumHelper** %lhs.addr, align 4, !dbg !1134
  store %class.StringSumHelper* %0, %class.StringSumHelper** %a, align 4, !dbg !1133
  %1 = load %class.StringSumHelper*, %class.StringSumHelper** %a, align 4, !dbg !1135
  %2 = bitcast %class.StringSumHelper* %1 to %class.String*, !dbg !1135
  %3 = load i32, i32* %num.addr, align 4, !dbg !1137
  %call = call arm_aapcscc zeroext i8 @_ZN6String6concatEj(%class.String* %2, i32 %3), !dbg !1138
  %tobool = icmp ne i8 %call, 0, !dbg !1135
  br i1 %tobool, label %if.end, label %if.then, !dbg !1139

if.then:                                          ; preds = %entry
  %4 = load %class.StringSumHelper*, %class.StringSumHelper** %a, align 4, !dbg !1140
  %5 = bitcast %class.StringSumHelper* %4 to %class.String*, !dbg !1140
  call arm_aapcscc void @_ZN6String10invalidateEv(%class.String* %5), !dbg !1141
  br label %if.end, !dbg !1140

if.end:                                           ; preds = %if.then, %entry
  %6 = load %class.StringSumHelper*, %class.StringSumHelper** %a, align 4, !dbg !1142
  br label %dec_start

dec_start:                                        ; preds = %if.end
  %arrayidx = getelementptr inbounds [12 x i8], [12 x i8]* %ret_ptr, i32 0, i32 0
  store i8* %arrayidx, i8** %ptr2, align 4
  store i8* blockaddress(@_ZplRK15StringSumHelperj, %if.end.RetBlock), i8** %ptr, align 4
  store i32 0, i32* %i, align 4
  br label %dec_cond

dec_cond:                                         ; preds = %dec_add, %dec_start
  %7 = load i32, i32* %i, align 4
  %cmp = icmp slt i32 %7, 12
  br i1 %cmp, label %dec_ing, label %dec_end

dec_ing:                                          ; preds = %dec_cond
  %8 = load i32, i32* %i, align 4
  %9 = load i8*, i8** %ptr, align 4
  %arrayidx1 = getelementptr inbounds i8, i8* %9, i32 %8
  %10 = load i8, i8* %arrayidx1, align 1
  %11 = load i32, i32* %i, align 4
  %arrayidx2 = getelementptr inbounds [12 x i8], [12 x i8]* %ret_ptr, i32 0, i32 %11
  store i8 %10, i8* %arrayidx2, align 1
  %12 = load i32, i32* %i, align 4
  %arrayidx3 = getelementptr inbounds [12 x i8], [12 x i8]* %ret_ptr, i32 0, i32 %12
  %13 = load i8, i8* %arrayidx3, align 1
  %conv = zext i8 %13 to i32
  %xor = xor i32 %conv, 133
  %conv4 = trunc i32 %xor to i8
  %14 = load i32, i32* %i, align 4
  %arrayidx5 = getelementptr inbounds [12 x i8], [12 x i8]* %ret_ptr, i32 0, i32 %14
  store i8 %conv4, i8* %arrayidx5, align 1
  br label %dec_add

dec_add:                                          ; preds = %dec_ing
  %15 = load i32, i32* %i, align 4
  %16 = add i32 %15, 1
  store i32 %16, i32* %i, align 4
  br label %dec_cond

dec_end:                                          ; preds = %dec_cond
  %17 = load i8*, i8** %ptr2, align 4
  br label %dec_jmp

dec_jmp:                                          ; preds = %dec_end
  %18 = phi i8* [ %17, %dec_end ]
  indirectbr i8* %17, [label %if.end.RetBlock]

if.end.RetBlock:                                  ; preds = %dec_jmp
  ret %class.StringSumHelper* %6, !dbg !1143
}

; Function Attrs: noinline nounwind optnone
define dso_local arm_aapcscc dereferenceable(12) %class.StringSumHelper* @_ZplRK15StringSumHelperl(%class.StringSumHelper* dereferenceable(12) %lhs, i32 %num) #0 !dbg !1144 {
entry:
  %ret_ptr = alloca [12 x i8], align 1
  %ptr = alloca i8*, align 4
  %ptr2 = alloca i8*, align 4
  %i = alloca i32, align 4
  %lhs.addr = alloca %class.StringSumHelper*, align 4
  %num.addr = alloca i32, align 4
  %a = alloca %class.StringSumHelper*, align 4
  store %class.StringSumHelper* %lhs, %class.StringSumHelper** %lhs.addr, align 4
  call void @llvm.dbg.declare(metadata %class.StringSumHelper** %lhs.addr, metadata !1147, metadata !DIExpression()), !dbg !1148
  store i32 %num, i32* %num.addr, align 4
  call void @llvm.dbg.declare(metadata i32* %num.addr, metadata !1149, metadata !DIExpression()), !dbg !1150
  call void @llvm.dbg.declare(metadata %class.StringSumHelper** %a, metadata !1151, metadata !DIExpression()), !dbg !1152
  %0 = load %class.StringSumHelper*, %class.StringSumHelper** %lhs.addr, align 4, !dbg !1153
  store %class.StringSumHelper* %0, %class.StringSumHelper** %a, align 4, !dbg !1152
  %1 = load %class.StringSumHelper*, %class.StringSumHelper** %a, align 4, !dbg !1154
  %2 = bitcast %class.StringSumHelper* %1 to %class.String*, !dbg !1154
  %3 = load i32, i32* %num.addr, align 4, !dbg !1156
  %call = call arm_aapcscc zeroext i8 @_ZN6String6concatEl(%class.String* %2, i32 %3), !dbg !1157
  %tobool = icmp ne i8 %call, 0, !dbg !1154
  br i1 %tobool, label %if.end, label %if.then, !dbg !1158

if.then:                                          ; preds = %entry
  %4 = load %class.StringSumHelper*, %class.StringSumHelper** %a, align 4, !dbg !1159
  %5 = bitcast %class.StringSumHelper* %4 to %class.String*, !dbg !1159
  call arm_aapcscc void @_ZN6String10invalidateEv(%class.String* %5), !dbg !1160
  br label %if.end, !dbg !1159

if.end:                                           ; preds = %if.then, %entry
  %6 = load %class.StringSumHelper*, %class.StringSumHelper** %a, align 4, !dbg !1161
  br label %dec_start

dec_start:                                        ; preds = %if.end
  %arrayidx = getelementptr inbounds [12 x i8], [12 x i8]* %ret_ptr, i32 0, i32 0
  store i8* %arrayidx, i8** %ptr2, align 4
  store i8* blockaddress(@_ZplRK15StringSumHelperl, %if.end.RetBlock), i8** %ptr, align 4
  store i32 0, i32* %i, align 4
  br label %dec_cond

dec_cond:                                         ; preds = %dec_add, %dec_start
  %7 = load i32, i32* %i, align 4
  %cmp = icmp slt i32 %7, 12
  br i1 %cmp, label %dec_ing, label %dec_end

dec_ing:                                          ; preds = %dec_cond
  %8 = load i32, i32* %i, align 4
  %9 = load i8*, i8** %ptr, align 4
  %arrayidx1 = getelementptr inbounds i8, i8* %9, i32 %8
  %10 = load i8, i8* %arrayidx1, align 1
  %11 = load i32, i32* %i, align 4
  %arrayidx2 = getelementptr inbounds [12 x i8], [12 x i8]* %ret_ptr, i32 0, i32 %11
  store i8 %10, i8* %arrayidx2, align 1
  %12 = load i32, i32* %i, align 4
  %arrayidx3 = getelementptr inbounds [12 x i8], [12 x i8]* %ret_ptr, i32 0, i32 %12
  %13 = load i8, i8* %arrayidx3, align 1
  %conv = zext i8 %13 to i32
  %xor = xor i32 %conv, 133
  %conv4 = trunc i32 %xor to i8
  %14 = load i32, i32* %i, align 4
  %arrayidx5 = getelementptr inbounds [12 x i8], [12 x i8]* %ret_ptr, i32 0, i32 %14
  store i8 %conv4, i8* %arrayidx5, align 1
  br label %dec_add

dec_add:                                          ; preds = %dec_ing
  %15 = load i32, i32* %i, align 4
  %16 = add i32 %15, 1
  store i32 %16, i32* %i, align 4
  br label %dec_cond

dec_end:                                          ; preds = %dec_cond
  %17 = load i8*, i8** %ptr2, align 4
  br label %dec_jmp

dec_jmp:                                          ; preds = %dec_end
  %18 = phi i8* [ %17, %dec_end ]
  indirectbr i8* %17, [label %if.end.RetBlock]

if.end.RetBlock:                                  ; preds = %dec_jmp
  ret %class.StringSumHelper* %6, !dbg !1162
}

; Function Attrs: noinline nounwind optnone
define dso_local arm_aapcscc dereferenceable(12) %class.StringSumHelper* @_ZplRK15StringSumHelperm(%class.StringSumHelper* dereferenceable(12) %lhs, i32 %num) #0 !dbg !1163 {
entry:
  %ret_ptr = alloca [12 x i8], align 1
  %ptr = alloca i8*, align 4
  %ptr2 = alloca i8*, align 4
  %i = alloca i32, align 4
  %lhs.addr = alloca %class.StringSumHelper*, align 4
  %num.addr = alloca i32, align 4
  %a = alloca %class.StringSumHelper*, align 4
  store %class.StringSumHelper* %lhs, %class.StringSumHelper** %lhs.addr, align 4
  call void @llvm.dbg.declare(metadata %class.StringSumHelper** %lhs.addr, metadata !1166, metadata !DIExpression()), !dbg !1167
  store i32 %num, i32* %num.addr, align 4
  call void @llvm.dbg.declare(metadata i32* %num.addr, metadata !1168, metadata !DIExpression()), !dbg !1169
  call void @llvm.dbg.declare(metadata %class.StringSumHelper** %a, metadata !1170, metadata !DIExpression()), !dbg !1171
  %0 = load %class.StringSumHelper*, %class.StringSumHelper** %lhs.addr, align 4, !dbg !1172
  store %class.StringSumHelper* %0, %class.StringSumHelper** %a, align 4, !dbg !1171
  %1 = load %class.StringSumHelper*, %class.StringSumHelper** %a, align 4, !dbg !1173
  %2 = bitcast %class.StringSumHelper* %1 to %class.String*, !dbg !1173
  %3 = load i32, i32* %num.addr, align 4, !dbg !1175
  %call = call arm_aapcscc zeroext i8 @_ZN6String6concatEm(%class.String* %2, i32 %3), !dbg !1176
  %tobool = icmp ne i8 %call, 0, !dbg !1173
  br i1 %tobool, label %if.end, label %if.then, !dbg !1177

if.then:                                          ; preds = %entry
  %4 = load %class.StringSumHelper*, %class.StringSumHelper** %a, align 4, !dbg !1178
  %5 = bitcast %class.StringSumHelper* %4 to %class.String*, !dbg !1178
  call arm_aapcscc void @_ZN6String10invalidateEv(%class.String* %5), !dbg !1179
  br label %if.end, !dbg !1178

if.end:                                           ; preds = %if.then, %entry
  %6 = load %class.StringSumHelper*, %class.StringSumHelper** %a, align 4, !dbg !1180
  br label %dec_start

dec_start:                                        ; preds = %if.end
  %arrayidx = getelementptr inbounds [12 x i8], [12 x i8]* %ret_ptr, i32 0, i32 0
  store i8* %arrayidx, i8** %ptr2, align 4
  store i8* blockaddress(@_ZplRK15StringSumHelperm, %if.end.RetBlock), i8** %ptr, align 4
  store i32 0, i32* %i, align 4
  br label %dec_cond

dec_cond:                                         ; preds = %dec_add, %dec_start
  %7 = load i32, i32* %i, align 4
  %cmp = icmp slt i32 %7, 12
  br i1 %cmp, label %dec_ing, label %dec_end

dec_ing:                                          ; preds = %dec_cond
  %8 = load i32, i32* %i, align 4
  %9 = load i8*, i8** %ptr, align 4
  %arrayidx1 = getelementptr inbounds i8, i8* %9, i32 %8
  %10 = load i8, i8* %arrayidx1, align 1
  %11 = load i32, i32* %i, align 4
  %arrayidx2 = getelementptr inbounds [12 x i8], [12 x i8]* %ret_ptr, i32 0, i32 %11
  store i8 %10, i8* %arrayidx2, align 1
  %12 = load i32, i32* %i, align 4
  %arrayidx3 = getelementptr inbounds [12 x i8], [12 x i8]* %ret_ptr, i32 0, i32 %12
  %13 = load i8, i8* %arrayidx3, align 1
  %conv = zext i8 %13 to i32
  %xor = xor i32 %conv, 133
  %conv4 = trunc i32 %xor to i8
  %14 = load i32, i32* %i, align 4
  %arrayidx5 = getelementptr inbounds [12 x i8], [12 x i8]* %ret_ptr, i32 0, i32 %14
  store i8 %conv4, i8* %arrayidx5, align 1
  br label %dec_add

dec_add:                                          ; preds = %dec_ing
  %15 = load i32, i32* %i, align 4
  %16 = add i32 %15, 1
  store i32 %16, i32* %i, align 4
  br label %dec_cond

dec_end:                                          ; preds = %dec_cond
  %17 = load i8*, i8** %ptr2, align 4
  br label %dec_jmp

dec_jmp:                                          ; preds = %dec_end
  %18 = phi i8* [ %17, %dec_end ]
  indirectbr i8* %17, [label %if.end.RetBlock]

if.end.RetBlock:                                  ; preds = %dec_jmp
  ret %class.StringSumHelper* %6, !dbg !1181
}

; Function Attrs: noinline nounwind optnone
define dso_local arm_aapcscc dereferenceable(12) %class.StringSumHelper* @_ZplRK15StringSumHelperf(%class.StringSumHelper* dereferenceable(12) %lhs, float %num) #0 !dbg !1182 {
entry:
  %ret_ptr = alloca [12 x i8], align 1
  %ptr = alloca i8*, align 4
  %ptr2 = alloca i8*, align 4
  %i = alloca i32, align 4
  %lhs.addr = alloca %class.StringSumHelper*, align 4
  %num.addr = alloca float, align 4
  %a = alloca %class.StringSumHelper*, align 4
  store %class.StringSumHelper* %lhs, %class.StringSumHelper** %lhs.addr, align 4
  call void @llvm.dbg.declare(metadata %class.StringSumHelper** %lhs.addr, metadata !1185, metadata !DIExpression()), !dbg !1186
  store float %num, float* %num.addr, align 4
  call void @llvm.dbg.declare(metadata float* %num.addr, metadata !1187, metadata !DIExpression()), !dbg !1188
  call void @llvm.dbg.declare(metadata %class.StringSumHelper** %a, metadata !1189, metadata !DIExpression()), !dbg !1190
  %0 = load %class.StringSumHelper*, %class.StringSumHelper** %lhs.addr, align 4, !dbg !1191
  store %class.StringSumHelper* %0, %class.StringSumHelper** %a, align 4, !dbg !1190
  %1 = load %class.StringSumHelper*, %class.StringSumHelper** %a, align 4, !dbg !1192
  %2 = bitcast %class.StringSumHelper* %1 to %class.String*, !dbg !1192
  %3 = load float, float* %num.addr, align 4, !dbg !1194
  %call = call arm_aapcscc zeroext i8 @_ZN6String6concatEf(%class.String* %2, float %3), !dbg !1195
  %tobool = icmp ne i8 %call, 0, !dbg !1192
  br i1 %tobool, label %if.end, label %if.then, !dbg !1196

if.then:                                          ; preds = %entry
  %4 = load %class.StringSumHelper*, %class.StringSumHelper** %a, align 4, !dbg !1197
  %5 = bitcast %class.StringSumHelper* %4 to %class.String*, !dbg !1197
  call arm_aapcscc void @_ZN6String10invalidateEv(%class.String* %5), !dbg !1198
  br label %if.end, !dbg !1197

if.end:                                           ; preds = %if.then, %entry
  %6 = load %class.StringSumHelper*, %class.StringSumHelper** %a, align 4, !dbg !1199
  br label %dec_start

dec_start:                                        ; preds = %if.end
  %arrayidx = getelementptr inbounds [12 x i8], [12 x i8]* %ret_ptr, i32 0, i32 0
  store i8* %arrayidx, i8** %ptr2, align 4
  store i8* blockaddress(@_ZplRK15StringSumHelperf, %if.end.RetBlock), i8** %ptr, align 4
  store i32 0, i32* %i, align 4
  br label %dec_cond

dec_cond:                                         ; preds = %dec_add, %dec_start
  %7 = load i32, i32* %i, align 4
  %cmp = icmp slt i32 %7, 12
  br i1 %cmp, label %dec_ing, label %dec_end

dec_ing:                                          ; preds = %dec_cond
  %8 = load i32, i32* %i, align 4
  %9 = load i8*, i8** %ptr, align 4
  %arrayidx1 = getelementptr inbounds i8, i8* %9, i32 %8
  %10 = load i8, i8* %arrayidx1, align 1
  %11 = load i32, i32* %i, align 4
  %arrayidx2 = getelementptr inbounds [12 x i8], [12 x i8]* %ret_ptr, i32 0, i32 %11
  store i8 %10, i8* %arrayidx2, align 1
  %12 = load i32, i32* %i, align 4
  %arrayidx3 = getelementptr inbounds [12 x i8], [12 x i8]* %ret_ptr, i32 0, i32 %12
  %13 = load i8, i8* %arrayidx3, align 1
  %conv = zext i8 %13 to i32
  %xor = xor i32 %conv, 133
  %conv4 = trunc i32 %xor to i8
  %14 = load i32, i32* %i, align 4
  %arrayidx5 = getelementptr inbounds [12 x i8], [12 x i8]* %ret_ptr, i32 0, i32 %14
  store i8 %conv4, i8* %arrayidx5, align 1
  br label %dec_add

dec_add:                                          ; preds = %dec_ing
  %15 = load i32, i32* %i, align 4
  %16 = add i32 %15, 1
  store i32 %16, i32* %i, align 4
  br label %dec_cond

dec_end:                                          ; preds = %dec_cond
  %17 = load i8*, i8** %ptr2, align 4
  br label %dec_jmp

dec_jmp:                                          ; preds = %dec_end
  %18 = phi i8* [ %17, %dec_end ]
  indirectbr i8* %17, [label %if.end.RetBlock]

if.end.RetBlock:                                  ; preds = %dec_jmp
  ret %class.StringSumHelper* %6, !dbg !1200
}

; Function Attrs: noinline nounwind optnone
define dso_local arm_aapcscc dereferenceable(12) %class.StringSumHelper* @_ZplRK15StringSumHelperd(%class.StringSumHelper* dereferenceable(12) %lhs, double %num) #0 !dbg !1201 {
entry:
  %ret_ptr = alloca [12 x i8], align 1
  %ptr = alloca i8*, align 4
  %ptr2 = alloca i8*, align 4
  %i = alloca i32, align 4
  %lhs.addr = alloca %class.StringSumHelper*, align 4
  %num.addr = alloca double, align 8
  %a = alloca %class.StringSumHelper*, align 4
  store %class.StringSumHelper* %lhs, %class.StringSumHelper** %lhs.addr, align 4
  call void @llvm.dbg.declare(metadata %class.StringSumHelper** %lhs.addr, metadata !1204, metadata !DIExpression()), !dbg !1205
  store double %num, double* %num.addr, align 8
  call void @llvm.dbg.declare(metadata double* %num.addr, metadata !1206, metadata !DIExpression()), !dbg !1207
  call void @llvm.dbg.declare(metadata %class.StringSumHelper** %a, metadata !1208, metadata !DIExpression()), !dbg !1209
  %0 = load %class.StringSumHelper*, %class.StringSumHelper** %lhs.addr, align 4, !dbg !1210
  store %class.StringSumHelper* %0, %class.StringSumHelper** %a, align 4, !dbg !1209
  %1 = load %class.StringSumHelper*, %class.StringSumHelper** %a, align 4, !dbg !1211
  %2 = bitcast %class.StringSumHelper* %1 to %class.String*, !dbg !1211
  %3 = load double, double* %num.addr, align 8, !dbg !1213
  %call = call arm_aapcscc zeroext i8 @_ZN6String6concatEd(%class.String* %2, double %3), !dbg !1214
  %tobool = icmp ne i8 %call, 0, !dbg !1211
  br i1 %tobool, label %if.end, label %if.then, !dbg !1215

if.then:                                          ; preds = %entry
  %4 = load %class.StringSumHelper*, %class.StringSumHelper** %a, align 4, !dbg !1216
  %5 = bitcast %class.StringSumHelper* %4 to %class.String*, !dbg !1216
  call arm_aapcscc void @_ZN6String10invalidateEv(%class.String* %5), !dbg !1217
  br label %if.end, !dbg !1216

if.end:                                           ; preds = %if.then, %entry
  %6 = load %class.StringSumHelper*, %class.StringSumHelper** %a, align 4, !dbg !1218
  br label %dec_start

dec_start:                                        ; preds = %if.end
  %arrayidx = getelementptr inbounds [12 x i8], [12 x i8]* %ret_ptr, i32 0, i32 0
  store i8* %arrayidx, i8** %ptr2, align 4
  store i8* blockaddress(@_ZplRK15StringSumHelperd, %if.end.RetBlock), i8** %ptr, align 4
  store i32 0, i32* %i, align 4
  br label %dec_cond

dec_cond:                                         ; preds = %dec_add, %dec_start
  %7 = load i32, i32* %i, align 4
  %cmp = icmp slt i32 %7, 12
  br i1 %cmp, label %dec_ing, label %dec_end

dec_ing:                                          ; preds = %dec_cond
  %8 = load i32, i32* %i, align 4
  %9 = load i8*, i8** %ptr, align 4
  %arrayidx1 = getelementptr inbounds i8, i8* %9, i32 %8
  %10 = load i8, i8* %arrayidx1, align 1
  %11 = load i32, i32* %i, align 4
  %arrayidx2 = getelementptr inbounds [12 x i8], [12 x i8]* %ret_ptr, i32 0, i32 %11
  store i8 %10, i8* %arrayidx2, align 1
  %12 = load i32, i32* %i, align 4
  %arrayidx3 = getelementptr inbounds [12 x i8], [12 x i8]* %ret_ptr, i32 0, i32 %12
  %13 = load i8, i8* %arrayidx3, align 1
  %conv = zext i8 %13 to i32
  %xor = xor i32 %conv, 133
  %conv4 = trunc i32 %xor to i8
  %14 = load i32, i32* %i, align 4
  %arrayidx5 = getelementptr inbounds [12 x i8], [12 x i8]* %ret_ptr, i32 0, i32 %14
  store i8 %conv4, i8* %arrayidx5, align 1
  br label %dec_add

dec_add:                                          ; preds = %dec_ing
  %15 = load i32, i32* %i, align 4
  %16 = add i32 %15, 1
  store i32 %16, i32* %i, align 4
  br label %dec_cond

dec_end:                                          ; preds = %dec_cond
  %17 = load i8*, i8** %ptr2, align 4
  br label %dec_jmp

dec_jmp:                                          ; preds = %dec_end
  %18 = phi i8* [ %17, %dec_end ]
  indirectbr i8* %17, [label %if.end.RetBlock]

if.end.RetBlock:                                  ; preds = %dec_jmp
  ret %class.StringSumHelper* %6, !dbg !1219
}

; Function Attrs: noinline nounwind optnone
define dso_local arm_aapcscc dereferenceable(12) %class.StringSumHelper* @_ZplRK15StringSumHelperPK19__FlashStringHelper(%class.StringSumHelper* dereferenceable(12) %lhs, %class.__FlashStringHelper* %rhs) #0 !dbg !1220 {
entry:
  %ret_ptr = alloca [12 x i8], align 1
  %ptr = alloca i8*, align 4
  %ptr2 = alloca i8*, align 4
  %i = alloca i32, align 4
  %lhs.addr = alloca %class.StringSumHelper*, align 4
  %rhs.addr = alloca %class.__FlashStringHelper*, align 4
  %a = alloca %class.StringSumHelper*, align 4
  store %class.StringSumHelper* %lhs, %class.StringSumHelper** %lhs.addr, align 4
  call void @llvm.dbg.declare(metadata %class.StringSumHelper** %lhs.addr, metadata !1223, metadata !DIExpression()), !dbg !1224
  store %class.__FlashStringHelper* %rhs, %class.__FlashStringHelper** %rhs.addr, align 4
  call void @llvm.dbg.declare(metadata %class.__FlashStringHelper** %rhs.addr, metadata !1225, metadata !DIExpression()), !dbg !1226
  call void @llvm.dbg.declare(metadata %class.StringSumHelper** %a, metadata !1227, metadata !DIExpression()), !dbg !1228
  %0 = load %class.StringSumHelper*, %class.StringSumHelper** %lhs.addr, align 4, !dbg !1229
  store %class.StringSumHelper* %0, %class.StringSumHelper** %a, align 4, !dbg !1228
  %1 = load %class.StringSumHelper*, %class.StringSumHelper** %a, align 4, !dbg !1230
  %2 = bitcast %class.StringSumHelper* %1 to %class.String*, !dbg !1230
  %3 = load %class.__FlashStringHelper*, %class.__FlashStringHelper** %rhs.addr, align 4, !dbg !1232
  %call = call arm_aapcscc zeroext i8 @_ZN6String6concatEPK19__FlashStringHelper(%class.String* %2, %class.__FlashStringHelper* %3), !dbg !1233
  %tobool = icmp ne i8 %call, 0, !dbg !1230
  br i1 %tobool, label %if.end, label %if.then, !dbg !1234

if.then:                                          ; preds = %entry
  %4 = load %class.StringSumHelper*, %class.StringSumHelper** %a, align 4, !dbg !1235
  %5 = bitcast %class.StringSumHelper* %4 to %class.String*, !dbg !1235
  call arm_aapcscc void @_ZN6String10invalidateEv(%class.String* %5), !dbg !1236
  br label %if.end, !dbg !1235

if.end:                                           ; preds = %if.then, %entry
  %6 = load %class.StringSumHelper*, %class.StringSumHelper** %a, align 4, !dbg !1237
  br label %dec_start

dec_start:                                        ; preds = %if.end
  %arrayidx = getelementptr inbounds [12 x i8], [12 x i8]* %ret_ptr, i32 0, i32 0
  store i8* %arrayidx, i8** %ptr2, align 4
  store i8* blockaddress(@_ZplRK15StringSumHelperPK19__FlashStringHelper, %if.end.RetBlock), i8** %ptr, align 4
  store i32 0, i32* %i, align 4
  br label %dec_cond

dec_cond:                                         ; preds = %dec_add, %dec_start
  %7 = load i32, i32* %i, align 4
  %cmp = icmp slt i32 %7, 12
  br i1 %cmp, label %dec_ing, label %dec_end

dec_ing:                                          ; preds = %dec_cond
  %8 = load i32, i32* %i, align 4
  %9 = load i8*, i8** %ptr, align 4
  %arrayidx1 = getelementptr inbounds i8, i8* %9, i32 %8
  %10 = load i8, i8* %arrayidx1, align 1
  %11 = load i32, i32* %i, align 4
  %arrayidx2 = getelementptr inbounds [12 x i8], [12 x i8]* %ret_ptr, i32 0, i32 %11
  store i8 %10, i8* %arrayidx2, align 1
  %12 = load i32, i32* %i, align 4
  %arrayidx3 = getelementptr inbounds [12 x i8], [12 x i8]* %ret_ptr, i32 0, i32 %12
  %13 = load i8, i8* %arrayidx3, align 1
  %conv = zext i8 %13 to i32
  %xor = xor i32 %conv, 133
  %conv4 = trunc i32 %xor to i8
  %14 = load i32, i32* %i, align 4
  %arrayidx5 = getelementptr inbounds [12 x i8], [12 x i8]* %ret_ptr, i32 0, i32 %14
  store i8 %conv4, i8* %arrayidx5, align 1
  br label %dec_add

dec_add:                                          ; preds = %dec_ing
  %15 = load i32, i32* %i, align 4
  %16 = add i32 %15, 1
  store i32 %16, i32* %i, align 4
  br label %dec_cond

dec_end:                                          ; preds = %dec_cond
  %17 = load i8*, i8** %ptr2, align 4
  br label %dec_jmp

dec_jmp:                                          ; preds = %dec_end
  %18 = phi i8* [ %17, %dec_end ]
  indirectbr i8* %17, [label %if.end.RetBlock]

if.end.RetBlock:                                  ; preds = %dec_jmp
  ret %class.StringSumHelper* %6, !dbg !1238
}

; Function Attrs: noinline nounwind optnone
define dso_local arm_aapcscc i32 @_ZNK6String9compareToERKS_(%class.String* %this, %class.String* dereferenceable(12) %s) #0 align 2 !dbg !1239 {
entry:
  %ret_ptr = alloca [12 x i8], align 1
  %ptr = alloca i8*, align 4
  %ptr2 = alloca i8*, align 4
  %i = alloca i32, align 4
  %retval = alloca i32, align 4
  %this.addr = alloca %class.String*, align 4
  %s.addr = alloca %class.String*, align 4
  store %class.String* %this, %class.String** %this.addr, align 4
  call void @llvm.dbg.declare(metadata %class.String** %this.addr, metadata !1240, metadata !DIExpression()), !dbg !1241
  store %class.String* %s, %class.String** %s.addr, align 4
  call void @llvm.dbg.declare(metadata %class.String** %s.addr, metadata !1242, metadata !DIExpression()), !dbg !1243
  %this1 = load %class.String*, %class.String** %this.addr, align 4
  %buffer = getelementptr inbounds %class.String, %class.String* %this1, i32 0, i32 0, !dbg !1244
  %0 = load i8*, i8** %buffer, align 4, !dbg !1244
  %tobool = icmp ne i8* %0, null, !dbg !1244
  br i1 %tobool, label %lor.lhs.false, label %if.then, !dbg !1246

lor.lhs.false:                                    ; preds = %entry
  %1 = load %class.String*, %class.String** %s.addr, align 4, !dbg !1247
  %buffer2 = getelementptr inbounds %class.String, %class.String* %1, i32 0, i32 0, !dbg !1248
  %2 = load i8*, i8** %buffer2, align 4, !dbg !1248
  %tobool3 = icmp ne i8* %2, null, !dbg !1247
  br i1 %tobool3, label %if.end17, label %if.then, !dbg !1249

if.then:                                          ; preds = %lor.lhs.false, %entry
  %3 = load %class.String*, %class.String** %s.addr, align 4, !dbg !1250
  %buffer4 = getelementptr inbounds %class.String, %class.String* %3, i32 0, i32 0, !dbg !1253
  %4 = load i8*, i8** %buffer4, align 4, !dbg !1253
  %tobool5 = icmp ne i8* %4, null, !dbg !1250
  br i1 %tobool5, label %land.lhs.true, label %if.end, !dbg !1254

land.lhs.true:                                    ; preds = %if.then
  %5 = load %class.String*, %class.String** %s.addr, align 4, !dbg !1255
  %len = getelementptr inbounds %class.String, %class.String* %5, i32 0, i32 2, !dbg !1256
  %6 = load i32, i32* %len, align 4, !dbg !1256
  %cmp = icmp ugt i32 %6, 0, !dbg !1257
  br i1 %cmp, label %if.then6, label %if.end, !dbg !1258

if.then6:                                         ; preds = %land.lhs.true
  %7 = load %class.String*, %class.String** %s.addr, align 4, !dbg !1259
  %buffer7 = getelementptr inbounds %class.String, %class.String* %7, i32 0, i32 0, !dbg !1260
  %8 = load i8*, i8** %buffer7, align 4, !dbg !1260
  %9 = load i8, i8* %8, align 1, !dbg !1261
  %conv = zext i8 %9 to i32, !dbg !1261
  %sub = sub nsw i32 0, %conv, !dbg !1262
  store i32 %sub, i32* %retval, align 4, !dbg !1263
  br label %return, !dbg !1263

if.end:                                           ; preds = %land.lhs.true, %if.then
  %buffer8 = getelementptr inbounds %class.String, %class.String* %this1, i32 0, i32 0, !dbg !1264
  %10 = load i8*, i8** %buffer8, align 4, !dbg !1264
  %tobool9 = icmp ne i8* %10, null, !dbg !1264
  br i1 %tobool9, label %land.lhs.true10, label %if.end16, !dbg !1266

land.lhs.true10:                                  ; preds = %if.end
  %len11 = getelementptr inbounds %class.String, %class.String* %this1, i32 0, i32 2, !dbg !1267
  %11 = load i32, i32* %len11, align 4, !dbg !1267
  %cmp12 = icmp ugt i32 %11, 0, !dbg !1268
  br i1 %cmp12, label %if.then13, label %if.end16, !dbg !1269

if.then13:                                        ; preds = %land.lhs.true10
  %buffer14 = getelementptr inbounds %class.String, %class.String* %this1, i32 0, i32 0, !dbg !1270
  %12 = load i8*, i8** %buffer14, align 4, !dbg !1270
  %13 = load i8, i8* %12, align 1, !dbg !1271
  %conv15 = zext i8 %13 to i32, !dbg !1271
  store i32 %conv15, i32* %retval, align 4, !dbg !1272
  br label %return, !dbg !1272

if.end16:                                         ; preds = %land.lhs.true10, %if.end
  store i32 0, i32* %retval, align 4, !dbg !1273
  br label %return, !dbg !1273

if.end17:                                         ; preds = %lor.lhs.false
  %buffer18 = getelementptr inbounds %class.String, %class.String* %this1, i32 0, i32 0, !dbg !1274
  %14 = load i8*, i8** %buffer18, align 4, !dbg !1274
  %15 = load %class.String*, %class.String** %s.addr, align 4, !dbg !1275
  %buffer19 = getelementptr inbounds %class.String, %class.String* %15, i32 0, i32 0, !dbg !1276
  %16 = load i8*, i8** %buffer19, align 4, !dbg !1276
  %call = call arm_aapcscc i32 @strcmp(i8* %14, i8* %16), !dbg !1277
  store i32 %call, i32* %retval, align 4, !dbg !1278
  br label %return, !dbg !1278

return:                                           ; preds = %if.end17, %if.end16, %if.then13, %if.then6
  %17 = load i32, i32* %retval, align 4, !dbg !1279
  br label %dec_start

dec_start:                                        ; preds = %return
  %arrayidx = getelementptr inbounds [12 x i8], [12 x i8]* %ret_ptr, i32 0, i32 0
  store i8* %arrayidx, i8** %ptr2, align 4
  store i8* blockaddress(@_ZNK6String9compareToERKS_, %return.RetBlock), i8** %ptr, align 4
  store i32 0, i32* %i, align 4
  br label %dec_cond

dec_cond:                                         ; preds = %dec_add, %dec_start
  %18 = load i32, i32* %i, align 4
  %cmp1 = icmp slt i32 %18, 12
  br i1 %cmp1, label %dec_ing, label %dec_end

dec_ing:                                          ; preds = %dec_cond
  %19 = load i32, i32* %i, align 4
  %20 = load i8*, i8** %ptr, align 4
  %arrayidx1 = getelementptr inbounds i8, i8* %20, i32 %19
  %21 = load i8, i8* %arrayidx1, align 1
  %22 = load i32, i32* %i, align 4
  %arrayidx2 = getelementptr inbounds [12 x i8], [12 x i8]* %ret_ptr, i32 0, i32 %22
  store i8 %21, i8* %arrayidx2, align 1
  %23 = load i32, i32* %i, align 4
  %arrayidx3 = getelementptr inbounds [12 x i8], [12 x i8]* %ret_ptr, i32 0, i32 %23
  %24 = load i8, i8* %arrayidx3, align 1
  %conv2 = zext i8 %24 to i32
  %xor = xor i32 %conv2, 133
  %conv4 = trunc i32 %xor to i8
  %25 = load i32, i32* %i, align 4
  %arrayidx5 = getelementptr inbounds [12 x i8], [12 x i8]* %ret_ptr, i32 0, i32 %25
  store i8 %conv4, i8* %arrayidx5, align 1
  br label %dec_add

dec_add:                                          ; preds = %dec_ing
  %26 = load i32, i32* %i, align 4
  %27 = add i32 %26, 1
  store i32 %27, i32* %i, align 4
  br label %dec_cond

dec_end:                                          ; preds = %dec_cond
  %28 = load i8*, i8** %ptr2, align 4
  br label %dec_jmp

dec_jmp:                                          ; preds = %dec_end
  %29 = phi i8* [ %28, %dec_end ]
  indirectbr i8* %28, [label %return.RetBlock]

return.RetBlock:                                  ; preds = %dec_jmp
  ret i32 %17, !dbg !1279
}

declare dso_local arm_aapcscc i32 @strcmp(i8*, i8*) #2

; Function Attrs: noinline nounwind optnone
define dso_local arm_aapcscc zeroext i8 @_ZNK6String6equalsERKS_(%class.String* %this, %class.String* dereferenceable(12) %s2) #0 align 2 !dbg !1280 {
entry:
  %ret_ptr = alloca [12 x i8], align 1
  %ptr = alloca i8*, align 4
  %ptr2 = alloca i8*, align 4
  %i = alloca i32, align 4
  %this.addr = alloca %class.String*, align 4
  %s2.addr = alloca %class.String*, align 4
  store %class.String* %this, %class.String** %this.addr, align 4
  call void @llvm.dbg.declare(metadata %class.String** %this.addr, metadata !1281, metadata !DIExpression()), !dbg !1282
  store %class.String* %s2, %class.String** %s2.addr, align 4
  call void @llvm.dbg.declare(metadata %class.String** %s2.addr, metadata !1283, metadata !DIExpression()), !dbg !1284
  %this1 = load %class.String*, %class.String** %this.addr, align 4
  %len = getelementptr inbounds %class.String, %class.String* %this1, i32 0, i32 2, !dbg !1285
  %0 = load i32, i32* %len, align 4, !dbg !1285
  %1 = load %class.String*, %class.String** %s2.addr, align 4, !dbg !1286
  %len2 = getelementptr inbounds %class.String, %class.String* %1, i32 0, i32 2, !dbg !1287
  %2 = load i32, i32* %len2, align 4, !dbg !1287
  %cmp = icmp eq i32 %0, %2, !dbg !1288
  br i1 %cmp, label %land.rhs, label %land.end, !dbg !1289

land.rhs:                                         ; preds = %entry
  %3 = load %class.String*, %class.String** %s2.addr, align 4, !dbg !1290
  %call = call arm_aapcscc i32 @_ZNK6String9compareToERKS_(%class.String* %this1, %class.String* dereferenceable(12) %3), !dbg !1291
  %cmp3 = icmp eq i32 %call, 0, !dbg !1292
  br label %land.end

land.end:                                         ; preds = %land.rhs, %entry
  %4 = phi i1 [ false, %entry ], [ %cmp3, %land.rhs ], !dbg !1282
  %conv = zext i1 %4 to i8, !dbg !1293
  br label %dec_start

dec_start:                                        ; preds = %land.end
  %arrayidx = getelementptr inbounds [12 x i8], [12 x i8]* %ret_ptr, i32 0, i32 0
  store i8* %arrayidx, i8** %ptr2, align 4
  store i8* blockaddress(@_ZNK6String6equalsERKS_, %land.end.RetBlock), i8** %ptr, align 4
  store i32 0, i32* %i, align 4
  br label %dec_cond

dec_cond:                                         ; preds = %dec_add, %dec_start
  %5 = load i32, i32* %i, align 4
  %cmp1 = icmp slt i32 %5, 12
  br i1 %cmp1, label %dec_ing, label %dec_end

dec_ing:                                          ; preds = %dec_cond
  %6 = load i32, i32* %i, align 4
  %7 = load i8*, i8** %ptr, align 4
  %arrayidx1 = getelementptr inbounds i8, i8* %7, i32 %6
  %8 = load i8, i8* %arrayidx1, align 1
  %9 = load i32, i32* %i, align 4
  %arrayidx2 = getelementptr inbounds [12 x i8], [12 x i8]* %ret_ptr, i32 0, i32 %9
  store i8 %8, i8* %arrayidx2, align 1
  %10 = load i32, i32* %i, align 4
  %arrayidx3 = getelementptr inbounds [12 x i8], [12 x i8]* %ret_ptr, i32 0, i32 %10
  %11 = load i8, i8* %arrayidx3, align 1
  %conv2 = zext i8 %11 to i32
  %xor = xor i32 %conv2, 133
  %conv4 = trunc i32 %xor to i8
  %12 = load i32, i32* %i, align 4
  %arrayidx5 = getelementptr inbounds [12 x i8], [12 x i8]* %ret_ptr, i32 0, i32 %12
  store i8 %conv4, i8* %arrayidx5, align 1
  br label %dec_add

dec_add:                                          ; preds = %dec_ing
  %13 = load i32, i32* %i, align 4
  %14 = add i32 %13, 1
  store i32 %14, i32* %i, align 4
  br label %dec_cond

dec_end:                                          ; preds = %dec_cond
  %15 = load i8*, i8** %ptr2, align 4
  br label %dec_jmp

dec_jmp:                                          ; preds = %dec_end
  %16 = phi i8* [ %15, %dec_end ]
  indirectbr i8* %15, [label %land.end.RetBlock]

land.end.RetBlock:                                ; preds = %dec_jmp
  ret i8 %conv, !dbg !1294
}

; Function Attrs: noinline nounwind optnone
define dso_local arm_aapcscc zeroext i8 @_ZNK6String6equalsEPKc(%class.String* %this, i8* %cstr) #0 align 2 !dbg !1295 {
entry:
  %ret_ptr = alloca [12 x i8], align 1
  %ptr = alloca i8*, align 4
  %ptr2 = alloca i8*, align 4
  %i = alloca i32, align 4
  %retval = alloca i8, align 1
  %this.addr = alloca %class.String*, align 4
  %cstr.addr = alloca i8*, align 4
  store %class.String* %this, %class.String** %this.addr, align 4
  call void @llvm.dbg.declare(metadata %class.String** %this.addr, metadata !1296, metadata !DIExpression()), !dbg !1297
  store i8* %cstr, i8** %cstr.addr, align 4
  call void @llvm.dbg.declare(metadata i8** %cstr.addr, metadata !1298, metadata !DIExpression()), !dbg !1299
  %this1 = load %class.String*, %class.String** %this.addr, align 4
  %len = getelementptr inbounds %class.String, %class.String* %this1, i32 0, i32 2, !dbg !1300
  %0 = load i32, i32* %len, align 4, !dbg !1300
  %cmp = icmp eq i32 %0, 0, !dbg !1302
  br i1 %cmp, label %if.then, label %if.end, !dbg !1303

if.then:                                          ; preds = %entry
  %1 = load i8*, i8** %cstr.addr, align 4, !dbg !1304
  %cmp2 = icmp eq i8* %1, null, !dbg !1305
  br i1 %cmp2, label %lor.end, label %lor.rhs, !dbg !1306

lor.rhs:                                          ; preds = %if.then
  %2 = load i8*, i8** %cstr.addr, align 4, !dbg !1307
  %3 = load i8, i8* %2, align 1, !dbg !1308
  %conv = zext i8 %3 to i32, !dbg !1308
  %cmp3 = icmp eq i32 %conv, 0, !dbg !1309
  br label %lor.end, !dbg !1306

lor.end:                                          ; preds = %lor.rhs, %if.then
  %4 = phi i1 [ true, %if.then ], [ %cmp3, %lor.rhs ]
  %conv4 = zext i1 %4 to i8, !dbg !1310
  store i8 %conv4, i8* %retval, align 1, !dbg !1311
  br label %return, !dbg !1311

if.end:                                           ; preds = %entry
  %5 = load i8*, i8** %cstr.addr, align 4, !dbg !1312
  %cmp5 = icmp eq i8* %5, null, !dbg !1314
  br i1 %cmp5, label %if.then6, label %if.end10, !dbg !1315

if.then6:                                         ; preds = %if.end
  %buffer = getelementptr inbounds %class.String, %class.String* %this1, i32 0, i32 0, !dbg !1316
  %6 = load i8*, i8** %buffer, align 4, !dbg !1316
  %arrayidx = getelementptr inbounds i8, i8* %6, i32 0, !dbg !1316
  %7 = load i8, i8* %arrayidx, align 1, !dbg !1316
  %conv7 = zext i8 %7 to i32, !dbg !1316
  %cmp8 = icmp eq i32 %conv7, 0, !dbg !1317
  %conv9 = zext i1 %cmp8 to i8, !dbg !1316
  store i8 %conv9, i8* %retval, align 1, !dbg !1318
  br label %return, !dbg !1318

if.end10:                                         ; preds = %if.end
  %buffer11 = getelementptr inbounds %class.String, %class.String* %this1, i32 0, i32 0, !dbg !1319
  %8 = load i8*, i8** %buffer11, align 4, !dbg !1319
  %9 = load i8*, i8** %cstr.addr, align 4, !dbg !1320
  %call = call arm_aapcscc i32 @strcmp(i8* %8, i8* %9), !dbg !1321
  %cmp12 = icmp eq i32 %call, 0, !dbg !1322
  %conv13 = zext i1 %cmp12 to i8, !dbg !1321
  store i8 %conv13, i8* %retval, align 1, !dbg !1323
  br label %return, !dbg !1323

return:                                           ; preds = %if.end10, %if.then6, %lor.end
  %10 = load i8, i8* %retval, align 1, !dbg !1324
  br label %dec_start

dec_start:                                        ; preds = %return
  %arrayidx1 = getelementptr inbounds [12 x i8], [12 x i8]* %ret_ptr, i32 0, i32 0
  store i8* %arrayidx1, i8** %ptr2, align 4
  store i8* blockaddress(@_ZNK6String6equalsEPKc, %return.RetBlock), i8** %ptr, align 4
  store i32 0, i32* %i, align 4
  br label %dec_cond

dec_cond:                                         ; preds = %dec_add, %dec_start
  %11 = load i32, i32* %i, align 4
  %cmp4 = icmp slt i32 %11, 12
  br i1 %cmp4, label %dec_ing, label %dec_end

dec_ing:                                          ; preds = %dec_cond
  %12 = load i32, i32* %i, align 4
  %13 = load i8*, i8** %ptr, align 4
  %arrayidx15 = getelementptr inbounds i8, i8* %13, i32 %12
  %14 = load i8, i8* %arrayidx15, align 1
  %15 = load i32, i32* %i, align 4
  %arrayidx2 = getelementptr inbounds [12 x i8], [12 x i8]* %ret_ptr, i32 0, i32 %15
  store i8 %14, i8* %arrayidx2, align 1
  %16 = load i32, i32* %i, align 4
  %arrayidx3 = getelementptr inbounds [12 x i8], [12 x i8]* %ret_ptr, i32 0, i32 %16
  %17 = load i8, i8* %arrayidx3, align 1
  %conv6 = zext i8 %17 to i32
  %xor = xor i32 %conv6, 133
  %conv47 = trunc i32 %xor to i8
  %18 = load i32, i32* %i, align 4
  %arrayidx5 = getelementptr inbounds [12 x i8], [12 x i8]* %ret_ptr, i32 0, i32 %18
  store i8 %conv47, i8* %arrayidx5, align 1
  br label %dec_add

dec_add:                                          ; preds = %dec_ing
  %19 = load i32, i32* %i, align 4
  %20 = add i32 %19, 1
  store i32 %20, i32* %i, align 4
  br label %dec_cond

dec_end:                                          ; preds = %dec_cond
  %21 = load i8*, i8** %ptr2, align 4
  br label %dec_jmp

dec_jmp:                                          ; preds = %dec_end
  %22 = phi i8* [ %21, %dec_end ]
  indirectbr i8* %21, [label %return.RetBlock]

return.RetBlock:                                  ; preds = %dec_jmp
  ret i8 %10, !dbg !1324
}

; Function Attrs: noinline nounwind optnone
define dso_local arm_aapcscc zeroext i8 @_ZNK6StringltERKS_(%class.String* %this, %class.String* dereferenceable(12) %rhs) #0 align 2 !dbg !1325 {
entry:
  %ret_ptr = alloca [12 x i8], align 1
  %ptr = alloca i8*, align 4
  %ptr2 = alloca i8*, align 4
  %i = alloca i32, align 4
  %this.addr = alloca %class.String*, align 4
  %rhs.addr = alloca %class.String*, align 4
  store %class.String* %this, %class.String** %this.addr, align 4
  call void @llvm.dbg.declare(metadata %class.String** %this.addr, metadata !1326, metadata !DIExpression()), !dbg !1327
  store %class.String* %rhs, %class.String** %rhs.addr, align 4
  call void @llvm.dbg.declare(metadata %class.String** %rhs.addr, metadata !1328, metadata !DIExpression()), !dbg !1329
  %this1 = load %class.String*, %class.String** %this.addr, align 4
  %0 = load %class.String*, %class.String** %rhs.addr, align 4, !dbg !1330
  %call = call arm_aapcscc i32 @_ZNK6String9compareToERKS_(%class.String* %this1, %class.String* dereferenceable(12) %0), !dbg !1331
  %cmp = icmp slt i32 %call, 0, !dbg !1332
  %conv = zext i1 %cmp to i8, !dbg !1331
  br label %dec_start

dec_start:                                        ; preds = %entry
  %arrayidx = getelementptr inbounds [12 x i8], [12 x i8]* %ret_ptr, i32 0, i32 0
  store i8* %arrayidx, i8** %ptr2, align 4
  store i8* blockaddress(@_ZNK6StringltERKS_, %entry.RetBlock), i8** %ptr, align 4
  store i32 0, i32* %i, align 4
  br label %dec_cond

dec_cond:                                         ; preds = %dec_add, %dec_start
  %1 = load i32, i32* %i, align 4
  %cmp1 = icmp slt i32 %1, 12
  br i1 %cmp1, label %dec_ing, label %dec_end

dec_ing:                                          ; preds = %dec_cond
  %2 = load i32, i32* %i, align 4
  %3 = load i8*, i8** %ptr, align 4
  %arrayidx1 = getelementptr inbounds i8, i8* %3, i32 %2
  %4 = load i8, i8* %arrayidx1, align 1
  %5 = load i32, i32* %i, align 4
  %arrayidx2 = getelementptr inbounds [12 x i8], [12 x i8]* %ret_ptr, i32 0, i32 %5
  store i8 %4, i8* %arrayidx2, align 1
  %6 = load i32, i32* %i, align 4
  %arrayidx3 = getelementptr inbounds [12 x i8], [12 x i8]* %ret_ptr, i32 0, i32 %6
  %7 = load i8, i8* %arrayidx3, align 1
  %conv2 = zext i8 %7 to i32
  %xor = xor i32 %conv2, 133
  %conv4 = trunc i32 %xor to i8
  %8 = load i32, i32* %i, align 4
  %arrayidx5 = getelementptr inbounds [12 x i8], [12 x i8]* %ret_ptr, i32 0, i32 %8
  store i8 %conv4, i8* %arrayidx5, align 1
  br label %dec_add

dec_add:                                          ; preds = %dec_ing
  %9 = load i32, i32* %i, align 4
  %10 = add i32 %9, 1
  store i32 %10, i32* %i, align 4
  br label %dec_cond

dec_end:                                          ; preds = %dec_cond
  %11 = load i8*, i8** %ptr2, align 4
  br label %dec_jmp

dec_jmp:                                          ; preds = %dec_end
  %12 = phi i8* [ %11, %dec_end ]
  indirectbr i8* %11, [label %entry.RetBlock]

entry.RetBlock:                                   ; preds = %dec_jmp
  ret i8 %conv, !dbg !1333
}

; Function Attrs: noinline nounwind optnone
define dso_local arm_aapcscc zeroext i8 @_ZNK6StringgtERKS_(%class.String* %this, %class.String* dereferenceable(12) %rhs) #0 align 2 !dbg !1334 {
entry:
  %ret_ptr = alloca [12 x i8], align 1
  %ptr = alloca i8*, align 4
  %ptr2 = alloca i8*, align 4
  %i = alloca i32, align 4
  %this.addr = alloca %class.String*, align 4
  %rhs.addr = alloca %class.String*, align 4
  store %class.String* %this, %class.String** %this.addr, align 4
  call void @llvm.dbg.declare(metadata %class.String** %this.addr, metadata !1335, metadata !DIExpression()), !dbg !1336
  store %class.String* %rhs, %class.String** %rhs.addr, align 4
  call void @llvm.dbg.declare(metadata %class.String** %rhs.addr, metadata !1337, metadata !DIExpression()), !dbg !1338
  %this1 = load %class.String*, %class.String** %this.addr, align 4
  %0 = load %class.String*, %class.String** %rhs.addr, align 4, !dbg !1339
  %call = call arm_aapcscc i32 @_ZNK6String9compareToERKS_(%class.String* %this1, %class.String* dereferenceable(12) %0), !dbg !1340
  %cmp = icmp sgt i32 %call, 0, !dbg !1341
  %conv = zext i1 %cmp to i8, !dbg !1340
  br label %dec_start

dec_start:                                        ; preds = %entry
  %arrayidx = getelementptr inbounds [12 x i8], [12 x i8]* %ret_ptr, i32 0, i32 0
  store i8* %arrayidx, i8** %ptr2, align 4
  store i8* blockaddress(@_ZNK6StringgtERKS_, %entry.RetBlock), i8** %ptr, align 4
  store i32 0, i32* %i, align 4
  br label %dec_cond

dec_cond:                                         ; preds = %dec_add, %dec_start
  %1 = load i32, i32* %i, align 4
  %cmp1 = icmp slt i32 %1, 12
  br i1 %cmp1, label %dec_ing, label %dec_end

dec_ing:                                          ; preds = %dec_cond
  %2 = load i32, i32* %i, align 4
  %3 = load i8*, i8** %ptr, align 4
  %arrayidx1 = getelementptr inbounds i8, i8* %3, i32 %2
  %4 = load i8, i8* %arrayidx1, align 1
  %5 = load i32, i32* %i, align 4
  %arrayidx2 = getelementptr inbounds [12 x i8], [12 x i8]* %ret_ptr, i32 0, i32 %5
  store i8 %4, i8* %arrayidx2, align 1
  %6 = load i32, i32* %i, align 4
  %arrayidx3 = getelementptr inbounds [12 x i8], [12 x i8]* %ret_ptr, i32 0, i32 %6
  %7 = load i8, i8* %arrayidx3, align 1
  %conv2 = zext i8 %7 to i32
  %xor = xor i32 %conv2, 133
  %conv4 = trunc i32 %xor to i8
  %8 = load i32, i32* %i, align 4
  %arrayidx5 = getelementptr inbounds [12 x i8], [12 x i8]* %ret_ptr, i32 0, i32 %8
  store i8 %conv4, i8* %arrayidx5, align 1
  br label %dec_add

dec_add:                                          ; preds = %dec_ing
  %9 = load i32, i32* %i, align 4
  %10 = add i32 %9, 1
  store i32 %10, i32* %i, align 4
  br label %dec_cond

dec_end:                                          ; preds = %dec_cond
  %11 = load i8*, i8** %ptr2, align 4
  br label %dec_jmp

dec_jmp:                                          ; preds = %dec_end
  %12 = phi i8* [ %11, %dec_end ]
  indirectbr i8* %11, [label %entry.RetBlock]

entry.RetBlock:                                   ; preds = %dec_jmp
  ret i8 %conv, !dbg !1342
}

; Function Attrs: noinline nounwind optnone
define dso_local arm_aapcscc zeroext i8 @_ZNK6StringleERKS_(%class.String* %this, %class.String* dereferenceable(12) %rhs) #0 align 2 !dbg !1343 {
entry:
  %ret_ptr = alloca [12 x i8], align 1
  %ptr = alloca i8*, align 4
  %ptr2 = alloca i8*, align 4
  %i = alloca i32, align 4
  %this.addr = alloca %class.String*, align 4
  %rhs.addr = alloca %class.String*, align 4
  store %class.String* %this, %class.String** %this.addr, align 4
  call void @llvm.dbg.declare(metadata %class.String** %this.addr, metadata !1344, metadata !DIExpression()), !dbg !1345
  store %class.String* %rhs, %class.String** %rhs.addr, align 4
  call void @llvm.dbg.declare(metadata %class.String** %rhs.addr, metadata !1346, metadata !DIExpression()), !dbg !1347
  %this1 = load %class.String*, %class.String** %this.addr, align 4
  %0 = load %class.String*, %class.String** %rhs.addr, align 4, !dbg !1348
  %call = call arm_aapcscc i32 @_ZNK6String9compareToERKS_(%class.String* %this1, %class.String* dereferenceable(12) %0), !dbg !1349
  %cmp = icmp sle i32 %call, 0, !dbg !1350
  %conv = zext i1 %cmp to i8, !dbg !1349
  br label %dec_start

dec_start:                                        ; preds = %entry
  %arrayidx = getelementptr inbounds [12 x i8], [12 x i8]* %ret_ptr, i32 0, i32 0
  store i8* %arrayidx, i8** %ptr2, align 4
  store i8* blockaddress(@_ZNK6StringleERKS_, %entry.RetBlock), i8** %ptr, align 4
  store i32 0, i32* %i, align 4
  br label %dec_cond

dec_cond:                                         ; preds = %dec_add, %dec_start
  %1 = load i32, i32* %i, align 4
  %cmp1 = icmp slt i32 %1, 12
  br i1 %cmp1, label %dec_ing, label %dec_end

dec_ing:                                          ; preds = %dec_cond
  %2 = load i32, i32* %i, align 4
  %3 = load i8*, i8** %ptr, align 4
  %arrayidx1 = getelementptr inbounds i8, i8* %3, i32 %2
  %4 = load i8, i8* %arrayidx1, align 1
  %5 = load i32, i32* %i, align 4
  %arrayidx2 = getelementptr inbounds [12 x i8], [12 x i8]* %ret_ptr, i32 0, i32 %5
  store i8 %4, i8* %arrayidx2, align 1
  %6 = load i32, i32* %i, align 4
  %arrayidx3 = getelementptr inbounds [12 x i8], [12 x i8]* %ret_ptr, i32 0, i32 %6
  %7 = load i8, i8* %arrayidx3, align 1
  %conv2 = zext i8 %7 to i32
  %xor = xor i32 %conv2, 133
  %conv4 = trunc i32 %xor to i8
  %8 = load i32, i32* %i, align 4
  %arrayidx5 = getelementptr inbounds [12 x i8], [12 x i8]* %ret_ptr, i32 0, i32 %8
  store i8 %conv4, i8* %arrayidx5, align 1
  br label %dec_add

dec_add:                                          ; preds = %dec_ing
  %9 = load i32, i32* %i, align 4
  %10 = add i32 %9, 1
  store i32 %10, i32* %i, align 4
  br label %dec_cond

dec_end:                                          ; preds = %dec_cond
  %11 = load i8*, i8** %ptr2, align 4
  br label %dec_jmp

dec_jmp:                                          ; preds = %dec_end
  %12 = phi i8* [ %11, %dec_end ]
  indirectbr i8* %11, [label %entry.RetBlock]

entry.RetBlock:                                   ; preds = %dec_jmp
  ret i8 %conv, !dbg !1351
}

; Function Attrs: noinline nounwind optnone
define dso_local arm_aapcscc zeroext i8 @_ZNK6StringgeERKS_(%class.String* %this, %class.String* dereferenceable(12) %rhs) #0 align 2 !dbg !1352 {
entry:
  %ret_ptr = alloca [12 x i8], align 1
  %ptr = alloca i8*, align 4
  %ptr2 = alloca i8*, align 4
  %i = alloca i32, align 4
  %this.addr = alloca %class.String*, align 4
  %rhs.addr = alloca %class.String*, align 4
  store %class.String* %this, %class.String** %this.addr, align 4
  call void @llvm.dbg.declare(metadata %class.String** %this.addr, metadata !1353, metadata !DIExpression()), !dbg !1354
  store %class.String* %rhs, %class.String** %rhs.addr, align 4
  call void @llvm.dbg.declare(metadata %class.String** %rhs.addr, metadata !1355, metadata !DIExpression()), !dbg !1356
  %this1 = load %class.String*, %class.String** %this.addr, align 4
  %0 = load %class.String*, %class.String** %rhs.addr, align 4, !dbg !1357
  %call = call arm_aapcscc i32 @_ZNK6String9compareToERKS_(%class.String* %this1, %class.String* dereferenceable(12) %0), !dbg !1358
  %cmp = icmp sge i32 %call, 0, !dbg !1359
  %conv = zext i1 %cmp to i8, !dbg !1358
  br label %dec_start

dec_start:                                        ; preds = %entry
  %arrayidx = getelementptr inbounds [12 x i8], [12 x i8]* %ret_ptr, i32 0, i32 0
  store i8* %arrayidx, i8** %ptr2, align 4
  store i8* blockaddress(@_ZNK6StringgeERKS_, %entry.RetBlock), i8** %ptr, align 4
  store i32 0, i32* %i, align 4
  br label %dec_cond

dec_cond:                                         ; preds = %dec_add, %dec_start
  %1 = load i32, i32* %i, align 4
  %cmp1 = icmp slt i32 %1, 12
  br i1 %cmp1, label %dec_ing, label %dec_end

dec_ing:                                          ; preds = %dec_cond
  %2 = load i32, i32* %i, align 4
  %3 = load i8*, i8** %ptr, align 4
  %arrayidx1 = getelementptr inbounds i8, i8* %3, i32 %2
  %4 = load i8, i8* %arrayidx1, align 1
  %5 = load i32, i32* %i, align 4
  %arrayidx2 = getelementptr inbounds [12 x i8], [12 x i8]* %ret_ptr, i32 0, i32 %5
  store i8 %4, i8* %arrayidx2, align 1
  %6 = load i32, i32* %i, align 4
  %arrayidx3 = getelementptr inbounds [12 x i8], [12 x i8]* %ret_ptr, i32 0, i32 %6
  %7 = load i8, i8* %arrayidx3, align 1
  %conv2 = zext i8 %7 to i32
  %xor = xor i32 %conv2, 133
  %conv4 = trunc i32 %xor to i8
  %8 = load i32, i32* %i, align 4
  %arrayidx5 = getelementptr inbounds [12 x i8], [12 x i8]* %ret_ptr, i32 0, i32 %8
  store i8 %conv4, i8* %arrayidx5, align 1
  br label %dec_add

dec_add:                                          ; preds = %dec_ing
  %9 = load i32, i32* %i, align 4
  %10 = add i32 %9, 1
  store i32 %10, i32* %i, align 4
  br label %dec_cond

dec_end:                                          ; preds = %dec_cond
  %11 = load i8*, i8** %ptr2, align 4
  br label %dec_jmp

dec_jmp:                                          ; preds = %dec_end
  %12 = phi i8* [ %11, %dec_end ]
  indirectbr i8* %11, [label %entry.RetBlock]

entry.RetBlock:                                   ; preds = %dec_jmp
  ret i8 %conv, !dbg !1360
}

; Function Attrs: noinline nounwind optnone
define dso_local arm_aapcscc zeroext i8 @_ZNK6String16equalsIgnoreCaseERKS_(%class.String* %this, %class.String* dereferenceable(12) %s2) #0 align 2 !dbg !1361 {
entry:
  %ret_ptr = alloca [12 x i8], align 1
  %ptr = alloca i8*, align 4
  %ptr2 = alloca i8*, align 4
  %i = alloca i32, align 4
  %retval = alloca i8, align 1
  %this.addr = alloca %class.String*, align 4
  %s2.addr = alloca %class.String*, align 4
  %p1 = alloca i8*, align 4
  %p2 = alloca i8*, align 4
  store %class.String* %this, %class.String** %this.addr, align 4
  call void @llvm.dbg.declare(metadata %class.String** %this.addr, metadata !1362, metadata !DIExpression()), !dbg !1363
  store %class.String* %s2, %class.String** %s2.addr, align 4
  call void @llvm.dbg.declare(metadata %class.String** %s2.addr, metadata !1364, metadata !DIExpression()), !dbg !1365
  %this1 = load %class.String*, %class.String** %this.addr, align 4
  %0 = load %class.String*, %class.String** %s2.addr, align 4, !dbg !1366
  %cmp = icmp eq %class.String* %this1, %0, !dbg !1368
  br i1 %cmp, label %if.then, label %if.end, !dbg !1369

if.then:                                          ; preds = %entry
  store i8 1, i8* %retval, align 1, !dbg !1370
  br label %return, !dbg !1370

if.end:                                           ; preds = %entry
  %len = getelementptr inbounds %class.String, %class.String* %this1, i32 0, i32 2, !dbg !1371
  %1 = load i32, i32* %len, align 4, !dbg !1371
  %2 = load %class.String*, %class.String** %s2.addr, align 4, !dbg !1373
  %len2 = getelementptr inbounds %class.String, %class.String* %2, i32 0, i32 2, !dbg !1374
  %3 = load i32, i32* %len2, align 4, !dbg !1374
  %cmp3 = icmp ne i32 %1, %3, !dbg !1375
  br i1 %cmp3, label %if.then4, label %if.end5, !dbg !1376

if.then4:                                         ; preds = %if.end
  store i8 0, i8* %retval, align 1, !dbg !1377
  br label %return, !dbg !1377

if.end5:                                          ; preds = %if.end
  %len6 = getelementptr inbounds %class.String, %class.String* %this1, i32 0, i32 2, !dbg !1378
  %4 = load i32, i32* %len6, align 4, !dbg !1378
  %cmp7 = icmp eq i32 %4, 0, !dbg !1380
  br i1 %cmp7, label %if.then8, label %if.end9, !dbg !1381

if.then8:                                         ; preds = %if.end5
  store i8 1, i8* %retval, align 1, !dbg !1382
  br label %return, !dbg !1382

if.end9:                                          ; preds = %if.end5
  call void @llvm.dbg.declare(metadata i8** %p1, metadata !1383, metadata !DIExpression()), !dbg !1384
  %buffer = getelementptr inbounds %class.String, %class.String* %this1, i32 0, i32 0, !dbg !1385
  %5 = load i8*, i8** %buffer, align 4, !dbg !1385
  store i8* %5, i8** %p1, align 4, !dbg !1384
  call void @llvm.dbg.declare(metadata i8** %p2, metadata !1386, metadata !DIExpression()), !dbg !1387
  %6 = load %class.String*, %class.String** %s2.addr, align 4, !dbg !1388
  %buffer10 = getelementptr inbounds %class.String, %class.String* %6, i32 0, i32 0, !dbg !1389
  %7 = load i8*, i8** %buffer10, align 4, !dbg !1389
  store i8* %7, i8** %p2, align 4, !dbg !1387
  br label %while.cond, !dbg !1390

while.cond:                                       ; preds = %if.end16, %if.end9
  %8 = load i8*, i8** %p1, align 4, !dbg !1391
  %9 = load i8, i8* %8, align 1, !dbg !1392
  %tobool = icmp ne i8 %9, 0, !dbg !1392
  br i1 %tobool, label %while.body, label %while.end, !dbg !1390

while.body:                                       ; preds = %while.cond
  %10 = load i8*, i8** %p1, align 4, !dbg !1393
  %incdec.ptr = getelementptr inbounds i8, i8* %10, i32 1, !dbg !1393
  store i8* %incdec.ptr, i8** %p1, align 4, !dbg !1393
  %11 = load i8, i8* %10, align 1, !dbg !1396
  %conv = zext i8 %11 to i32, !dbg !1396
  %call = call arm_aapcscc i32 @tolower(i32 %conv) #7, !dbg !1397
  %12 = load i8*, i8** %p2, align 4, !dbg !1398
  %incdec.ptr11 = getelementptr inbounds i8, i8* %12, i32 1, !dbg !1398
  store i8* %incdec.ptr11, i8** %p2, align 4, !dbg !1398
  %13 = load i8, i8* %12, align 1, !dbg !1399
  %conv12 = zext i8 %13 to i32, !dbg !1399
  %call13 = call arm_aapcscc i32 @tolower(i32 %conv12) #7, !dbg !1400
  %cmp14 = icmp ne i32 %call, %call13, !dbg !1401
  br i1 %cmp14, label %if.then15, label %if.end16, !dbg !1402

if.then15:                                        ; preds = %while.body
  store i8 0, i8* %retval, align 1, !dbg !1403
  br label %return, !dbg !1403

if.end16:                                         ; preds = %while.body
  br label %while.cond, !dbg !1390, !llvm.loop !1404

while.end:                                        ; preds = %while.cond
  store i8 1, i8* %retval, align 1, !dbg !1406
  br label %return, !dbg !1406

return:                                           ; preds = %while.end, %if.then15, %if.then8, %if.then4, %if.then
  %14 = load i8, i8* %retval, align 1, !dbg !1407
  br label %dec_start

dec_start:                                        ; preds = %return
  %arrayidx = getelementptr inbounds [12 x i8], [12 x i8]* %ret_ptr, i32 0, i32 0
  store i8* %arrayidx, i8** %ptr2, align 4
  store i8* blockaddress(@_ZNK6String16equalsIgnoreCaseERKS_, %return.RetBlock), i8** %ptr, align 4
  store i32 0, i32* %i, align 4
  br label %dec_cond

dec_cond:                                         ; preds = %dec_add, %dec_start
  %15 = load i32, i32* %i, align 4
  %cmp1 = icmp slt i32 %15, 12
  br i1 %cmp1, label %dec_ing, label %dec_end

dec_ing:                                          ; preds = %dec_cond
  %16 = load i32, i32* %i, align 4
  %17 = load i8*, i8** %ptr, align 4
  %arrayidx1 = getelementptr inbounds i8, i8* %17, i32 %16
  %18 = load i8, i8* %arrayidx1, align 1
  %19 = load i32, i32* %i, align 4
  %arrayidx2 = getelementptr inbounds [12 x i8], [12 x i8]* %ret_ptr, i32 0, i32 %19
  store i8 %18, i8* %arrayidx2, align 1
  %20 = load i32, i32* %i, align 4
  %arrayidx3 = getelementptr inbounds [12 x i8], [12 x i8]* %ret_ptr, i32 0, i32 %20
  %21 = load i8, i8* %arrayidx3, align 1
  %conv2 = zext i8 %21 to i32
  %xor = xor i32 %conv2, 133
  %conv4 = trunc i32 %xor to i8
  %22 = load i32, i32* %i, align 4
  %arrayidx5 = getelementptr inbounds [12 x i8], [12 x i8]* %ret_ptr, i32 0, i32 %22
  store i8 %conv4, i8* %arrayidx5, align 1
  br label %dec_add

dec_add:                                          ; preds = %dec_ing
  %23 = load i32, i32* %i, align 4
  %24 = add i32 %23, 1
  store i32 %24, i32* %i, align 4
  br label %dec_cond

dec_end:                                          ; preds = %dec_cond
  %25 = load i8*, i8** %ptr2, align 4
  br label %dec_jmp

dec_jmp:                                          ; preds = %dec_end
  %26 = phi i8* [ %25, %dec_end ]
  indirectbr i8* %25, [label %return.RetBlock]

return.RetBlock:                                  ; preds = %dec_jmp
  ret i8 %14, !dbg !1407
}

; Function Attrs: nounwind readonly
declare dso_local arm_aapcscc i32 @tolower(i32) #4

; Function Attrs: noinline nounwind optnone
define dso_local arm_aapcscc zeroext i8 @_ZNK6String10startsWithERKS_(%class.String* %this, %class.String* dereferenceable(12) %s2) #0 align 2 !dbg !1408 {
entry:
  %ret_ptr = alloca [12 x i8], align 1
  %ptr = alloca i8*, align 4
  %ptr2 = alloca i8*, align 4
  %i = alloca i32, align 4
  %retval = alloca i8, align 1
  %this.addr = alloca %class.String*, align 4
  %s2.addr = alloca %class.String*, align 4
  store %class.String* %this, %class.String** %this.addr, align 4
  call void @llvm.dbg.declare(metadata %class.String** %this.addr, metadata !1409, metadata !DIExpression()), !dbg !1410
  store %class.String* %s2, %class.String** %s2.addr, align 4
  call void @llvm.dbg.declare(metadata %class.String** %s2.addr, metadata !1411, metadata !DIExpression()), !dbg !1412
  %this1 = load %class.String*, %class.String** %this.addr, align 4
  %len = getelementptr inbounds %class.String, %class.String* %this1, i32 0, i32 2, !dbg !1413
  %0 = load i32, i32* %len, align 4, !dbg !1413
  %1 = load %class.String*, %class.String** %s2.addr, align 4, !dbg !1415
  %len2 = getelementptr inbounds %class.String, %class.String* %1, i32 0, i32 2, !dbg !1416
  %2 = load i32, i32* %len2, align 4, !dbg !1416
  %cmp = icmp ult i32 %0, %2, !dbg !1417
  br i1 %cmp, label %if.then, label %if.end, !dbg !1418

if.then:                                          ; preds = %entry
  store i8 0, i8* %retval, align 1, !dbg !1419
  br label %return, !dbg !1419

if.end:                                           ; preds = %entry
  %3 = load %class.String*, %class.String** %s2.addr, align 4, !dbg !1420
  %call = call arm_aapcscc zeroext i8 @_ZNK6String10startsWithERKS_j(%class.String* %this1, %class.String* dereferenceable(12) %3, i32 0), !dbg !1421
  store i8 %call, i8* %retval, align 1, !dbg !1422
  br label %return, !dbg !1422

return:                                           ; preds = %if.end, %if.then
  %4 = load i8, i8* %retval, align 1, !dbg !1423
  br label %dec_start

dec_start:                                        ; preds = %return
  %arrayidx = getelementptr inbounds [12 x i8], [12 x i8]* %ret_ptr, i32 0, i32 0
  store i8* %arrayidx, i8** %ptr2, align 4
  store i8* blockaddress(@_ZNK6String10startsWithERKS_, %return.RetBlock), i8** %ptr, align 4
  store i32 0, i32* %i, align 4
  br label %dec_cond

dec_cond:                                         ; preds = %dec_add, %dec_start
  %5 = load i32, i32* %i, align 4
  %cmp1 = icmp slt i32 %5, 12
  br i1 %cmp1, label %dec_ing, label %dec_end

dec_ing:                                          ; preds = %dec_cond
  %6 = load i32, i32* %i, align 4
  %7 = load i8*, i8** %ptr, align 4
  %arrayidx1 = getelementptr inbounds i8, i8* %7, i32 %6
  %8 = load i8, i8* %arrayidx1, align 1
  %9 = load i32, i32* %i, align 4
  %arrayidx2 = getelementptr inbounds [12 x i8], [12 x i8]* %ret_ptr, i32 0, i32 %9
  store i8 %8, i8* %arrayidx2, align 1
  %10 = load i32, i32* %i, align 4
  %arrayidx3 = getelementptr inbounds [12 x i8], [12 x i8]* %ret_ptr, i32 0, i32 %10
  %11 = load i8, i8* %arrayidx3, align 1
  %conv = zext i8 %11 to i32
  %xor = xor i32 %conv, 133
  %conv4 = trunc i32 %xor to i8
  %12 = load i32, i32* %i, align 4
  %arrayidx5 = getelementptr inbounds [12 x i8], [12 x i8]* %ret_ptr, i32 0, i32 %12
  store i8 %conv4, i8* %arrayidx5, align 1
  br label %dec_add

dec_add:                                          ; preds = %dec_ing
  %13 = load i32, i32* %i, align 4
  %14 = add i32 %13, 1
  store i32 %14, i32* %i, align 4
  br label %dec_cond

dec_end:                                          ; preds = %dec_cond
  %15 = load i8*, i8** %ptr2, align 4
  br label %dec_jmp

dec_jmp:                                          ; preds = %dec_end
  %16 = phi i8* [ %15, %dec_end ]
  indirectbr i8* %15, [label %return.RetBlock]

return.RetBlock:                                  ; preds = %dec_jmp
  ret i8 %4, !dbg !1423
}

; Function Attrs: noinline nounwind optnone
define dso_local arm_aapcscc zeroext i8 @_ZNK6String10startsWithERKS_j(%class.String* %this, %class.String* dereferenceable(12) %s2, i32 %offset) #0 align 2 !dbg !1424 {
entry:
  %ret_ptr = alloca [12 x i8], align 1
  %ptr = alloca i8*, align 4
  %ptr2 = alloca i8*, align 4
  %i = alloca i32, align 4
  %retval = alloca i8, align 1
  %this.addr = alloca %class.String*, align 4
  %s2.addr = alloca %class.String*, align 4
  %offset.addr = alloca i32, align 4
  store %class.String* %this, %class.String** %this.addr, align 4
  call void @llvm.dbg.declare(metadata %class.String** %this.addr, metadata !1425, metadata !DIExpression()), !dbg !1426
  store %class.String* %s2, %class.String** %s2.addr, align 4
  call void @llvm.dbg.declare(metadata %class.String** %s2.addr, metadata !1427, metadata !DIExpression()), !dbg !1428
  store i32 %offset, i32* %offset.addr, align 4
  call void @llvm.dbg.declare(metadata i32* %offset.addr, metadata !1429, metadata !DIExpression()), !dbg !1430
  %this1 = load %class.String*, %class.String** %this.addr, align 4
  %0 = load i32, i32* %offset.addr, align 4, !dbg !1431
  %len = getelementptr inbounds %class.String, %class.String* %this1, i32 0, i32 2, !dbg !1433
  %1 = load i32, i32* %len, align 4, !dbg !1433
  %2 = load %class.String*, %class.String** %s2.addr, align 4, !dbg !1434
  %len2 = getelementptr inbounds %class.String, %class.String* %2, i32 0, i32 2, !dbg !1435
  %3 = load i32, i32* %len2, align 4, !dbg !1435
  %sub = sub i32 %1, %3, !dbg !1436
  %cmp = icmp ugt i32 %0, %sub, !dbg !1437
  br i1 %cmp, label %if.then, label %lor.lhs.false, !dbg !1438

lor.lhs.false:                                    ; preds = %entry
  %buffer = getelementptr inbounds %class.String, %class.String* %this1, i32 0, i32 0, !dbg !1439
  %4 = load i8*, i8** %buffer, align 4, !dbg !1439
  %tobool = icmp ne i8* %4, null, !dbg !1439
  br i1 %tobool, label %lor.lhs.false3, label %if.then, !dbg !1440

lor.lhs.false3:                                   ; preds = %lor.lhs.false
  %5 = load %class.String*, %class.String** %s2.addr, align 4, !dbg !1441
  %buffer4 = getelementptr inbounds %class.String, %class.String* %5, i32 0, i32 0, !dbg !1442
  %6 = load i8*, i8** %buffer4, align 4, !dbg !1442
  %tobool5 = icmp ne i8* %6, null, !dbg !1441
  br i1 %tobool5, label %if.end, label %if.then, !dbg !1443

if.then:                                          ; preds = %lor.lhs.false3, %lor.lhs.false, %entry
  store i8 0, i8* %retval, align 1, !dbg !1444
  br label %return, !dbg !1444

if.end:                                           ; preds = %lor.lhs.false3
  %buffer6 = getelementptr inbounds %class.String, %class.String* %this1, i32 0, i32 0, !dbg !1445
  %7 = load i8*, i8** %buffer6, align 4, !dbg !1445
  %8 = load i32, i32* %offset.addr, align 4, !dbg !1446
  %arrayidx = getelementptr inbounds i8, i8* %7, i32 %8, !dbg !1445
  %9 = load %class.String*, %class.String** %s2.addr, align 4, !dbg !1447
  %buffer7 = getelementptr inbounds %class.String, %class.String* %9, i32 0, i32 0, !dbg !1448
  %10 = load i8*, i8** %buffer7, align 4, !dbg !1448
  %11 = load %class.String*, %class.String** %s2.addr, align 4, !dbg !1449
  %len8 = getelementptr inbounds %class.String, %class.String* %11, i32 0, i32 2, !dbg !1450
  %12 = load i32, i32* %len8, align 4, !dbg !1450
  %call = call arm_aapcscc i32 @strncmp(i8* %arrayidx, i8* %10, i32 %12), !dbg !1451
  %cmp9 = icmp eq i32 %call, 0, !dbg !1452
  %conv = zext i1 %cmp9 to i8, !dbg !1451
  store i8 %conv, i8* %retval, align 1, !dbg !1453
  br label %return, !dbg !1453

return:                                           ; preds = %if.end, %if.then
  %13 = load i8, i8* %retval, align 1, !dbg !1454
  br label %dec_start

dec_start:                                        ; preds = %return
  %arrayidx1 = getelementptr inbounds [12 x i8], [12 x i8]* %ret_ptr, i32 0, i32 0
  store i8* %arrayidx1, i8** %ptr2, align 4
  store i8* blockaddress(@_ZNK6String10startsWithERKS_j, %return.RetBlock), i8** %ptr, align 4
  store i32 0, i32* %i, align 4
  br label %dec_cond

dec_cond:                                         ; preds = %dec_add, %dec_start
  %14 = load i32, i32* %i, align 4
  %cmp2 = icmp slt i32 %14, 12
  br i1 %cmp2, label %dec_ing, label %dec_end

dec_ing:                                          ; preds = %dec_cond
  %15 = load i32, i32* %i, align 4
  %16 = load i8*, i8** %ptr, align 4
  %arrayidx13 = getelementptr inbounds i8, i8* %16, i32 %15
  %17 = load i8, i8* %arrayidx13, align 1
  %18 = load i32, i32* %i, align 4
  %arrayidx2 = getelementptr inbounds [12 x i8], [12 x i8]* %ret_ptr, i32 0, i32 %18
  store i8 %17, i8* %arrayidx2, align 1
  %19 = load i32, i32* %i, align 4
  %arrayidx3 = getelementptr inbounds [12 x i8], [12 x i8]* %ret_ptr, i32 0, i32 %19
  %20 = load i8, i8* %arrayidx3, align 1
  %conv4 = zext i8 %20 to i32
  %xor = xor i32 %conv4, 133
  %conv45 = trunc i32 %xor to i8
  %21 = load i32, i32* %i, align 4
  %arrayidx5 = getelementptr inbounds [12 x i8], [12 x i8]* %ret_ptr, i32 0, i32 %21
  store i8 %conv45, i8* %arrayidx5, align 1
  br label %dec_add

dec_add:                                          ; preds = %dec_ing
  %22 = load i32, i32* %i, align 4
  %23 = add i32 %22, 1
  store i32 %23, i32* %i, align 4
  br label %dec_cond

dec_end:                                          ; preds = %dec_cond
  %24 = load i8*, i8** %ptr2, align 4
  br label %dec_jmp

dec_jmp:                                          ; preds = %dec_end
  %25 = phi i8* [ %24, %dec_end ]
  indirectbr i8* %24, [label %return.RetBlock]

return.RetBlock:                                  ; preds = %dec_jmp
  ret i8 %13, !dbg !1454
}

declare dso_local arm_aapcscc i32 @strncmp(i8*, i8*, i32) #2

; Function Attrs: noinline nounwind optnone
define dso_local arm_aapcscc zeroext i8 @_ZNK6String8endsWithERKS_(%class.String* %this, %class.String* dereferenceable(12) %s2) #0 align 2 !dbg !1455 {
entry:
  %ret_ptr = alloca [12 x i8], align 1
  %ptr = alloca i8*, align 4
  %ptr2 = alloca i8*, align 4
  %i = alloca i32, align 4
  %retval = alloca i8, align 1
  %this.addr = alloca %class.String*, align 4
  %s2.addr = alloca %class.String*, align 4
  store %class.String* %this, %class.String** %this.addr, align 4
  call void @llvm.dbg.declare(metadata %class.String** %this.addr, metadata !1456, metadata !DIExpression()), !dbg !1457
  store %class.String* %s2, %class.String** %s2.addr, align 4
  call void @llvm.dbg.declare(metadata %class.String** %s2.addr, metadata !1458, metadata !DIExpression()), !dbg !1459
  %this1 = load %class.String*, %class.String** %this.addr, align 4
  %len = getelementptr inbounds %class.String, %class.String* %this1, i32 0, i32 2, !dbg !1460
  %0 = load i32, i32* %len, align 4, !dbg !1460
  %1 = load %class.String*, %class.String** %s2.addr, align 4, !dbg !1462
  %len2 = getelementptr inbounds %class.String, %class.String* %1, i32 0, i32 2, !dbg !1463
  %2 = load i32, i32* %len2, align 4, !dbg !1463
  %cmp = icmp ult i32 %0, %2, !dbg !1464
  br i1 %cmp, label %if.then, label %lor.lhs.false, !dbg !1465

lor.lhs.false:                                    ; preds = %entry
  %buffer = getelementptr inbounds %class.String, %class.String* %this1, i32 0, i32 0, !dbg !1466
  %3 = load i8*, i8** %buffer, align 4, !dbg !1466
  %tobool = icmp ne i8* %3, null, !dbg !1466
  br i1 %tobool, label %lor.lhs.false3, label %if.then, !dbg !1467

lor.lhs.false3:                                   ; preds = %lor.lhs.false
  %4 = load %class.String*, %class.String** %s2.addr, align 4, !dbg !1468
  %buffer4 = getelementptr inbounds %class.String, %class.String* %4, i32 0, i32 0, !dbg !1469
  %5 = load i8*, i8** %buffer4, align 4, !dbg !1469
  %tobool5 = icmp ne i8* %5, null, !dbg !1468
  br i1 %tobool5, label %if.end, label %if.then, !dbg !1470

if.then:                                          ; preds = %lor.lhs.false3, %lor.lhs.false, %entry
  store i8 0, i8* %retval, align 1, !dbg !1471
  br label %return, !dbg !1471

if.end:                                           ; preds = %lor.lhs.false3
  %buffer6 = getelementptr inbounds %class.String, %class.String* %this1, i32 0, i32 0, !dbg !1472
  %6 = load i8*, i8** %buffer6, align 4, !dbg !1472
  %len7 = getelementptr inbounds %class.String, %class.String* %this1, i32 0, i32 2, !dbg !1473
  %7 = load i32, i32* %len7, align 4, !dbg !1473
  %8 = load %class.String*, %class.String** %s2.addr, align 4, !dbg !1474
  %len8 = getelementptr inbounds %class.String, %class.String* %8, i32 0, i32 2, !dbg !1475
  %9 = load i32, i32* %len8, align 4, !dbg !1475
  %sub = sub i32 %7, %9, !dbg !1476
  %arrayidx = getelementptr inbounds i8, i8* %6, i32 %sub, !dbg !1472
  %10 = load %class.String*, %class.String** %s2.addr, align 4, !dbg !1477
  %buffer9 = getelementptr inbounds %class.String, %class.String* %10, i32 0, i32 0, !dbg !1478
  %11 = load i8*, i8** %buffer9, align 4, !dbg !1478
  %call = call arm_aapcscc i32 @strcmp(i8* %arrayidx, i8* %11), !dbg !1479
  %cmp10 = icmp eq i32 %call, 0, !dbg !1480
  %conv = zext i1 %cmp10 to i8, !dbg !1479
  store i8 %conv, i8* %retval, align 1, !dbg !1481
  br label %return, !dbg !1481

return:                                           ; preds = %if.end, %if.then
  %12 = load i8, i8* %retval, align 1, !dbg !1482
  br label %dec_start

dec_start:                                        ; preds = %return
  %arrayidx1 = getelementptr inbounds [12 x i8], [12 x i8]* %ret_ptr, i32 0, i32 0
  store i8* %arrayidx1, i8** %ptr2, align 4
  store i8* blockaddress(@_ZNK6String8endsWithERKS_, %return.RetBlock), i8** %ptr, align 4
  store i32 0, i32* %i, align 4
  br label %dec_cond

dec_cond:                                         ; preds = %dec_add, %dec_start
  %13 = load i32, i32* %i, align 4
  %cmp2 = icmp slt i32 %13, 12
  br i1 %cmp2, label %dec_ing, label %dec_end

dec_ing:                                          ; preds = %dec_cond
  %14 = load i32, i32* %i, align 4
  %15 = load i8*, i8** %ptr, align 4
  %arrayidx13 = getelementptr inbounds i8, i8* %15, i32 %14
  %16 = load i8, i8* %arrayidx13, align 1
  %17 = load i32, i32* %i, align 4
  %arrayidx2 = getelementptr inbounds [12 x i8], [12 x i8]* %ret_ptr, i32 0, i32 %17
  store i8 %16, i8* %arrayidx2, align 1
  %18 = load i32, i32* %i, align 4
  %arrayidx3 = getelementptr inbounds [12 x i8], [12 x i8]* %ret_ptr, i32 0, i32 %18
  %19 = load i8, i8* %arrayidx3, align 1
  %conv4 = zext i8 %19 to i32
  %xor = xor i32 %conv4, 133
  %conv45 = trunc i32 %xor to i8
  %20 = load i32, i32* %i, align 4
  %arrayidx5 = getelementptr inbounds [12 x i8], [12 x i8]* %ret_ptr, i32 0, i32 %20
  store i8 %conv45, i8* %arrayidx5, align 1
  br label %dec_add

dec_add:                                          ; preds = %dec_ing
  %21 = load i32, i32* %i, align 4
  %22 = add i32 %21, 1
  store i32 %22, i32* %i, align 4
  br label %dec_cond

dec_end:                                          ; preds = %dec_cond
  %23 = load i8*, i8** %ptr2, align 4
  br label %dec_jmp

dec_jmp:                                          ; preds = %dec_end
  %24 = phi i8* [ %23, %dec_end ]
  indirectbr i8* %23, [label %return.RetBlock]

return.RetBlock:                                  ; preds = %dec_jmp
  ret i8 %12, !dbg !1482
}

; Function Attrs: noinline nounwind optnone
define dso_local arm_aapcscc zeroext i8 @_ZNK6String6charAtEj(%class.String* %this, i32 %loc) #0 align 2 !dbg !1483 {
entry:
  %ret_ptr = alloca [12 x i8], align 1
  %ptr = alloca i8*, align 4
  %ptr2 = alloca i8*, align 4
  %i = alloca i32, align 4
  %this.addr = alloca %class.String*, align 4
  %loc.addr = alloca i32, align 4
  store %class.String* %this, %class.String** %this.addr, align 4
