Archive member included because of file (symbol)

/home/aaa/.arduino15/packages/arduino/hardware/sam/1.6.12/variants/arduino_due_x/libsam_sam3x8e_gcc_rel.a(pio.o)
                              /home/aaa/llvm-arduino-due/build/core/variant.cpp.o (PIO_Configure)
/home/aaa/.arduino15/packages/arduino/hardware/sam/1.6.12/variants/arduino_due_x/libsam_sam3x8e_gcc_rel.a(pmc.o)
                              /home/aaa/llvm-arduino-due/build/core/variant.cpp.o (pmc_enable_periph_clk)
/home/aaa/.arduino15/packages/arduino/hardware/sam/1.6.12/variants/arduino_due_x/libsam_sam3x8e_gcc_rel.a(system_sam3xa.o)
                              /home/aaa/llvm-arduino-due/build/core/variant.cpp.o (SystemInit)
/home/aaa/.arduino15/packages/arduino/hardware/sam/1.6.12/variants/arduino_due_x/libsam_sam3x8e_gcc_rel.a(startup_sam3xa.o)
                              (Reset_Handler)
/home/aaa/.arduino15/packages/arduino/hardware/sam/1.6.12/variants/arduino_due_x/libsam_sam3x8e_gcc_rel.a(adc.o)
                              /home/aaa/llvm-arduino-due/build/core/variant.cpp.o (adc_init)
/home/aaa/.arduino15/packages/arduino/hardware/sam/1.6.12/variants/arduino_due_x/libsam_sam3x8e_gcc_rel.a(uotghs.o)
                              /home/aaa/.arduino15/packages/arduino/hardware/sam/1.6.12/variants/arduino_due_x/libsam_sam3x8e_gcc_rel.a(startup_sam3xa.o) (UOTGHS_Handler)
/home/aaa/llvm-arduino-due/build/core.a(wiring_analog.c.o)
                              /home/aaa/llvm-arduino-due/build/core/variant.cpp.o (analogOutputInit)
/home/aaa/llvm-arduino-due/build/core.a(cortex_handlers.c.o)
                              /home/aaa/.arduino15/packages/arduino/hardware/sam/1.6.12/variants/arduino_due_x/libsam_sam3x8e_gcc_rel.a(startup_sam3xa.o) (ADC_Handler)
/home/aaa/llvm-arduino-due/build/core.a(hooks.c.o)
                              /home/aaa/llvm-arduino-due/build/core.a(cortex_handlers.c.o) (pendSVHook)
/home/aaa/llvm-arduino-due/build/core.a(wiring.c.o)
                              /home/aaa/llvm-arduino-due/build/Blink.ino.cpp.o (delay)
/home/aaa/llvm-arduino-due/build/core.a(syscalls_sam3.c.o)
                              (_close)
/home/aaa/llvm-arduino-due/build/core.a(wiring_digital.c.o)
                              /home/aaa/llvm-arduino-due/build/core/variant.cpp.o (digitalWrite)
/home/aaa/llvm-arduino-due/build/core.a(Print.cpp.o)
                              /home/aaa/llvm-arduino-due/build/Blink.ino.cpp.o (Print::print(char const*))
/home/aaa/llvm-arduino-due/build/core.a(USARTClass.cpp.o)
                              /home/aaa/llvm-arduino-due/build/core/variant.cpp.o (USARTClass::USARTClass(Usart*, IRQn, unsigned int, RingBuffer*, RingBuffer*))
/home/aaa/llvm-arduino-due/build/core.a(USBCore.cpp.o)
                              /home/aaa/llvm-arduino-due/build/Blink.ino.cpp.o (USBDevice)
/home/aaa/llvm-arduino-due/build/core.a(CDC.cpp.o)
                              /home/aaa/llvm-arduino-due/build/core.a(USBCore.cpp.o) (SerialUSB)
/home/aaa/llvm-arduino-due/build/core.a(UARTClass.cpp.o)
                              /home/aaa/llvm-arduino-due/build/core/variant.cpp.o (UARTClass::IrqHandler())
/home/aaa/llvm-arduino-due/build/core.a(watchdog.cpp.o)
                              /home/aaa/llvm-arduino-due/build/Blink.ino.cpp.o (watchdogSetup())
/home/aaa/llvm-arduino-due/build/core.a(RingBuffer.cpp.o)
                              /home/aaa/llvm-arduino-due/build/core.a(UARTClass.cpp.o) (RingBuffer::store_char(unsigned char))
/home/aaa/llvm-arduino-due/build/core.a(Reset.cpp.o)
                              /home/aaa/llvm-arduino-due/build/core.a(CDC.cpp.o) (cancelReset)
/home/aaa/llvm-arduino-due/build/core.a(PluggableUSB.cpp.o)
                              /home/aaa/llvm-arduino-due/build/core.a(USBCore.cpp.o) (PluggableUSB())
/home/aaa/.arduino15/packages/arduino/hardware/sam/1.6.12/variants/arduino_due_x/libsam_sam3x8e_gcc_rel.a(pwmc.o)
                              /home/aaa/llvm-arduino-due/build/core.a(wiring_analog.c.o) (PWMC_ConfigureChannel)
/home/aaa/.arduino15/packages/arduino/hardware/sam/1.6.12/variants/arduino_due_x/libsam_sam3x8e_gcc_rel.a(tc.o)
                              /home/aaa/llvm-arduino-due/build/core.a(wiring_analog.c.o) (TC_Configure)
/home/aaa/.arduino15/packages/arduino/hardware/sam/1.6.12/variants/arduino_due_x/libsam_sam3x8e_gcc_rel.a(timetick.o)
                              /home/aaa/llvm-arduino-due/build/core.a(cortex_handlers.c.o) (TimeTick_Increment)
/home/aaa/.arduino15/packages/arduino/hardware/sam/1.6.12/variants/arduino_due_x/libsam_sam3x8e_gcc_rel.a(wdt.o)
                              /home/aaa/llvm-arduino-due/build/core.a(watchdog.cpp.o) (WDT_Enable)
/home/aaa/.arduino15/packages/arduino/hardware/sam/1.6.12/variants/arduino_due_x/libsam_sam3x8e_gcc_rel.a(interrupt_sam_nvic.o)
                              /home/aaa/llvm-arduino-due/build/core.a(USBCore.cpp.o) (g_interrupt_enabled)
/home/aaa/.arduino15/packages/arduino/hardware/sam/1.6.12/variants/arduino_due_x/libsam_sam3x8e_gcc_rel.a(uotghs_device.o)
                              /home/aaa/llvm-arduino-due/build/core.a(USBCore.cpp.o) (UDD_SetStack)
/home/aaa/.arduino15/packages/arduino/hardware/sam/1.6.12/variants/arduino_due_x/libsam_sam3x8e_gcc_rel.a(dacc.o)
                              /home/aaa/llvm-arduino-due/build/core.a(wiring_analog.c.o) (dacc_reset)
/home/aaa/.arduino15/packages/arduino/tools/arm-none-eabi-gcc/4.8.3-2014q1/bin/../lib/gcc/arm-none-eabi/4.8.3/../../../../arm-none-eabi/lib/armv7-m/libm.a(lib_a-s_fpclassify.o)
                              /home/aaa/llvm-arduino-due/build/core.a(Print.cpp.o) (__fpclassifyd)
/home/aaa/.arduino15/packages/arduino/tools/arm-none-eabi-gcc/4.8.3-2014q1/bin/../lib/gcc/arm-none-eabi/4.8.3/armv7-m/libgcc.a(_arm_addsubdf3.o)
                              /home/aaa/llvm-arduino-due/build/core.a(Print.cpp.o) (__subdf3)
/home/aaa/.arduino15/packages/arduino/tools/arm-none-eabi-gcc/4.8.3-2014q1/bin/../lib/gcc/arm-none-eabi/4.8.3/armv7-m/libgcc.a(_arm_muldivdf3.o)
                              /home/aaa/llvm-arduino-due/build/core.a(Print.cpp.o) (__muldf3)
/home/aaa/.arduino15/packages/arduino/tools/arm-none-eabi-gcc/4.8.3-2014q1/bin/../lib/gcc/arm-none-eabi/4.8.3/armv7-m/libgcc.a(_arm_cmpdf2.o)
                              /home/aaa/llvm-arduino-due/build/core.a(Print.cpp.o) (__gtdf2)
/home/aaa/.arduino15/packages/arduino/tools/arm-none-eabi-gcc/4.8.3-2014q1/bin/../lib/gcc/arm-none-eabi/4.8.3/armv7-m/libgcc.a(_arm_fixunsdfsi.o)
                              /home/aaa/llvm-arduino-due/build/core.a(Print.cpp.o) (__fixunsdfsi)
/home/aaa/.arduino15/packages/arduino/tools/arm-none-eabi-gcc/4.8.3-2014q1/bin/../lib/gcc/arm-none-eabi/4.8.3/../../../../arm-none-eabi/lib/armv7-m/libg.a(lib_a-assert.o)
                              /home/aaa/.arduino15/packages/arduino/hardware/sam/1.6.12/variants/arduino_due_x/libsam_sam3x8e_gcc_rel.a(pwmc.o) (__assert_func)
/home/aaa/.arduino15/packages/arduino/tools/arm-none-eabi-gcc/4.8.3-2014q1/bin/../lib/gcc/arm-none-eabi/4.8.3/../../../../arm-none-eabi/lib/armv7-m/libg.a(lib_a-exit.o)
                              /home/aaa/.arduino15/packages/arduino/tools/arm-none-eabi-gcc/4.8.3-2014q1/bin/../lib/gcc/arm-none-eabi/4.8.3/../../../../arm-none-eabi/lib/armv7-m/crt0.o (exit)
/home/aaa/.arduino15/packages/arduino/tools/arm-none-eabi-gcc/4.8.3-2014q1/bin/../lib/gcc/arm-none-eabi/4.8.3/../../../../arm-none-eabi/lib/armv7-m/libg.a(lib_a-fiprintf.o)
                              /home/aaa/.arduino15/packages/arduino/tools/arm-none-eabi-gcc/4.8.3-2014q1/bin/../lib/gcc/arm-none-eabi/4.8.3/../../../../arm-none-eabi/lib/armv7-m/libg.a(lib_a-assert.o) (fiprintf)
/home/aaa/.arduino15/packages/arduino/tools/arm-none-eabi-gcc/4.8.3-2014q1/bin/../lib/gcc/arm-none-eabi/4.8.3/../../../../arm-none-eabi/lib/armv7-m/libg.a(lib_a-impure.o)
                              /home/aaa/.arduino15/packages/arduino/tools/arm-none-eabi-gcc/4.8.3-2014q1/bin/../lib/gcc/arm-none-eabi/4.8.3/../../../../arm-none-eabi/lib/armv7-m/libg.a(lib_a-exit.o) (_global_impure_ptr)
/home/aaa/.arduino15/packages/arduino/tools/arm-none-eabi-gcc/4.8.3-2014q1/bin/../lib/gcc/arm-none-eabi/4.8.3/../../../../arm-none-eabi/lib/armv7-m/libg.a(lib_a-init.o)
                              /home/aaa/.arduino15/packages/arduino/tools/arm-none-eabi-gcc/4.8.3-2014q1/bin/../lib/gcc/arm-none-eabi/4.8.3/../../../../arm-none-eabi/lib/armv7-m/crt0.o (__libc_init_array)
/home/aaa/.arduino15/packages/arduino/tools/arm-none-eabi-gcc/4.8.3-2014q1/bin/../lib/gcc/arm-none-eabi/4.8.3/../../../../arm-none-eabi/lib/armv7-m/libg.a(lib_a-memset.o)
                              /home/aaa/.arduino15/packages/arduino/tools/arm-none-eabi-gcc/4.8.3-2014q1/bin/../lib/gcc/arm-none-eabi/4.8.3/../../../../arm-none-eabi/lib/armv7-m/crt0.o (memset)
/home/aaa/.arduino15/packages/arduino/tools/arm-none-eabi-gcc/4.8.3-2014q1/bin/../lib/gcc/arm-none-eabi/4.8.3/../../../../arm-none-eabi/lib/armv7-m/libg.a(lib_a-strlen.o)
                              /home/aaa/llvm-arduino-due/build/core.a(Print.cpp.o) (strlen)
/home/aaa/.arduino15/packages/arduino/tools/arm-none-eabi-gcc/4.8.3-2014q1/bin/../lib/gcc/arm-none-eabi/4.8.3/../../../../arm-none-eabi/lib/armv7-m/libg.a(lib_a-syskill.o)
                              (kill)
/home/aaa/.arduino15/packages/arduino/tools/arm-none-eabi-gcc/4.8.3-2014q1/bin/../lib/gcc/arm-none-eabi/4.8.3/../../../../arm-none-eabi/lib/armv7-m/libg.a(lib_a-vfiprintf.o)
                              /home/aaa/.arduino15/packages/arduino/tools/arm-none-eabi-gcc/4.8.3-2014q1/bin/../lib/gcc/arm-none-eabi/4.8.3/../../../../arm-none-eabi/lib/armv7-m/libg.a(lib_a-fiprintf.o) (_vfiprintf_r)
/home/aaa/.arduino15/packages/arduino/tools/arm-none-eabi-gcc/4.8.3-2014q1/bin/../lib/gcc/arm-none-eabi/4.8.3/../../../../arm-none-eabi/lib/armv7-m/libg.a(lib_a-wsetup.o)
                              /home/aaa/.arduino15/packages/arduino/tools/arm-none-eabi-gcc/4.8.3-2014q1/bin/../lib/gcc/arm-none-eabi/4.8.3/../../../../arm-none-eabi/lib/armv7-m/libg.a(lib_a-vfiprintf.o) (__swsetup_r)
/home/aaa/.arduino15/packages/arduino/tools/arm-none-eabi-gcc/4.8.3-2014q1/bin/../lib/gcc/arm-none-eabi/4.8.3/../../../../arm-none-eabi/lib/armv7-m/libg.a(lib_a-__call_atexit.o)
                              /home/aaa/.arduino15/packages/arduino/tools/arm-none-eabi-gcc/4.8.3-2014q1/bin/../lib/gcc/arm-none-eabi/4.8.3/../../../../arm-none-eabi/lib/armv7-m/libg.a(lib_a-exit.o) (__call_exitprocs)
/home/aaa/.arduino15/packages/arduino/tools/arm-none-eabi-gcc/4.8.3-2014q1/bin/../lib/gcc/arm-none-eabi/4.8.3/../../../../arm-none-eabi/lib/armv7-m/libg.a(lib_a-abort.o)
                              /home/aaa/.arduino15/packages/arduino/tools/arm-none-eabi-gcc/4.8.3-2014q1/bin/../lib/gcc/arm-none-eabi/4.8.3/../../../../arm-none-eabi/lib/armv7-m/libg.a(lib_a-assert.o) (abort)
/home/aaa/.arduino15/packages/arduino/tools/arm-none-eabi-gcc/4.8.3-2014q1/bin/../lib/gcc/arm-none-eabi/4.8.3/../../../../arm-none-eabi/lib/armv7-m/libg.a(lib_a-atexit.o)
                              /home/aaa/.arduino15/packages/arduino/tools/arm-none-eabi-gcc/4.8.3-2014q1/bin/../lib/gcc/arm-none-eabi/4.8.3/../../../../arm-none-eabi/lib/armv7-m/libg.a(lib_a-__call_atexit.o) (atexit)
/home/aaa/.arduino15/packages/arduino/tools/arm-none-eabi-gcc/4.8.3-2014q1/bin/../lib/gcc/arm-none-eabi/4.8.3/../../../../arm-none-eabi/lib/armv7-m/libg.a(lib_a-fflush.o)
                              /home/aaa/.arduino15/packages/arduino/tools/arm-none-eabi-gcc/4.8.3-2014q1/bin/../lib/gcc/arm-none-eabi/4.8.3/../../../../arm-none-eabi/lib/armv7-m/libg.a(lib_a-vfiprintf.o) (_fflush_r)
/home/aaa/.arduino15/packages/arduino/tools/arm-none-eabi-gcc/4.8.3-2014q1/bin/../lib/gcc/arm-none-eabi/4.8.3/../../../../arm-none-eabi/lib/armv7-m/libg.a(lib_a-findfp.o)
                              /home/aaa/.arduino15/packages/arduino/tools/arm-none-eabi-gcc/4.8.3-2014q1/bin/../lib/gcc/arm-none-eabi/4.8.3/../../../../arm-none-eabi/lib/armv7-m/libg.a(lib_a-vfiprintf.o) (__sinit)
/home/aaa/.arduino15/packages/arduino/tools/arm-none-eabi-gcc/4.8.3-2014q1/bin/../lib/gcc/arm-none-eabi/4.8.3/../../../../arm-none-eabi/lib/armv7-m/libg.a(lib_a-fini.o)
                              /home/aaa/.arduino15/packages/arduino/tools/arm-none-eabi-gcc/4.8.3-2014q1/bin/../lib/gcc/arm-none-eabi/4.8.3/../../../../arm-none-eabi/lib/armv7-m/libg.a(lib_a-__call_atexit.o) (__libc_fini_array)
/home/aaa/.arduino15/packages/arduino/tools/arm-none-eabi-gcc/4.8.3-2014q1/bin/../lib/gcc/arm-none-eabi/4.8.3/../../../../arm-none-eabi/lib/armv7-m/libg.a(lib_a-fputwc.o)
                              /home/aaa/.arduino15/packages/arduino/tools/arm-none-eabi-gcc/4.8.3-2014q1/bin/../lib/gcc/arm-none-eabi/4.8.3/../../../../arm-none-eabi/lib/armv7-m/libg.a(lib_a-vfiprintf.o) (_fputwc_r)
/home/aaa/.arduino15/packages/arduino/tools/arm-none-eabi-gcc/4.8.3-2014q1/bin/../lib/gcc/arm-none-eabi/4.8.3/../../../../arm-none-eabi/lib/armv7-m/libg.a(lib_a-freer.o)
                              /home/aaa/.arduino15/packages/arduino/tools/arm-none-eabi-gcc/4.8.3-2014q1/bin/../lib/gcc/arm-none-eabi/4.8.3/../../../../arm-none-eabi/lib/armv7-m/libg.a(lib_a-wsetup.o) (_free_r)
/home/aaa/.arduino15/packages/arduino/tools/arm-none-eabi-gcc/4.8.3-2014q1/bin/../lib/gcc/arm-none-eabi/4.8.3/../../../../arm-none-eabi/lib/armv7-m/libg.a(lib_a-fvwrite.o)
                              /home/aaa/.arduino15/packages/arduino/tools/arm-none-eabi-gcc/4.8.3-2014q1/bin/../lib/gcc/arm-none-eabi/4.8.3/../../../../arm-none-eabi/lib/armv7-m/libg.a(lib_a-vfiprintf.o) (__sfvwrite_r)
/home/aaa/.arduino15/packages/arduino/tools/arm-none-eabi-gcc/4.8.3-2014q1/bin/../lib/gcc/arm-none-eabi/4.8.3/../../../../arm-none-eabi/lib/armv7-m/libg.a(lib_a-fwalk.o)
                              /home/aaa/.arduino15/packages/arduino/tools/arm-none-eabi-gcc/4.8.3-2014q1/bin/../lib/gcc/arm-none-eabi/4.8.3/../../../../arm-none-eabi/lib/armv7-m/libg.a(lib_a-findfp.o) (_fwalk)
/home/aaa/.arduino15/packages/arduino/tools/arm-none-eabi-gcc/4.8.3-2014q1/bin/../lib/gcc/arm-none-eabi/4.8.3/../../../../arm-none-eabi/lib/armv7-m/libg.a(lib_a-locale.o)
                              /home/aaa/.arduino15/packages/arduino/tools/arm-none-eabi-gcc/4.8.3-2014q1/bin/../lib/gcc/arm-none-eabi/4.8.3/../../../../arm-none-eabi/lib/armv7-m/libg.a(lib_a-fputwc.o) (__locale_mb_cur_max)
/home/aaa/.arduino15/packages/arduino/tools/arm-none-eabi-gcc/4.8.3-2014q1/bin/../lib/gcc/arm-none-eabi/4.8.3/../../../../arm-none-eabi/lib/armv7-m/libg.a(lib_a-makebuf.o)
                              /home/aaa/.arduino15/packages/arduino/tools/arm-none-eabi-gcc/4.8.3-2014q1/bin/../lib/gcc/arm-none-eabi/4.8.3/../../../../arm-none-eabi/lib/armv7-m/libg.a(lib_a-wsetup.o) (__smakebuf_r)
/home/aaa/.arduino15/packages/arduino/tools/arm-none-eabi-gcc/4.8.3-2014q1/bin/../lib/gcc/arm-none-eabi/4.8.3/../../../../arm-none-eabi/lib/armv7-m/libg.a(lib_a-mallocr.o)
                              /home/aaa/.arduino15/packages/arduino/tools/arm-none-eabi-gcc/4.8.3-2014q1/bin/../lib/gcc/arm-none-eabi/4.8.3/../../../../arm-none-eabi/lib/armv7-m/libg.a(lib_a-findfp.o) (_malloc_r)
/home/aaa/.arduino15/packages/arduino/tools/arm-none-eabi-gcc/4.8.3-2014q1/bin/../lib/gcc/arm-none-eabi/4.8.3/../../../../arm-none-eabi/lib/armv7-m/libg.a(lib_a-memchr-stub.o)
                              /home/aaa/.arduino15/packages/arduino/tools/arm-none-eabi-gcc/4.8.3-2014q1/bin/../lib/gcc/arm-none-eabi/4.8.3/../../../../arm-none-eabi/lib/armv7-m/libg.a(lib_a-vfiprintf.o) (memchr)
/home/aaa/.arduino15/packages/arduino/tools/arm-none-eabi-gcc/4.8.3-2014q1/bin/../lib/gcc/arm-none-eabi/4.8.3/../../../../arm-none-eabi/lib/armv7-m/libg.a(lib_a-memcpy.o)
                              /home/aaa/.arduino15/packages/arduino/tools/arm-none-eabi-gcc/4.8.3-2014q1/bin/../lib/gcc/arm-none-eabi/4.8.3/../../../../arm-none-eabi/lib/armv7-m/libg.a(lib_a-fvwrite.o) (memcpy)
/home/aaa/.arduino15/packages/arduino/tools/arm-none-eabi-gcc/4.8.3-2014q1/bin/../lib/gcc/arm-none-eabi/4.8.3/../../../../arm-none-eabi/lib/armv7-m/libg.a(lib_a-memmove.o)
                              /home/aaa/.arduino15/packages/arduino/tools/arm-none-eabi-gcc/4.8.3-2014q1/bin/../lib/gcc/arm-none-eabi/4.8.3/../../../../arm-none-eabi/lib/armv7-m/libg.a(lib_a-fvwrite.o) (memmove)
/home/aaa/.arduino15/packages/arduino/tools/arm-none-eabi-gcc/4.8.3-2014q1/bin/../lib/gcc/arm-none-eabi/4.8.3/../../../../arm-none-eabi/lib/armv7-m/libg.a(lib_a-mlock.o)
                              /home/aaa/.arduino15/packages/arduino/tools/arm-none-eabi-gcc/4.8.3-2014q1/bin/../lib/gcc/arm-none-eabi/4.8.3/../../../../arm-none-eabi/lib/armv7-m/libg.a(lib_a-freer.o) (__malloc_lock)
/home/aaa/.arduino15/packages/arduino/tools/arm-none-eabi-gcc/4.8.3-2014q1/bin/../lib/gcc/arm-none-eabi/4.8.3/../../../../arm-none-eabi/lib/armv7-m/libg.a(lib_a-reallocr.o)
                              /home/aaa/.arduino15/packages/arduino/tools/arm-none-eabi-gcc/4.8.3-2014q1/bin/../lib/gcc/arm-none-eabi/4.8.3/../../../../arm-none-eabi/lib/armv7-m/libg.a(lib_a-fvwrite.o) (_realloc_r)
/home/aaa/.arduino15/packages/arduino/tools/arm-none-eabi-gcc/4.8.3-2014q1/bin/../lib/gcc/arm-none-eabi/4.8.3/../../../../arm-none-eabi/lib/armv7-m/libg.a(lib_a-sbrkr.o)
                              /home/aaa/.arduino15/packages/arduino/tools/arm-none-eabi-gcc/4.8.3-2014q1/bin/../lib/gcc/arm-none-eabi/4.8.3/../../../../arm-none-eabi/lib/armv7-m/libg.a(lib_a-freer.o) (_sbrk_r)
/home/aaa/.arduino15/packages/arduino/tools/arm-none-eabi-gcc/4.8.3-2014q1/bin/../lib/gcc/arm-none-eabi/4.8.3/../../../../arm-none-eabi/lib/armv7-m/libg.a(lib_a-signal.o)
                              /home/aaa/.arduino15/packages/arduino/tools/arm-none-eabi-gcc/4.8.3-2014q1/bin/../lib/gcc/arm-none-eabi/4.8.3/../../../../arm-none-eabi/lib/armv7-m/libg.a(lib_a-abort.o) (raise)
/home/aaa/.arduino15/packages/arduino/tools/arm-none-eabi-gcc/4.8.3-2014q1/bin/../lib/gcc/arm-none-eabi/4.8.3/../../../../arm-none-eabi/lib/armv7-m/libg.a(lib_a-signalr.o)
                              /home/aaa/.arduino15/packages/arduino/tools/arm-none-eabi-gcc/4.8.3-2014q1/bin/../lib/gcc/arm-none-eabi/4.8.3/../../../../arm-none-eabi/lib/armv7-m/libg.a(lib_a-syskill.o) (_kill_r)
/home/aaa/.arduino15/packages/arduino/tools/arm-none-eabi-gcc/4.8.3-2014q1/bin/../lib/gcc/arm-none-eabi/4.8.3/../../../../arm-none-eabi/lib/armv7-m/libg.a(lib_a-stdio.o)
                              /home/aaa/.arduino15/packages/arduino/tools/arm-none-eabi-gcc/4.8.3-2014q1/bin/../lib/gcc/arm-none-eabi/4.8.3/../../../../arm-none-eabi/lib/armv7-m/libg.a(lib_a-findfp.o) (__sread)
/home/aaa/.arduino15/packages/arduino/tools/arm-none-eabi-gcc/4.8.3-2014q1/bin/../lib/gcc/arm-none-eabi/4.8.3/../../../../arm-none-eabi/lib/armv7-m/libg.a(lib_a-strcmp.o)
                              /home/aaa/.arduino15/packages/arduino/tools/arm-none-eabi-gcc/4.8.3-2014q1/bin/../lib/gcc/arm-none-eabi/4.8.3/../../../../arm-none-eabi/lib/armv7-m/libg.a(lib_a-locale.o) (strcmp)
/home/aaa/.arduino15/packages/arduino/tools/arm-none-eabi-gcc/4.8.3-2014q1/bin/../lib/gcc/arm-none-eabi/4.8.3/../../../../arm-none-eabi/lib/armv7-m/libg.a(lib_a-wbuf.o)
                              /home/aaa/.arduino15/packages/arduino/tools/arm-none-eabi-gcc/4.8.3-2014q1/bin/../lib/gcc/arm-none-eabi/4.8.3/../../../../arm-none-eabi/lib/armv7-m/libg.a(lib_a-fputwc.o) (__swbuf_r)
/home/aaa/.arduino15/packages/arduino/tools/arm-none-eabi-gcc/4.8.3-2014q1/bin/../lib/gcc/arm-none-eabi/4.8.3/../../../../arm-none-eabi/lib/armv7-m/libg.a(lib_a-wcrtomb.o)
                              /home/aaa/.arduino15/packages/arduino/tools/arm-none-eabi-gcc/4.8.3-2014q1/bin/../lib/gcc/arm-none-eabi/4.8.3/../../../../arm-none-eabi/lib/armv7-m/libg.a(lib_a-fputwc.o) (_wcrtomb_r)
/home/aaa/.arduino15/packages/arduino/tools/arm-none-eabi-gcc/4.8.3-2014q1/bin/../lib/gcc/arm-none-eabi/4.8.3/../../../../arm-none-eabi/lib/armv7-m/libg.a(lib_a-wctomb_r.o)
                              /home/aaa/.arduino15/packages/arduino/tools/arm-none-eabi-gcc/4.8.3-2014q1/bin/../lib/gcc/arm-none-eabi/4.8.3/../../../../arm-none-eabi/lib/armv7-m/libg.a(lib_a-wcrtomb.o) (__wctomb)
/home/aaa/.arduino15/packages/arduino/tools/arm-none-eabi-gcc/4.8.3-2014q1/bin/../lib/gcc/arm-none-eabi/4.8.3/../../../../arm-none-eabi/lib/armv7-m/libg.a(lib_a-writer.o)
                              /home/aaa/.arduino15/packages/arduino/tools/arm-none-eabi-gcc/4.8.3-2014q1/bin/../lib/gcc/arm-none-eabi/4.8.3/../../../../arm-none-eabi/lib/armv7-m/libg.a(lib_a-stdio.o) (_write_r)
/home/aaa/.arduino15/packages/arduino/tools/arm-none-eabi-gcc/4.8.3-2014q1/bin/../lib/gcc/arm-none-eabi/4.8.3/../../../../arm-none-eabi/lib/armv7-m/libg.a(lib_a-__atexit.o)
                              /home/aaa/.arduino15/packages/arduino/tools/arm-none-eabi-gcc/4.8.3-2014q1/bin/../lib/gcc/arm-none-eabi/4.8.3/../../../../arm-none-eabi/lib/armv7-m/libg.a(lib_a-atexit.o) (__register_exitproc)
/home/aaa/.arduino15/packages/arduino/tools/arm-none-eabi-gcc/4.8.3-2014q1/bin/../lib/gcc/arm-none-eabi/4.8.3/../../../../arm-none-eabi/lib/armv7-m/libg.a(lib_a-closer.o)
                              /home/aaa/.arduino15/packages/arduino/tools/arm-none-eabi-gcc/4.8.3-2014q1/bin/../lib/gcc/arm-none-eabi/4.8.3/../../../../arm-none-eabi/lib/armv7-m/libg.a(lib_a-stdio.o) (_close_r)
/home/aaa/.arduino15/packages/arduino/tools/arm-none-eabi-gcc/4.8.3-2014q1/bin/../lib/gcc/arm-none-eabi/4.8.3/../../../../arm-none-eabi/lib/armv7-m/libg.a(lib_a-fclose.o)
                              /home/aaa/.arduino15/packages/arduino/tools/arm-none-eabi-gcc/4.8.3-2014q1/bin/../lib/gcc/arm-none-eabi/4.8.3/../../../../arm-none-eabi/lib/armv7-m/libg.a(lib_a-findfp.o) (fclose)
/home/aaa/.arduino15/packages/arduino/tools/arm-none-eabi-gcc/4.8.3-2014q1/bin/../lib/gcc/arm-none-eabi/4.8.3/../../../../arm-none-eabi/lib/armv7-m/libg.a(lib_a-fstatr.o)
                              /home/aaa/.arduino15/packages/arduino/tools/arm-none-eabi-gcc/4.8.3-2014q1/bin/../lib/gcc/arm-none-eabi/4.8.3/../../../../arm-none-eabi/lib/armv7-m/libg.a(lib_a-makebuf.o) (_fstat_r)
/home/aaa/.arduino15/packages/arduino/tools/arm-none-eabi-gcc/4.8.3-2014q1/bin/../lib/gcc/arm-none-eabi/4.8.3/../../../../arm-none-eabi/lib/armv7-m/libg.a(lib_a-isattyr.o)
                              /home/aaa/.arduino15/packages/arduino/tools/arm-none-eabi-gcc/4.8.3-2014q1/bin/../lib/gcc/arm-none-eabi/4.8.3/../../../../arm-none-eabi/lib/armv7-m/libg.a(lib_a-makebuf.o) (_isatty_r)
/home/aaa/.arduino15/packages/arduino/tools/arm-none-eabi-gcc/4.8.3-2014q1/bin/../lib/gcc/arm-none-eabi/4.8.3/../../../../arm-none-eabi/lib/armv7-m/libg.a(lib_a-lseekr.o)
                              /home/aaa/.arduino15/packages/arduino/tools/arm-none-eabi-gcc/4.8.3-2014q1/bin/../lib/gcc/arm-none-eabi/4.8.3/../../../../arm-none-eabi/lib/armv7-m/libg.a(lib_a-stdio.o) (_lseek_r)
/home/aaa/.arduino15/packages/arduino/tools/arm-none-eabi-gcc/4.8.3-2014q1/bin/../lib/gcc/arm-none-eabi/4.8.3/../../../../arm-none-eabi/lib/armv7-m/libg.a(lib_a-readr.o)
                              /home/aaa/.arduino15/packages/arduino/tools/arm-none-eabi-gcc/4.8.3-2014q1/bin/../lib/gcc/arm-none-eabi/4.8.3/../../../../arm-none-eabi/lib/armv7-m/libg.a(lib_a-stdio.o) (_read_r)
/home/aaa/.arduino15/packages/arduino/tools/arm-none-eabi-gcc/4.8.3-2014q1/bin/../lib/gcc/arm-none-eabi/4.8.3/../../../../arm-none-eabi/lib/armv7-m/libg.a(lib_a-reent.o)
                              /home/aaa/.arduino15/packages/arduino/tools/arm-none-eabi-gcc/4.8.3-2014q1/bin/../lib/gcc/arm-none-eabi/4.8.3/../../../../arm-none-eabi/lib/armv7-m/libg.a(lib_a-sbrkr.o) (errno)
/home/aaa/.arduino15/packages/arduino/tools/arm-none-eabi-gcc/4.8.3-2014q1/bin/../lib/gcc/arm-none-eabi/4.8.3/armv7-m/libgcc.a(_aeabi_uldivmod.o)
                              /home/aaa/.arduino15/packages/arduino/tools/arm-none-eabi-gcc/4.8.3-2014q1/bin/../lib/gcc/arm-none-eabi/4.8.3/../../../../arm-none-eabi/lib/armv7-m/libg.a(lib_a-vfiprintf.o) (__aeabi_uldivmod)
/home/aaa/.arduino15/packages/arduino/tools/arm-none-eabi-gcc/4.8.3-2014q1/bin/../lib/gcc/arm-none-eabi/4.8.3/armv7-m/libgcc.a(bpabi.o)
                              /home/aaa/.arduino15/packages/arduino/tools/arm-none-eabi-gcc/4.8.3-2014q1/bin/../lib/gcc/arm-none-eabi/4.8.3/armv7-m/libgcc.a(_aeabi_uldivmod.o) (__gnu_uldivmod_helper)
/home/aaa/.arduino15/packages/arduino/tools/arm-none-eabi-gcc/4.8.3-2014q1/bin/../lib/gcc/arm-none-eabi/4.8.3/armv7-m/libgcc.a(_dvmd_tls.o)
                              /home/aaa/.arduino15/packages/arduino/tools/arm-none-eabi-gcc/4.8.3-2014q1/bin/../lib/gcc/arm-none-eabi/4.8.3/armv7-m/libgcc.a(_aeabi_uldivmod.o) (__aeabi_ldiv0)
/home/aaa/.arduino15/packages/arduino/tools/arm-none-eabi-gcc/4.8.3-2014q1/bin/../lib/gcc/arm-none-eabi/4.8.3/armv7-m/libgcc.a(_divdi3.o)
                              /home/aaa/.arduino15/packages/arduino/tools/arm-none-eabi-gcc/4.8.3-2014q1/bin/../lib/gcc/arm-none-eabi/4.8.3/armv7-m/libgcc.a(bpabi.o) (__divdi3)
/home/aaa/.arduino15/packages/arduino/tools/arm-none-eabi-gcc/4.8.3-2014q1/bin/../lib/gcc/arm-none-eabi/4.8.3/armv7-m/libgcc.a(_udivdi3.o)
                              /home/aaa/.arduino15/packages/arduino/tools/arm-none-eabi-gcc/4.8.3-2014q1/bin/../lib/gcc/arm-none-eabi/4.8.3/armv7-m/libgcc.a(bpabi.o) (__udivdi3)

Allocating common symbols
Common symbol       size              file

errno               0x4               /home/aaa/.arduino15/packages/arduino/tools/arm-none-eabi-gcc/4.8.3-2014q1/bin/../lib/gcc/arm-none-eabi/4.8.3/../../../../arm-none-eabi/lib/armv7-m/libg.a(lib_a-reent.o)

Discarded input sections

 .text          0x0000000000000000        0x0 /home/aaa/.arduino15/packages/arduino/tools/arm-none-eabi-gcc/4.8.3-2014q1/bin/../lib/gcc/arm-none-eabi/4.8.3/armv7-m/crti.o
 .data          0x0000000000000000        0x0 /home/aaa/.arduino15/packages/arduino/tools/arm-none-eabi-gcc/4.8.3-2014q1/bin/../lib/gcc/arm-none-eabi/4.8.3/armv7-m/crti.o
 .bss           0x0000000000000000        0x0 /home/aaa/.arduino15/packages/arduino/tools/arm-none-eabi-gcc/4.8.3-2014q1/bin/../lib/gcc/arm-none-eabi/4.8.3/armv7-m/crti.o
 .data          0x0000000000000000        0x4 /home/aaa/.arduino15/packages/arduino/tools/arm-none-eabi-gcc/4.8.3-2014q1/bin/../lib/gcc/arm-none-eabi/4.8.3/armv7-m/crtbegin.o
 .text          0x0000000000000000       0x74 /home/aaa/.arduino15/packages/arduino/tools/arm-none-eabi-gcc/4.8.3-2014q1/bin/../lib/gcc/arm-none-eabi/4.8.3/../../../../arm-none-eabi/lib/armv7-m/crt0.o
 .data          0x0000000000000000        0x0 /home/aaa/.arduino15/packages/arduino/tools/arm-none-eabi-gcc/4.8.3-2014q1/bin/../lib/gcc/arm-none-eabi/4.8.3/../../../../arm-none-eabi/lib/armv7-m/crt0.o
 .bss           0x0000000000000000        0x0 /home/aaa/.arduino15/packages/arduino/tools/arm-none-eabi-gcc/4.8.3-2014q1/bin/../lib/gcc/arm-none-eabi/4.8.3/../../../../arm-none-eabi/lib/armv7-m/crt0.o
 .ARM.extab     0x0000000000000000        0x0 /home/aaa/.arduino15/packages/arduino/tools/arm-none-eabi-gcc/4.8.3-2014q1/bin/../lib/gcc/arm-none-eabi/4.8.3/../../../../arm-none-eabi/lib/armv7-m/crt0.o
 .ARM.exidx     0x0000000000000000        0x8 /home/aaa/.arduino15/packages/arduino/tools/arm-none-eabi-gcc/4.8.3-2014q1/bin/../lib/gcc/arm-none-eabi/4.8.3/../../../../arm-none-eabi/lib/armv7-m/crt0.o
 .ARM.attributes
                0x0000000000000000       0x1b /home/aaa/.arduino15/packages/arduino/tools/arm-none-eabi-gcc/4.8.3-2014q1/bin/../lib/gcc/arm-none-eabi/4.8.3/../../../../arm-none-eabi/lib/armv7-m/crt0.o
 .text          0x0000000000000000        0x0 /home/aaa/.arduino15/packages/arduino/hardware/sam/1.6.12/variants/arduino_due_x/libsam_sam3x8e_gcc_rel.a(pio.o)
 .data          0x0000000000000000        0x0 /home/aaa/.arduino15/packages/arduino/hardware/sam/1.6.12/variants/arduino_due_x/libsam_sam3x8e_gcc_rel.a(pio.o)
 .bss           0x0000000000000000        0x0 /home/aaa/.arduino15/packages/arduino/hardware/sam/1.6.12/variants/arduino_due_x/libsam_sam3x8e_gcc_rel.a(pio.o)
 .text.PIO_DisableInterrupt
                0x0000000000000000        0x4 /home/aaa/.arduino15/packages/arduino/hardware/sam/1.6.12/variants/arduino_due_x/libsam_sam3x8e_gcc_rel.a(pio.o)
 .text.PIO_SetDebounceFilter
                0x0000000000000000       0x1a /home/aaa/.arduino15/packages/arduino/hardware/sam/1.6.12/variants/arduino_due_x/libsam_sam3x8e_gcc_rel.a(pio.o)
 .text.PIO_Set  0x0000000000000000        0x4 /home/aaa/.arduino15/packages/arduino/hardware/sam/1.6.12/variants/arduino_due_x/libsam_sam3x8e_gcc_rel.a(pio.o)
 .text.PIO_Clear
                0x0000000000000000        0x4 /home/aaa/.arduino15/packages/arduino/hardware/sam/1.6.12/variants/arduino_due_x/libsam_sam3x8e_gcc_rel.a(pio.o)
 .text          0x0000000000000000        0x0 /home/aaa/.arduino15/packages/arduino/hardware/sam/1.6.12/variants/arduino_due_x/libsam_sam3x8e_gcc_rel.a(pmc.o)
 .data          0x0000000000000000        0x0 /home/aaa/.arduino15/packages/arduino/hardware/sam/1.6.12/variants/arduino_due_x/libsam_sam3x8e_gcc_rel.a(pmc.o)
 .bss           0x0000000000000000        0x0 /home/aaa/.arduino15/packages/arduino/hardware/sam/1.6.12/variants/arduino_due_x/libsam_sam3x8e_gcc_rel.a(pmc.o)
 .text.pmc_mck_set_prescaler
                0x0000000000000000       0x18 /home/aaa/.arduino15/packages/arduino/hardware/sam/1.6.12/variants/arduino_due_x/libsam_sam3x8e_gcc_rel.a(pmc.o)
 .text.pmc_mck_set_source
                0x0000000000000000       0x18 /home/aaa/.arduino15/packages/arduino/hardware/sam/1.6.12/variants/arduino_due_x/libsam_sam3x8e_gcc_rel.a(pmc.o)
 .text.pmc_switch_mck_to_sclk
                0x0000000000000000       0x44 /home/aaa/.arduino15/packages/arduino/hardware/sam/1.6.12/variants/arduino_due_x/libsam_sam3x8e_gcc_rel.a(pmc.o)
 .text.pmc_switch_mck_to_mainck
                0x0000000000000000       0x48 /home/aaa/.arduino15/packages/arduino/hardware/sam/1.6.12/variants/arduino_due_x/libsam_sam3x8e_gcc_rel.a(pmc.o)
 .text.pmc_switch_mck_to_pllack
                0x0000000000000000       0x44 /home/aaa/.arduino15/packages/arduino/hardware/sam/1.6.12/variants/arduino_due_x/libsam_sam3x8e_gcc_rel.a(pmc.o)
 .text.pmc_switch_mck_to_upllck
                0x0000000000000000       0x40 /home/aaa/.arduino15/packages/arduino/hardware/sam/1.6.12/variants/arduino_due_x/libsam_sam3x8e_gcc_rel.a(pmc.o)
 .text.pmc_switch_sclk_to_32kxtal
                0x0000000000000000       0x24 /home/aaa/.arduino15/packages/arduino/hardware/sam/1.6.12/variants/arduino_due_x/libsam_sam3x8e_gcc_rel.a(pmc.o)
 .text.pmc_osc_is_ready_32kxtal
                0x0000000000000000       0x1c /home/aaa/.arduino15/packages/arduino/hardware/sam/1.6.12/variants/arduino_due_x/libsam_sam3x8e_gcc_rel.a(pmc.o)
 .text.pmc_switch_mainck_to_fastrc
                0x0000000000000000       0x6c /home/aaa/.arduino15/packages/arduino/hardware/sam/1.6.12/variants/arduino_due_x/libsam_sam3x8e_gcc_rel.a(pmc.o)
 .text.pmc_osc_enable_fastrc
                0x0000000000000000       0x18 /home/aaa/.arduino15/packages/arduino/hardware/sam/1.6.12/variants/arduino_due_x/libsam_sam3x8e_gcc_rel.a(pmc.o)
 .text.pmc_osc_disable_fastrc
                0x0000000000000000       0x18 /home/aaa/.arduino15/packages/arduino/hardware/sam/1.6.12/variants/arduino_due_x/libsam_sam3x8e_gcc_rel.a(pmc.o)
 .text.pmc_switch_mainck_to_xtal
                0x0000000000000000       0x48 /home/aaa/.arduino15/packages/arduino/hardware/sam/1.6.12/variants/arduino_due_x/libsam_sam3x8e_gcc_rel.a(pmc.o)
 .text.pmc_osc_disable_xtal
                0x0000000000000000       0x20 /home/aaa/.arduino15/packages/arduino/hardware/sam/1.6.12/variants/arduino_due_x/libsam_sam3x8e_gcc_rel.a(pmc.o)
 .text.pmc_osc_is_ready_mainck
                0x0000000000000000       0x10 /home/aaa/.arduino15/packages/arduino/hardware/sam/1.6.12/variants/arduino_due_x/libsam_sam3x8e_gcc_rel.a(pmc.o)
 .text.pmc_enable_pllack
                0x0000000000000000       0x34 /home/aaa/.arduino15/packages/arduino/hardware/sam/1.6.12/variants/arduino_due_x/libsam_sam3x8e_gcc_rel.a(pmc.o)
 .text.pmc_disable_pllack
                0x0000000000000000       0x10 /home/aaa/.arduino15/packages/arduino/hardware/sam/1.6.12/variants/arduino_due_x/libsam_sam3x8e_gcc_rel.a(pmc.o)
 .text.pmc_is_locked_pllack
                0x0000000000000000       0x10 /home/aaa/.arduino15/packages/arduino/hardware/sam/1.6.12/variants/arduino_due_x/libsam_sam3x8e_gcc_rel.a(pmc.o)
 .text.pmc_disable_upll_clock
                0x0000000000000000       0x10 /home/aaa/.arduino15/packages/arduino/hardware/sam/1.6.12/variants/arduino_due_x/libsam_sam3x8e_gcc_rel.a(pmc.o)
 .text.pmc_is_locked_upll
                0x0000000000000000       0x10 /home/aaa/.arduino15/packages/arduino/hardware/sam/1.6.12/variants/arduino_due_x/libsam_sam3x8e_gcc_rel.a(pmc.o)
 .text.pmc_enable_all_periph_clk
                0x0000000000000000       0x2c /home/aaa/.arduino15/packages/arduino/hardware/sam/1.6.12/variants/arduino_due_x/libsam_sam3x8e_gcc_rel.a(pmc.o)
 .text.pmc_disable_all_periph_clk
                0x0000000000000000       0x28 /home/aaa/.arduino15/packages/arduino/hardware/sam/1.6.12/variants/arduino_due_x/libsam_sam3x8e_gcc_rel.a(pmc.o)
 .text.pmc_is_periph_clk_enabled
                0x0000000000000000       0x34 /home/aaa/.arduino15/packages/arduino/hardware/sam/1.6.12/variants/arduino_due_x/libsam_sam3x8e_gcc_rel.a(pmc.o)
 .text.pmc_pck_set_prescaler
                0x0000000000000000       0x2c /home/aaa/.arduino15/packages/arduino/hardware/sam/1.6.12/variants/arduino_due_x/libsam_sam3x8e_gcc_rel.a(pmc.o)
 .text.pmc_pck_set_source
                0x0000000000000000       0x2c /home/aaa/.arduino15/packages/arduino/hardware/sam/1.6.12/variants/arduino_due_x/libsam_sam3x8e_gcc_rel.a(pmc.o)
 .text.pmc_switch_pck_to_sclk
                0x0000000000000000       0x2c /home/aaa/.arduino15/packages/arduino/hardware/sam/1.6.12/variants/arduino_due_x/libsam_sam3x8e_gcc_rel.a(pmc.o)
 .text.pmc_switch_pck_to_mainck
                0x0000000000000000       0x30 /home/aaa/.arduino15/packages/arduino/hardware/sam/1.6.12/variants/arduino_due_x/libsam_sam3x8e_gcc_rel.a(pmc.o)
 .text.pmc_switch_pck_to_pllack
                0x0000000000000000       0x30 /home/aaa/.arduino15/packages/arduino/hardware/sam/1.6.12/variants/arduino_due_x/libsam_sam3x8e_gcc_rel.a(pmc.o)
 .text.pmc_switch_pck_to_upllck
                0x0000000000000000       0x30 /home/aaa/.arduino15/packages/arduino/hardware/sam/1.6.12/variants/arduino_due_x/libsam_sam3x8e_gcc_rel.a(pmc.o)
 .text.pmc_enable_pck
                0x0000000000000000       0x14 /home/aaa/.arduino15/packages/arduino/hardware/sam/1.6.12/variants/arduino_due_x/libsam_sam3x8e_gcc_rel.a(pmc.o)
 .text.pmc_disable_pck
                0x0000000000000000       0x14 /home/aaa/.arduino15/packages/arduino/hardware/sam/1.6.12/variants/arduino_due_x/libsam_sam3x8e_gcc_rel.a(pmc.o)
 .text.pmc_enable_all_pck
                0x0000000000000000       0x10 /home/aaa/.arduino15/packages/arduino/hardware/sam/1.6.12/variants/arduino_due_x/libsam_sam3x8e_gcc_rel.a(pmc.o)
 .text.pmc_disable_all_pck
                0x0000000000000000       0x10 /home/aaa/.arduino15/packages/arduino/hardware/sam/1.6.12/variants/arduino_due_x/libsam_sam3x8e_gcc_rel.a(pmc.o)
 .text.pmc_is_pck_enabled
                0x0000000000000000       0x1c /home/aaa/.arduino15/packages/arduino/hardware/sam/1.6.12/variants/arduino_due_x/libsam_sam3x8e_gcc_rel.a(pmc.o)
 .text.pmc_switch_udpck_to_pllack
                0x0000000000000000       0x10 /home/aaa/.arduino15/packages/arduino/hardware/sam/1.6.12/variants/arduino_due_x/libsam_sam3x8e_gcc_rel.a(pmc.o)
 .text.pmc_disable_udpck
                0x0000000000000000        0xc /home/aaa/.arduino15/packages/arduino/hardware/sam/1.6.12/variants/arduino_due_x/libsam_sam3x8e_gcc_rel.a(pmc.o)
 .text.pmc_enable_interrupt
                0x0000000000000000        0xc /home/aaa/.arduino15/packages/arduino/hardware/sam/1.6.12/variants/arduino_due_x/libsam_sam3x8e_gcc_rel.a(pmc.o)
 .text.pmc_disable_interrupt
                0x0000000000000000        0xc /home/aaa/.arduino15/packages/arduino/hardware/sam/1.6.12/variants/arduino_due_x/libsam_sam3x8e_gcc_rel.a(pmc.o)
 .text.pmc_get_interrupt_mask
                0x0000000000000000        0xc /home/aaa/.arduino15/packages/arduino/hardware/sam/1.6.12/variants/arduino_due_x/libsam_sam3x8e_gcc_rel.a(pmc.o)
 .text.pmc_get_status
                0x0000000000000000        0xc /home/aaa/.arduino15/packages/arduino/hardware/sam/1.6.12/variants/arduino_due_x/libsam_sam3x8e_gcc_rel.a(pmc.o)
 .text.pmc_set_fast_startup_input
                0x0000000000000000       0x14 /home/aaa/.arduino15/packages/arduino/hardware/sam/1.6.12/variants/arduino_due_x/libsam_sam3x8e_gcc_rel.a(pmc.o)
 .text.pmc_clr_fast_startup_input
                0x0000000000000000       0x14 /home/aaa/.arduino15/packages/arduino/hardware/sam/1.6.12/variants/arduino_due_x/libsam_sam3x8e_gcc_rel.a(pmc.o)
 .text.pmc_enable_sleepmode
                0x0000000000000000       0x28 /home/aaa/.arduino15/packages/arduino/hardware/sam/1.6.12/variants/arduino_due_x/libsam_sam3x8e_gcc_rel.a(pmc.o)
 .text.pmc_enable_waitmode
                0x0000000000000000       0x34 /home/aaa/.arduino15/packages/arduino/hardware/sam/1.6.12/variants/arduino_due_x/libsam_sam3x8e_gcc_rel.a(pmc.o)
 .text.pmc_enable_backupmode
                0x0000000000000000       0x14 /home/aaa/.arduino15/packages/arduino/hardware/sam/1.6.12/variants/arduino_due_x/libsam_sam3x8e_gcc_rel.a(pmc.o)
 .text.pmc_set_writeprotect
                0x0000000000000000       0x1c /home/aaa/.arduino15/packages/arduino/hardware/sam/1.6.12/variants/arduino_due_x/libsam_sam3x8e_gcc_rel.a(pmc.o)
 .text.pmc_get_writeprotect_status
                0x0000000000000000       0x10 /home/aaa/.arduino15/packages/arduino/hardware/sam/1.6.12/variants/arduino_due_x/libsam_sam3x8e_gcc_rel.a(pmc.o)
 .text          0x0000000000000000        0x0 /home/aaa/.arduino15/packages/arduino/hardware/sam/1.6.12/variants/arduino_due_x/libsam_sam3x8e_gcc_rel.a(system_sam3xa.o)
 .data          0x0000000000000000        0x0 /home/aaa/.arduino15/packages/arduino/hardware/sam/1.6.12/variants/arduino_due_x/libsam_sam3x8e_gcc_rel.a(system_sam3xa.o)
 .bss           0x0000000000000000        0x0 /home/aaa/.arduino15/packages/arduino/hardware/sam/1.6.12/variants/arduino_due_x/libsam_sam3x8e_gcc_rel.a(system_sam3xa.o)
 .text.SystemCoreClockUpdate
                0x0000000000000000       0xd0 /home/aaa/.arduino15/packages/arduino/hardware/sam/1.6.12/variants/arduino_due_x/libsam_sam3x8e_gcc_rel.a(system_sam3xa.o)
 .text.system_init_flash
                0x0000000000000000       0x54 /home/aaa/.arduino15/packages/arduino/hardware/sam/1.6.12/variants/arduino_due_x/libsam_sam3x8e_gcc_rel.a(system_sam3xa.o)
 .text          0x0000000000000000        0x0 /home/aaa/.arduino15/packages/arduino/hardware/sam/1.6.12/variants/arduino_due_x/libsam_sam3x8e_gcc_rel.a(startup_sam3xa.o)
 .data          0x0000000000000000        0x0 /home/aaa/.arduino15/packages/arduino/hardware/sam/1.6.12/variants/arduino_due_x/libsam_sam3x8e_gcc_rel.a(startup_sam3xa.o)
 .bss           0x0000000000000000        0x0 /home/aaa/.arduino15/packages/arduino/hardware/sam/1.6.12/variants/arduino_due_x/libsam_sam3x8e_gcc_rel.a(startup_sam3xa.o)
 .text          0x0000000000000000        0x0 /home/aaa/.arduino15/packages/arduino/hardware/sam/1.6.12/variants/arduino_due_x/libsam_sam3x8e_gcc_rel.a(adc.o)
 .data          0x0000000000000000        0x0 /home/aaa/.arduino15/packages/arduino/hardware/sam/1.6.12/variants/arduino_due_x/libsam_sam3x8e_gcc_rel.a(adc.o)
 .bss           0x0000000000000000        0x0 /home/aaa/.arduino15/packages/arduino/hardware/sam/1.6.12/variants/arduino_due_x/libsam_sam3x8e_gcc_rel.a(adc.o)
 .text.adc_set_resolution
                0x0000000000000000        0xe /home/aaa/.arduino15/packages/arduino/hardware/sam/1.6.12/variants/arduino_due_x/libsam_sam3x8e_gcc_rel.a(adc.o)
 .text.adc_configure_power_save
                0x0000000000000000       0x16 /home/aaa/.arduino15/packages/arduino/hardware/sam/1.6.12/variants/arduino_due_x/libsam_sam3x8e_gcc_rel.a(adc.o)
 .text.adc_configure_sequence
                0x0000000000000000       0x5a /home/aaa/.arduino15/packages/arduino/hardware/sam/1.6.12/variants/arduino_due_x/libsam_sam3x8e_gcc_rel.a(adc.o)
 .text.adc_enable_anch
                0x0000000000000000        0xa /home/aaa/.arduino15/packages/arduino/hardware/sam/1.6.12/variants/arduino_due_x/libsam_sam3x8e_gcc_rel.a(adc.o)
 .text.adc_disable_anch
                0x0000000000000000        0xa /home/aaa/.arduino15/packages/arduino/hardware/sam/1.6.12/variants/arduino_due_x/libsam_sam3x8e_gcc_rel.a(adc.o)
 .text.adc_stop
                0x0000000000000000        0x6 /home/aaa/.arduino15/packages/arduino/hardware/sam/1.6.12/variants/arduino_due_x/libsam_sam3x8e_gcc_rel.a(adc.o)
 .text.adc_enable_all_channel
                0x0000000000000000        0x8 /home/aaa/.arduino15/packages/arduino/hardware/sam/1.6.12/variants/arduino_due_x/libsam_sam3x8e_gcc_rel.a(adc.o)
 .text.adc_get_channel_value
                0x0000000000000000        0xe /home/aaa/.arduino15/packages/arduino/hardware/sam/1.6.12/variants/arduino_due_x/libsam_sam3x8e_gcc_rel.a(adc.o)
 .text.adc_enable_tag
                0x0000000000000000        0xa /home/aaa/.arduino15/packages/arduino/hardware/sam/1.6.12/variants/arduino_due_x/libsam_sam3x8e_gcc_rel.a(adc.o)
 .text.adc_disable_tag
                0x0000000000000000        0xa /home/aaa/.arduino15/packages/arduino/hardware/sam/1.6.12/variants/arduino_due_x/libsam_sam3x8e_gcc_rel.a(adc.o)
 .text.adc_get_tag
                0x0000000000000000        0x8 /home/aaa/.arduino15/packages/arduino/hardware/sam/1.6.12/variants/arduino_due_x/libsam_sam3x8e_gcc_rel.a(adc.o)
 .text.adc_start_sequencer
                0x0000000000000000        0xa /home/aaa/.arduino15/packages/arduino/hardware/sam/1.6.12/variants/arduino_due_x/libsam_sam3x8e_gcc_rel.a(adc.o)
 .text.adc_stop_sequencer
                0x0000000000000000        0xa /home/aaa/.arduino15/packages/arduino/hardware/sam/1.6.12/variants/arduino_due_x/libsam_sam3x8e_gcc_rel.a(adc.o)
 .text.adc_set_comparison_mode
                0x0000000000000000       0x14 /home/aaa/.arduino15/packages/arduino/hardware/sam/1.6.12/variants/arduino_due_x/libsam_sam3x8e_gcc_rel.a(adc.o)
 .text.adc_get_comparison_mode
                0x0000000000000000        0x8 /home/aaa/.arduino15/packages/arduino/hardware/sam/1.6.12/variants/arduino_due_x/libsam_sam3x8e_gcc_rel.a(adc.o)
 .text.adc_set_comparison_window
                0x0000000000000000       0x18 /home/aaa/.arduino15/packages/arduino/hardware/sam/1.6.12/variants/arduino_due_x/libsam_sam3x8e_gcc_rel.a(adc.o)
 .text.adc_set_comparison_channel
                0x0000000000000000       0x26 /home/aaa/.arduino15/packages/arduino/hardware/sam/1.6.12/variants/arduino_due_x/libsam_sam3x8e_gcc_rel.a(adc.o)
 .text.adc_enable_channel_differential_input
                0x0000000000000000       0x10 /home/aaa/.arduino15/packages/arduino/hardware/sam/1.6.12/variants/arduino_due_x/libsam_sam3x8e_gcc_rel.a(adc.o)
 .text.adc_disable_channel_differential_input
                0x0000000000000000       0x1a /home/aaa/.arduino15/packages/arduino/hardware/sam/1.6.12/variants/arduino_due_x/libsam_sam3x8e_gcc_rel.a(adc.o)
 .text.adc_enable_channel_input_offset
                0x0000000000000000        0xe /home/aaa/.arduino15/packages/arduino/hardware/sam/1.6.12/variants/arduino_due_x/libsam_sam3x8e_gcc_rel.a(adc.o)
 .text.adc_disable_channel_input_offset
                0x0000000000000000       0x1a /home/aaa/.arduino15/packages/arduino/hardware/sam/1.6.12/variants/arduino_due_x/libsam_sam3x8e_gcc_rel.a(adc.o)
 .text.adc_set_channel_input_gain
                0x0000000000000000       0x12 /home/aaa/.arduino15/packages/arduino/hardware/sam/1.6.12/variants/arduino_due_x/libsam_sam3x8e_gcc_rel.a(adc.o)
 .text.adc_get_actual_adc_clock
                0x0000000000000000       0x10 /home/aaa/.arduino15/packages/arduino/hardware/sam/1.6.12/variants/arduino_due_x/libsam_sam3x8e_gcc_rel.a(adc.o)
 .text.adc_enable_interrupt
                0x0000000000000000        0x4 /home/aaa/.arduino15/packages/arduino/hardware/sam/1.6.12/variants/arduino_due_x/libsam_sam3x8e_gcc_rel.a(adc.o)
 .text.adc_get_overrun_status
                0x0000000000000000        0x4 /home/aaa/.arduino15/packages/arduino/hardware/sam/1.6.12/variants/arduino_due_x/libsam_sam3x8e_gcc_rel.a(adc.o)
 .text.adc_get_interrupt_mask
                0x0000000000000000        0x4 /home/aaa/.arduino15/packages/arduino/hardware/sam/1.6.12/variants/arduino_due_x/libsam_sam3x8e_gcc_rel.a(adc.o)
 .text.adc_set_bias_current
                0x0000000000000000       0x12 /home/aaa/.arduino15/packages/arduino/hardware/sam/1.6.12/variants/arduino_due_x/libsam_sam3x8e_gcc_rel.a(adc.o)
 .text.adc_enable_ts
                0x0000000000000000        0xe /home/aaa/.arduino15/packages/arduino/hardware/sam/1.6.12/variants/arduino_due_x/libsam_sam3x8e_gcc_rel.a(adc.o)
 .text.adc_disable_ts
                0x0000000000000000        0xe /home/aaa/.arduino15/packages/arduino/hardware/sam/1.6.12/variants/arduino_due_x/libsam_sam3x8e_gcc_rel.a(adc.o)
 .text.adc_set_writeprotect
                0x0000000000000000        0xe /home/aaa/.arduino15/packages/arduino/hardware/sam/1.6.12/variants/arduino_due_x/libsam_sam3x8e_gcc_rel.a(adc.o)
 .text.adc_get_writeprotect_status
                0x0000000000000000        0xa /home/aaa/.arduino15/packages/arduino/hardware/sam/1.6.12/variants/arduino_due_x/libsam_sam3x8e_gcc_rel.a(adc.o)
 .text.adc_get_pdc_base
                0x0000000000000000        0x8 /home/aaa/.arduino15/packages/arduino/hardware/sam/1.6.12/variants/arduino_due_x/libsam_sam3x8e_gcc_rel.a(adc.o)
 .text          0x0000000000000000        0x0 /home/aaa/.arduino15/packages/arduino/hardware/sam/1.6.12/variants/arduino_due_x/libsam_sam3x8e_gcc_rel.a(uotghs.o)
 .data          0x0000000000000000        0x0 /home/aaa/.arduino15/packages/arduino/hardware/sam/1.6.12/variants/arduino_due_x/libsam_sam3x8e_gcc_rel.a(uotghs.o)
 .bss           0x0000000000000000        0x0 /home/aaa/.arduino15/packages/arduino/hardware/sam/1.6.12/variants/arduino_due_x/libsam_sam3x8e_gcc_rel.a(uotghs.o)
 .group         0x0000000000000000        0xc /home/aaa/llvm-arduino-due/build/core.a(Print.cpp.o)
 .group         0x0000000000000000        0xc /home/aaa/llvm-arduino-due/build/core.a(Print.cpp.o)
 .group         0x0000000000000000        0xc /home/aaa/llvm-arduino-due/build/core.a(Print.cpp.o)
 .group         0x0000000000000000        0xc /home/aaa/llvm-arduino-due/build/core.a(Print.cpp.o)
 .group         0x0000000000000000        0xc /home/aaa/llvm-arduino-due/build/core.a(USARTClass.cpp.o)
 .group         0x0000000000000000        0xc /home/aaa/llvm-arduino-due/build/core.a(USARTClass.cpp.o)
 .group         0x0000000000000000        0x8 /home/aaa/llvm-arduino-due/build/core.a(USARTClass.cpp.o)
 .group         0x0000000000000000        0xc /home/aaa/llvm-arduino-due/build/core.a(USBCore.cpp.o)
 .group         0x0000000000000000        0xc /home/aaa/llvm-arduino-due/build/core.a(USBCore.cpp.o)
 .group         0x0000000000000000        0xc /home/aaa/llvm-arduino-due/build/core.a(CDC.cpp.o)
 .group         0x0000000000000000        0xc /home/aaa/llvm-arduino-due/build/core.a(CDC.cpp.o)
 .group         0x0000000000000000        0xc /home/aaa/llvm-arduino-due/build/core.a(CDC.cpp.o)
 .group         0x0000000000000000        0xc /home/aaa/llvm-arduino-due/build/core.a(CDC.cpp.o)
 .group         0x0000000000000000        0x8 /home/aaa/llvm-arduino-due/build/core.a(CDC.cpp.o)
 .group         0x0000000000000000        0xc /home/aaa/llvm-arduino-due/build/core.a(UARTClass.cpp.o)
 .group         0x0000000000000000        0xc /home/aaa/llvm-arduino-due/build/core.a(UARTClass.cpp.o)
 .text._ZN14HardwareSerial5beginEm
                0x0000000000000000       0x4c /home/aaa/llvm-arduino-due/build/core.a(UARTClass.cpp.o)
 .ARM.exidx.text._ZN14HardwareSerial5beginEm
                0x0000000000000000        0x8 /home/aaa/llvm-arduino-due/build/core.a(UARTClass.cpp.o)
 .group         0x0000000000000000        0xc /home/aaa/llvm-arduino-due/build/core.a(UARTClass.cpp.o)
 .text._ZN9UARTClasscvbEv
                0x0000000000000000       0x4c /home/aaa/llvm-arduino-due/build/core.a(UARTClass.cpp.o)
 .ARM.exidx.text._ZN9UARTClasscvbEv
                0x0000000000000000        0x8 /home/aaa/llvm-arduino-due/build/core.a(UARTClass.cpp.o)
 .group         0x0000000000000000        0xc /home/aaa/llvm-arduino-due/build/core.a(UARTClass.cpp.o)
 .text._ZN6StreamC2Ev
                0x0000000000000000       0x64 /home/aaa/llvm-arduino-due/build/core.a(UARTClass.cpp.o)
 .ARM.exidx.text._ZN6StreamC2Ev
                0x0000000000000000        0x8 /home/aaa/llvm-arduino-due/build/core.a(UARTClass.cpp.o)
 .group         0x0000000000000000        0xc /home/aaa/llvm-arduino-due/build/core.a(UARTClass.cpp.o)
 .group         0x0000000000000000        0xc /home/aaa/llvm-arduino-due/build/core.a(UARTClass.cpp.o)
 .text._ZN5PrintC2Ev
                0x0000000000000000       0x5c /home/aaa/llvm-arduino-due/build/core.a(UARTClass.cpp.o)
 .ARM.exidx.text._ZN5PrintC2Ev
                0x0000000000000000        0x8 /home/aaa/llvm-arduino-due/build/core.a(UARTClass.cpp.o)
 .group         0x0000000000000000        0x8 /home/aaa/llvm-arduino-due/build/core.a(UARTClass.cpp.o)
 .group         0x0000000000000000        0x8 /home/aaa/llvm-arduino-due/build/core.a(UARTClass.cpp.o)
 .rodata._ZTV6Stream
                0x0000000000000000       0x20 /home/aaa/llvm-arduino-due/build/core.a(UARTClass.cpp.o)
 .text          0x0000000000000000        0x0 /home/aaa/.arduino15/packages/arduino/hardware/sam/1.6.12/variants/arduino_due_x/libsam_sam3x8e_gcc_rel.a(pwmc.o)
 .data          0x0000000000000000        0x0 /home/aaa/.arduino15/packages/arduino/hardware/sam/1.6.12/variants/arduino_due_x/libsam_sam3x8e_gcc_rel.a(pwmc.o)
 .bss           0x0000000000000000        0x0 /home/aaa/.arduino15/packages/arduino/hardware/sam/1.6.12/variants/arduino_due_x/libsam_sam3x8e_gcc_rel.a(pwmc.o)
 .text.PWMC_ConfigureChannelExt
                0x0000000000000000       0xcc /home/aaa/.arduino15/packages/arduino/hardware/sam/1.6.12/variants/arduino_due_x/libsam_sam3x8e_gcc_rel.a(pwmc.o)
 .text.PWMC_SetDeadTime
                0x0000000000000000       0x60 /home/aaa/.arduino15/packages/arduino/hardware/sam/1.6.12/variants/arduino_due_x/libsam_sam3x8e_gcc_rel.a(pwmc.o)
 .text.PWMC_ConfigureSyncChannel
                0x0000000000000000        0xe /home/aaa/.arduino15/packages/arduino/hardware/sam/1.6.12/variants/arduino_due_x/libsam_sam3x8e_gcc_rel.a(pwmc.o)
 .text.PWMC_SetSyncChannelUpdatePeriod
                0x0000000000000000        0xc /home/aaa/.arduino15/packages/arduino/hardware/sam/1.6.12/variants/arduino_due_x/libsam_sam3x8e_gcc_rel.a(pwmc.o)
 .text.PWMC_SetSyncChannelUpdateUnlock
                0x0000000000000000        0x6 /home/aaa/.arduino15/packages/arduino/hardware/sam/1.6.12/variants/arduino_due_x/libsam_sam3x8e_gcc_rel.a(pwmc.o)
 .text.PWMC_DisableChannel
                0x0000000000000000        0xa /home/aaa/.arduino15/packages/arduino/hardware/sam/1.6.12/variants/arduino_due_x/libsam_sam3x8e_gcc_rel.a(pwmc.o)
 .text.PWMC_EnableChannelIt
                0x0000000000000000        0xa /home/aaa/.arduino15/packages/arduino/hardware/sam/1.6.12/variants/arduino_due_x/libsam_sam3x8e_gcc_rel.a(pwmc.o)
 .text.PWMC_DisableChannelIt
                0x0000000000000000        0xa /home/aaa/.arduino15/packages/arduino/hardware/sam/1.6.12/variants/arduino_due_x/libsam_sam3x8e_gcc_rel.a(pwmc.o)
 .text.PWMC_EnableIt
                0x0000000000000000        0x6 /home/aaa/.arduino15/packages/arduino/hardware/sam/1.6.12/variants/arduino_due_x/libsam_sam3x8e_gcc_rel.a(pwmc.o)
 .text.PWMC_DisableIt
                0x0000000000000000        0x6 /home/aaa/.arduino15/packages/arduino/hardware/sam/1.6.12/variants/arduino_due_x/libsam_sam3x8e_gcc_rel.a(pwmc.o)
 .text.PWMC_WriteBuffer
                0x0000000000000000       0x2e /home/aaa/.arduino15/packages/arduino/hardware/sam/1.6.12/variants/arduino_due_x/libsam_sam3x8e_gcc_rel.a(pwmc.o)
 .text.PWMC_SetOverrideValue
                0x0000000000000000        0x4 /home/aaa/.arduino15/packages/arduino/hardware/sam/1.6.12/variants/arduino_due_x/libsam_sam3x8e_gcc_rel.a(pwmc.o)
 .text.PWMC_EnableOverrideOutput
                0x0000000000000000        0xa /home/aaa/.arduino15/packages/arduino/hardware/sam/1.6.12/variants/arduino_due_x/libsam_sam3x8e_gcc_rel.a(pwmc.o)
 .text.PWMC_DisableOverrideOutput
                0x0000000000000000        0xa /home/aaa/.arduino15/packages/arduino/hardware/sam/1.6.12/variants/arduino_due_x/libsam_sam3x8e_gcc_rel.a(pwmc.o)
 .text.PWMC_SetFaultMode
                0x0000000000000000        0x4 /home/aaa/.arduino15/packages/arduino/hardware/sam/1.6.12/variants/arduino_due_x/libsam_sam3x8e_gcc_rel.a(pwmc.o)
 .text.PWMC_FaultClear
                0x0000000000000000        0x4 /home/aaa/.arduino15/packages/arduino/hardware/sam/1.6.12/variants/arduino_due_x/libsam_sam3x8e_gcc_rel.a(pwmc.o)
 .text.PWMC_SetFaultProtectionValue
                0x0000000000000000        0x4 /home/aaa/.arduino15/packages/arduino/hardware/sam/1.6.12/variants/arduino_due_x/libsam_sam3x8e_gcc_rel.a(pwmc.o)
 .text.PWMC_EnableFaultProtection
                0x0000000000000000       0x34 /home/aaa/.arduino15/packages/arduino/hardware/sam/1.6.12/variants/arduino_due_x/libsam_sam3x8e_gcc_rel.a(pwmc.o)
 .text.PWMC_ConfigureComparisonUnit
                0x0000000000000000       0x4c /home/aaa/.arduino15/packages/arduino/hardware/sam/1.6.12/variants/arduino_due_x/libsam_sam3x8e_gcc_rel.a(pwmc.o)
 .text.PWMC_ConfigureEventLineMode
                0x0000000000000000       0x30 /home/aaa/.arduino15/packages/arduino/hardware/sam/1.6.12/variants/arduino_due_x/libsam_sam3x8e_gcc_rel.a(pwmc.o)
 .rodata.__func__.6932
                0x0000000000000000       0x1d /home/aaa/.arduino15/packages/arduino/hardware/sam/1.6.12/variants/arduino_due_x/libsam_sam3x8e_gcc_rel.a(pwmc.o)
 .rodata.__func__.6819
                0x0000000000000000       0x19 /home/aaa/.arduino15/packages/arduino/hardware/sam/1.6.12/variants/arduino_due_x/libsam_sam3x8e_gcc_rel.a(pwmc.o)
 .rodata.__func__.6938
                0x0000000000000000       0x1c /home/aaa/.arduino15/packages/arduino/hardware/sam/1.6.12/variants/arduino_due_x/libsam_sam3x8e_gcc_rel.a(pwmc.o)
 .rodata.__func__.6848
                0x0000000000000000       0x11 /home/aaa/.arduino15/packages/arduino/hardware/sam/1.6.12/variants/arduino_due_x/libsam_sam3x8e_gcc_rel.a(pwmc.o)
 .text          0x0000000000000000        0x0 /home/aaa/.arduino15/packages/arduino/hardware/sam/1.6.12/variants/arduino_due_x/libsam_sam3x8e_gcc_rel.a(tc.o)
 .data          0x0000000000000000        0x0 /home/aaa/.arduino15/packages/arduino/hardware/sam/1.6.12/variants/arduino_due_x/libsam_sam3x8e_gcc_rel.a(tc.o)
 .bss           0x0000000000000000        0x0 /home/aaa/.arduino15/packages/arduino/hardware/sam/1.6.12/variants/arduino_due_x/libsam_sam3x8e_gcc_rel.a(tc.o)
 .text.TC_Stop  0x0000000000000000       0x2c /home/aaa/.arduino15/packages/arduino/hardware/sam/1.6.12/variants/arduino_due_x/libsam_sam3x8e_gcc_rel.a(tc.o)
 .text.TC_FindMckDivisor
                0x0000000000000000       0x6a /home/aaa/.arduino15/packages/arduino/hardware/sam/1.6.12/variants/arduino_due_x/libsam_sam3x8e_gcc_rel.a(tc.o)
 .text.TC_ReadCV
                0x0000000000000000        0x8 /home/aaa/.arduino15/packages/arduino/hardware/sam/1.6.12/variants/arduino_due_x/libsam_sam3x8e_gcc_rel.a(tc.o)
 .text.TC_GetStatus
                0x0000000000000000        0x8 /home/aaa/.arduino15/packages/arduino/hardware/sam/1.6.12/variants/arduino_due_x/libsam_sam3x8e_gcc_rel.a(tc.o)
 .rodata.__func__.6804
                0x0000000000000000        0x8 /home/aaa/.arduino15/packages/arduino/hardware/sam/1.6.12/variants/arduino_due_x/libsam_sam3x8e_gcc_rel.a(tc.o)
 .text          0x0000000000000000        0x0 /home/aaa/.arduino15/packages/arduino/hardware/sam/1.6.12/variants/arduino_due_x/libsam_sam3x8e_gcc_rel.a(timetick.o)
 .data          0x0000000000000000        0x0 /home/aaa/.arduino15/packages/arduino/hardware/sam/1.6.12/variants/arduino_due_x/libsam_sam3x8e_gcc_rel.a(timetick.o)
 .bss           0x0000000000000000        0x0 /home/aaa/.arduino15/packages/arduino/hardware/sam/1.6.12/variants/arduino_due_x/libsam_sam3x8e_gcc_rel.a(timetick.o)
 .text.TimeTick_Configure
                0x0000000000000000       0x34 /home/aaa/.arduino15/packages/arduino/hardware/sam/1.6.12/variants/arduino_due_x/libsam_sam3x8e_gcc_rel.a(timetick.o)
 .text.Wait     0x0000000000000000       0x1c /home/aaa/.arduino15/packages/arduino/hardware/sam/1.6.12/variants/arduino_due_x/libsam_sam3x8e_gcc_rel.a(timetick.o)
 .text.Sleep    0x0000000000000000       0x20 /home/aaa/.arduino15/packages/arduino/hardware/sam/1.6.12/variants/arduino_due_x/libsam_sam3x8e_gcc_rel.a(timetick.o)
 .text          0x0000000000000000        0x0 /home/aaa/.arduino15/packages/arduino/hardware/sam/1.6.12/variants/arduino_due_x/libsam_sam3x8e_gcc_rel.a(wdt.o)
 .data          0x0000000000000000        0x0 /home/aaa/.arduino15/packages/arduino/hardware/sam/1.6.12/variants/arduino_due_x/libsam_sam3x8e_gcc_rel.a(wdt.o)
 .bss           0x0000000000000000        0x0 /home/aaa/.arduino15/packages/arduino/hardware/sam/1.6.12/variants/arduino_due_x/libsam_sam3x8e_gcc_rel.a(wdt.o)
 .text.WDT_GetStatus
                0x0000000000000000        0x8 /home/aaa/.arduino15/packages/arduino/hardware/sam/1.6.12/variants/arduino_due_x/libsam_sam3x8e_gcc_rel.a(wdt.o)
 .text.WDT_GetPeriod
                0x0000000000000000       0x18 /home/aaa/.arduino15/packages/arduino/hardware/sam/1.6.12/variants/arduino_due_x/libsam_sam3x8e_gcc_rel.a(wdt.o)
 .text          0x0000000000000000        0x0 /home/aaa/.arduino15/packages/arduino/hardware/sam/1.6.12/variants/arduino_due_x/libsam_sam3x8e_gcc_rel.a(interrupt_sam_nvic.o)
 .data          0x0000000000000000        0x0 /home/aaa/.arduino15/packages/arduino/hardware/sam/1.6.12/variants/arduino_due_x/libsam_sam3x8e_gcc_rel.a(interrupt_sam_nvic.o)
 .bss           0x0000000000000000        0x0 /home/aaa/.arduino15/packages/arduino/hardware/sam/1.6.12/variants/arduino_due_x/libsam_sam3x8e_gcc_rel.a(interrupt_sam_nvic.o)
 .text          0x0000000000000000        0x0 /home/aaa/.arduino15/packages/arduino/hardware/sam/1.6.12/variants/arduino_due_x/libsam_sam3x8e_gcc_rel.a(uotghs_device.o)
 .data          0x0000000000000000        0x0 /home/aaa/.arduino15/packages/arduino/hardware/sam/1.6.12/variants/arduino_due_x/libsam_sam3x8e_gcc_rel.a(uotghs_device.o)
 .bss           0x0000000000000000        0x0 /home/aaa/.arduino15/packages/arduino/hardware/sam/1.6.12/variants/arduino_due_x/libsam_sam3x8e_gcc_rel.a(uotghs_device.o)
 .text.UDD_WaitForINOrOUT
                0x0000000000000000       0x1c /home/aaa/.arduino15/packages/arduino/hardware/sam/1.6.12/variants/arduino_due_x/libsam_sam3x8e_gcc_rel.a(uotghs_device.o)
 .text.UDD_ReadWriteAllowed
                0x0000000000000000       0x14 /home/aaa/.arduino15/packages/arduino/hardware/sam/1.6.12/variants/arduino_due_x/libsam_sam3x8e_gcc_rel.a(uotghs_device.o)
 .text          0x0000000000000000        0x0 /home/aaa/.arduino15/packages/arduino/hardware/sam/1.6.12/variants/arduino_due_x/libsam_sam3x8e_gcc_rel.a(dacc.o)
 .data          0x0000000000000000        0x0 /home/aaa/.arduino15/packages/arduino/hardware/sam/1.6.12/variants/arduino_due_x/libsam_sam3x8e_gcc_rel.a(dacc.o)
 .bss           0x0000000000000000        0x0 /home/aaa/.arduino15/packages/arduino/hardware/sam/1.6.12/variants/arduino_due_x/libsam_sam3x8e_gcc_rel.a(dacc.o)
 .text.dacc_set_trigger
                0x0000000000000000       0x18 /home/aaa/.arduino15/packages/arduino/hardware/sam/1.6.12/variants/arduino_due_x/libsam_sam3x8e_gcc_rel.a(dacc.o)
 .text.dacc_disable_trigger
                0x0000000000000000        0xa /home/aaa/.arduino15/packages/arduino/hardware/sam/1.6.12/variants/arduino_due_x/libsam_sam3x8e_gcc_rel.a(dacc.o)
 .text.dacc_enable_interrupt
                0x0000000000000000        0x4 /home/aaa/.arduino15/packages/arduino/hardware/sam/1.6.12/variants/arduino_due_x/libsam_sam3x8e_gcc_rel.a(dacc.o)
 .text.dacc_disable_interrupt
                0x0000000000000000        0x4 /home/aaa/.arduino15/packages/arduino/hardware/sam/1.6.12/variants/arduino_due_x/libsam_sam3x8e_gcc_rel.a(dacc.o)
 .text.dacc_get_interrupt_mask
                0x0000000000000000        0x4 /home/aaa/.arduino15/packages/arduino/hardware/sam/1.6.12/variants/arduino_due_x/libsam_sam3x8e_gcc_rel.a(dacc.o)
 .text.dacc_set_writeprotect
                0x0000000000000000       0x18 /home/aaa/.arduino15/packages/arduino/hardware/sam/1.6.12/variants/arduino_due_x/libsam_sam3x8e_gcc_rel.a(dacc.o)
 .text.dacc_get_writeprotect_status
                0x0000000000000000        0x6 /home/aaa/.arduino15/packages/arduino/hardware/sam/1.6.12/variants/arduino_due_x/libsam_sam3x8e_gcc_rel.a(dacc.o)
 .text.dacc_get_pdc_base
                0x0000000000000000        0x8 /home/aaa/.arduino15/packages/arduino/hardware/sam/1.6.12/variants/arduino_due_x/libsam_sam3x8e_gcc_rel.a(dacc.o)
 .text.dacc_enable_flexible_selection
                0x0000000000000000        0xa /home/aaa/.arduino15/packages/arduino/hardware/sam/1.6.12/variants/arduino_due_x/libsam_sam3x8e_gcc_rel.a(dacc.o)
 .text.dacc_disable_channel
                0x0000000000000000       0x12 /home/aaa/.arduino15/packages/arduino/hardware/sam/1.6.12/variants/arduino_due_x/libsam_sam3x8e_gcc_rel.a(dacc.o)
 .text.dacc_get_analog_control
                0x0000000000000000        0x6 /home/aaa/.arduino15/packages/arduino/hardware/sam/1.6.12/variants/arduino_due_x/libsam_sam3x8e_gcc_rel.a(dacc.o)
 .text          0x0000000000000000        0x0 /home/aaa/.arduino15/packages/arduino/tools/arm-none-eabi-gcc/4.8.3-2014q1/bin/../lib/gcc/arm-none-eabi/4.8.3/../../../../arm-none-eabi/lib/armv7-m/libm.a(lib_a-s_fpclassify.o)
 .data          0x0000000000000000        0x0 /home/aaa/.arduino15/packages/arduino/tools/arm-none-eabi-gcc/4.8.3-2014q1/bin/../lib/gcc/arm-none-eabi/4.8.3/../../../../arm-none-eabi/lib/armv7-m/libm.a(lib_a-s_fpclassify.o)
 .bss           0x0000000000000000        0x0 /home/aaa/.arduino15/packages/arduino/tools/arm-none-eabi-gcc/4.8.3-2014q1/bin/../lib/gcc/arm-none-eabi/4.8.3/../../../../arm-none-eabi/lib/armv7-m/libm.a(lib_a-s_fpclassify.o)
 .data          0x0000000000000000        0x0 /home/aaa/.arduino15/packages/arduino/tools/arm-none-eabi-gcc/4.8.3-2014q1/bin/../lib/gcc/arm-none-eabi/4.8.3/armv7-m/libgcc.a(_arm_addsubdf3.o)
 .bss           0x0000000000000000        0x0 /home/aaa/.arduino15/packages/arduino/tools/arm-none-eabi-gcc/4.8.3-2014q1/bin/../lib/gcc/arm-none-eabi/4.8.3/armv7-m/libgcc.a(_arm_addsubdf3.o)
 .data          0x0000000000000000        0x0 /home/aaa/.arduino15/packages/arduino/tools/arm-none-eabi-gcc/4.8.3-2014q1/bin/../lib/gcc/arm-none-eabi/4.8.3/armv7-m/libgcc.a(_arm_muldivdf3.o)
 .bss           0x0000000000000000        0x0 /home/aaa/.arduino15/packages/arduino/tools/arm-none-eabi-gcc/4.8.3-2014q1/bin/../lib/gcc/arm-none-eabi/4.8.3/armv7-m/libgcc.a(_arm_muldivdf3.o)
 .data          0x0000000000000000        0x0 /home/aaa/.arduino15/packages/arduino/tools/arm-none-eabi-gcc/4.8.3-2014q1/bin/../lib/gcc/arm-none-eabi/4.8.3/armv7-m/libgcc.a(_arm_cmpdf2.o)
 .bss           0x0000000000000000        0x0 /home/aaa/.arduino15/packages/arduino/tools/arm-none-eabi-gcc/4.8.3-2014q1/bin/../lib/gcc/arm-none-eabi/4.8.3/armv7-m/libgcc.a(_arm_cmpdf2.o)
 .data          0x0000000000000000        0x0 /home/aaa/.arduino15/packages/arduino/tools/arm-none-eabi-gcc/4.8.3-2014q1/bin/../lib/gcc/arm-none-eabi/4.8.3/armv7-m/libgcc.a(_arm_fixunsdfsi.o)
 .bss           0x0000000000000000        0x0 /home/aaa/.arduino15/packages/arduino/tools/arm-none-eabi-gcc/4.8.3-2014q1/bin/../lib/gcc/arm-none-eabi/4.8.3/armv7-m/libgcc.a(_arm_fixunsdfsi.o)
 .text          0x0000000000000000        0x0 /home/aaa/.arduino15/packages/arduino/tools/arm-none-eabi-gcc/4.8.3-2014q1/bin/../lib/gcc/arm-none-eabi/4.8.3/../../../../arm-none-eabi/lib/armv7-m/libg.a(lib_a-assert.o)
 .data          0x0000000000000000        0x0 /home/aaa/.arduino15/packages/arduino/tools/arm-none-eabi-gcc/4.8.3-2014q1/bin/../lib/gcc/arm-none-eabi/4.8.3/../../../../arm-none-eabi/lib/armv7-m/libg.a(lib_a-assert.o)
 .bss           0x0000000000000000        0x0 /home/aaa/.arduino15/packages/arduino/tools/arm-none-eabi-gcc/4.8.3-2014q1/bin/../lib/gcc/arm-none-eabi/4.8.3/../../../../arm-none-eabi/lib/armv7-m/libg.a(lib_a-assert.o)
 .text.__assert
                0x0000000000000000        0xc /home/aaa/.arduino15/packages/arduino/tools/arm-none-eabi-gcc/4.8.3-2014q1/bin/../lib/gcc/arm-none-eabi/4.8.3/../../../../arm-none-eabi/lib/armv7-m/libg.a(lib_a-assert.o)
 .text          0x0000000000000000        0x0 /home/aaa/.arduino15/packages/arduino/tools/arm-none-eabi-gcc/4.8.3-2014q1/bin/../lib/gcc/arm-none-eabi/4.8.3/../../../../arm-none-eabi/lib/armv7-m/libg.a(lib_a-exit.o)
 .data          0x0000000000000000        0x0 /home/aaa/.arduino15/packages/arduino/tools/arm-none-eabi-gcc/4.8.3-2014q1/bin/../lib/gcc/arm-none-eabi/4.8.3/../../../../arm-none-eabi/lib/armv7-m/libg.a(lib_a-exit.o)
 .bss           0x0000000000000000        0x0 /home/aaa/.arduino15/packages/arduino/tools/arm-none-eabi-gcc/4.8.3-2014q1/bin/../lib/gcc/arm-none-eabi/4.8.3/../../../../arm-none-eabi/lib/armv7-m/libg.a(lib_a-exit.o)
 .text.exit     0x0000000000000000       0x20 /home/aaa/.arduino15/packages/arduino/tools/arm-none-eabi-gcc/4.8.3-2014q1/bin/../lib/gcc/arm-none-eabi/4.8.3/../../../../arm-none-eabi/lib/armv7-m/libg.a(lib_a-exit.o)
 .ARM.attributes
                0x0000000000000000       0x2d /home/aaa/.arduino15/packages/arduino/tools/arm-none-eabi-gcc/4.8.3-2014q1/bin/../lib/gcc/arm-none-eabi/4.8.3/../../../../arm-none-eabi/lib/armv7-m/libg.a(lib_a-exit.o)
 .debug_frame   0x0000000000000000       0x28 /home/aaa/.arduino15/packages/arduino/tools/arm-none-eabi-gcc/4.8.3-2014q1/bin/../lib/gcc/arm-none-eabi/4.8.3/../../../../arm-none-eabi/lib/armv7-m/libg.a(lib_a-exit.o)
 .text          0x0000000000000000        0x0 /home/aaa/.arduino15/packages/arduino/tools/arm-none-eabi-gcc/4.8.3-2014q1/bin/../lib/gcc/arm-none-eabi/4.8.3/../../../../arm-none-eabi/lib/armv7-m/libg.a(lib_a-fiprintf.o)
 .data          0x0000000000000000        0x0 /home/aaa/.arduino15/packages/arduino/tools/arm-none-eabi-gcc/4.8.3-2014q1/bin/../lib/gcc/arm-none-eabi/4.8.3/../../../../arm-none-eabi/lib/armv7-m/libg.a(lib_a-fiprintf.o)
 .bss           0x0000000000000000        0x0 /home/aaa/.arduino15/packages/arduino/tools/arm-none-eabi-gcc/4.8.3-2014q1/bin/../lib/gcc/arm-none-eabi/4.8.3/../../../../arm-none-eabi/lib/armv7-m/libg.a(lib_a-fiprintf.o)
 .text._fiprintf_r
                0x0000000000000000       0x20 /home/aaa/.arduino15/packages/arduino/tools/arm-none-eabi-gcc/4.8.3-2014q1/bin/../lib/gcc/arm-none-eabi/4.8.3/../../../../arm-none-eabi/lib/armv7-m/libg.a(lib_a-fiprintf.o)
 .text          0x0000000000000000        0x0 /home/aaa/.arduino15/packages/arduino/tools/arm-none-eabi-gcc/4.8.3-2014q1/bin/../lib/gcc/arm-none-eabi/4.8.3/../../../../arm-none-eabi/lib/armv7-m/libg.a(lib_a-impure.o)
 .data          0x0000000000000000        0x0 /home/aaa/.arduino15/packages/arduino/tools/arm-none-eabi-gcc/4.8.3-2014q1/bin/../lib/gcc/arm-none-eabi/4.8.3/../../../../arm-none-eabi/lib/armv7-m/libg.a(lib_a-impure.o)
 .bss           0x0000000000000000        0x0 /home/aaa/.arduino15/packages/arduino/tools/arm-none-eabi-gcc/4.8.3-2014q1/bin/../lib/gcc/arm-none-eabi/4.8.3/../../../../arm-none-eabi/lib/armv7-m/libg.a(lib_a-impure.o)
 .text          0x0000000000000000        0x0 /home/aaa/.arduino15/packages/arduino/tools/arm-none-eabi-gcc/4.8.3-2014q1/bin/../lib/gcc/arm-none-eabi/4.8.3/../../../../arm-none-eabi/lib/armv7-m/libg.a(lib_a-init.o)
 .data          0x0000000000000000        0x0 /home/aaa/.arduino15/packages/arduino/tools/arm-none-eabi-gcc/4.8.3-2014q1/bin/../lib/gcc/arm-none-eabi/4.8.3/../../../../arm-none-eabi/lib/armv7-m/libg.a(lib_a-init.o)
 .bss           0x0000000000000000        0x0 /home/aaa/.arduino15/packages/arduino/tools/arm-none-eabi-gcc/4.8.3-2014q1/bin/../lib/gcc/arm-none-eabi/4.8.3/../../../../arm-none-eabi/lib/armv7-m/libg.a(lib_a-init.o)
 .text          0x0000000000000000        0x0 /home/aaa/.arduino15/packages/arduino/tools/arm-none-eabi-gcc/4.8.3-2014q1/bin/../lib/gcc/arm-none-eabi/4.8.3/../../../../arm-none-eabi/lib/armv7-m/libg.a(lib_a-memset.o)
 .data          0x0000000000000000        0x0 /home/aaa/.arduino15/packages/arduino/tools/arm-none-eabi-gcc/4.8.3-2014q1/bin/../lib/gcc/arm-none-eabi/4.8.3/../../../../arm-none-eabi/lib/armv7-m/libg.a(lib_a-memset.o)
 .bss           0x0000000000000000        0x0 /home/aaa/.arduino15/packages/arduino/tools/arm-none-eabi-gcc/4.8.3-2014q1/bin/../lib/gcc/arm-none-eabi/4.8.3/../../../../arm-none-eabi/lib/armv7-m/libg.a(lib_a-memset.o)
 .text          0x0000000000000000        0x0 /home/aaa/.arduino15/packages/arduino/tools/arm-none-eabi-gcc/4.8.3-2014q1/bin/../lib/gcc/arm-none-eabi/4.8.3/../../../../arm-none-eabi/lib/armv7-m/libg.a(lib_a-strlen.o)
 .data          0x0000000000000000        0x0 /home/aaa/.arduino15/packages/arduino/tools/arm-none-eabi-gcc/4.8.3-2014q1/bin/../lib/gcc/arm-none-eabi/4.8.3/../../../../arm-none-eabi/lib/armv7-m/libg.a(lib_a-strlen.o)
 .bss           0x0000000000000000        0x0 /home/aaa/.arduino15/packages/arduino/tools/arm-none-eabi-gcc/4.8.3-2014q1/bin/../lib/gcc/arm-none-eabi/4.8.3/../../../../arm-none-eabi/lib/armv7-m/libg.a(lib_a-strlen.o)
 .text          0x0000000000000000        0x0 /home/aaa/.arduino15/packages/arduino/tools/arm-none-eabi-gcc/4.8.3-2014q1/bin/../lib/gcc/arm-none-eabi/4.8.3/../../../../arm-none-eabi/lib/armv7-m/libg.a(lib_a-syskill.o)
 .data          0x0000000000000000        0x0 /home/aaa/.arduino15/packages/arduino/tools/arm-none-eabi-gcc/4.8.3-2014q1/bin/../lib/gcc/arm-none-eabi/4.8.3/../../../../arm-none-eabi/lib/armv7-m/libg.a(lib_a-syskill.o)
 .bss           0x0000000000000000        0x0 /home/aaa/.arduino15/packages/arduino/tools/arm-none-eabi-gcc/4.8.3-2014q1/bin/../lib/gcc/arm-none-eabi/4.8.3/../../../../arm-none-eabi/lib/armv7-m/libg.a(lib_a-syskill.o)
 .text          0x0000000000000000        0x0 /home/aaa/.arduino15/packages/arduino/tools/arm-none-eabi-gcc/4.8.3-2014q1/bin/../lib/gcc/arm-none-eabi/4.8.3/../../../../arm-none-eabi/lib/armv7-m/libg.a(lib_a-vfiprintf.o)
 .data          0x0000000000000000        0x0 /home/aaa/.arduino15/packages/arduino/tools/arm-none-eabi-gcc/4.8.3-2014q1/bin/../lib/gcc/arm-none-eabi/4.8.3/../../../../arm-none-eabi/lib/armv7-m/libg.a(lib_a-vfiprintf.o)
 .bss           0x0000000000000000        0x0 /home/aaa/.arduino15/packages/arduino/tools/arm-none-eabi-gcc/4.8.3-2014q1/bin/../lib/gcc/arm-none-eabi/4.8.3/../../../../arm-none-eabi/lib/armv7-m/libg.a(lib_a-vfiprintf.o)
 .text.__sprint_r
                0x0000000000000000       0x18 /home/aaa/.arduino15/packages/arduino/tools/arm-none-eabi-gcc/4.8.3-2014q1/bin/../lib/gcc/arm-none-eabi/4.8.3/../../../../arm-none-eabi/lib/armv7-m/libg.a(lib_a-vfiprintf.o)
 .text.vfiprintf
                0x0000000000000000       0x18 /home/aaa/.arduino15/packages/arduino/tools/arm-none-eabi-gcc/4.8.3-2014q1/bin/../lib/gcc/arm-none-eabi/4.8.3/../../../../arm-none-eabi/lib/armv7-m/libg.a(lib_a-vfiprintf.o)
 .text          0x0000000000000000        0x0 /home/aaa/.arduino15/packages/arduino/tools/arm-none-eabi-gcc/4.8.3-2014q1/bin/../lib/gcc/arm-none-eabi/4.8.3/../../../../arm-none-eabi/lib/armv7-m/libg.a(lib_a-wsetup.o)
 .data          0x0000000000000000        0x0 /home/aaa/.arduino15/packages/arduino/tools/arm-none-eabi-gcc/4.8.3-2014q1/bin/../lib/gcc/arm-none-eabi/4.8.3/../../../../arm-none-eabi/lib/armv7-m/libg.a(lib_a-wsetup.o)
 .bss           0x0000000000000000        0x0 /home/aaa/.arduino15/packages/arduino/tools/arm-none-eabi-gcc/4.8.3-2014q1/bin/../lib/gcc/arm-none-eabi/4.8.3/../../../../arm-none-eabi/lib/armv7-m/libg.a(lib_a-wsetup.o)
 .text          0x0000000000000000        0x0 /home/aaa/.arduino15/packages/arduino/tools/arm-none-eabi-gcc/4.8.3-2014q1/bin/../lib/gcc/arm-none-eabi/4.8.3/../../../../arm-none-eabi/lib/armv7-m/libg.a(lib_a-__call_atexit.o)
 .data          0x0000000000000000        0x0 /home/aaa/.arduino15/packages/arduino/tools/arm-none-eabi-gcc/4.8.3-2014q1/bin/../lib/gcc/arm-none-eabi/4.8.3/../../../../arm-none-eabi/lib/armv7-m/libg.a(lib_a-__call_atexit.o)
 .bss           0x0000000000000000        0x0 /home/aaa/.arduino15/packages/arduino/tools/arm-none-eabi-gcc/4.8.3-2014q1/bin/../lib/gcc/arm-none-eabi/4.8.3/../../../../arm-none-eabi/lib/armv7-m/libg.a(lib_a-__call_atexit.o)
 .text.__call_exitprocs
                0x0000000000000000       0xf0 /home/aaa/.arduino15/packages/arduino/tools/arm-none-eabi-gcc/4.8.3-2014q1/bin/../lib/gcc/arm-none-eabi/4.8.3/../../../../arm-none-eabi/lib/armv7-m/libg.a(lib_a-__call_atexit.o)
 .text          0x0000000000000000        0x0 /home/aaa/.arduino15/packages/arduino/tools/arm-none-eabi-gcc/4.8.3-2014q1/bin/../lib/gcc/arm-none-eabi/4.8.3/../../../../arm-none-eabi/lib/armv7-m/libg.a(lib_a-abort.o)
 .data          0x0000000000000000        0x0 /home/aaa/.arduino15/packages/arduino/tools/arm-none-eabi-gcc/4.8.3-2014q1/bin/../lib/gcc/arm-none-eabi/4.8.3/../../../../arm-none-eabi/lib/armv7-m/libg.a(lib_a-abort.o)
 .bss           0x0000000000000000        0x0 /home/aaa/.arduino15/packages/arduino/tools/arm-none-eabi-gcc/4.8.3-2014q1/bin/../lib/gcc/arm-none-eabi/4.8.3/../../../../arm-none-eabi/lib/armv7-m/libg.a(lib_a-abort.o)
 .text          0x0000000000000000        0x0 /home/aaa/.arduino15/packages/arduino/tools/arm-none-eabi-gcc/4.8.3-2014q1/bin/../lib/gcc/arm-none-eabi/4.8.3/../../../../arm-none-eabi/lib/armv7-m/libg.a(lib_a-atexit.o)
 .data          0x0000000000000000        0x0 /home/aaa/.arduino15/packages/arduino/tools/arm-none-eabi-gcc/4.8.3-2014q1/bin/../lib/gcc/arm-none-eabi/4.8.3/../../../../arm-none-eabi/lib/armv7-m/libg.a(lib_a-atexit.o)
 .bss           0x0000000000000000        0x0 /home/aaa/.arduino15/packages/arduino/tools/arm-none-eabi-gcc/4.8.3-2014q1/bin/../lib/gcc/arm-none-eabi/4.8.3/../../../../arm-none-eabi/lib/armv7-m/libg.a(lib_a-atexit.o)
 .text          0x0000000000000000        0x0 /home/aaa/.arduino15/packages/arduino/tools/arm-none-eabi-gcc/4.8.3-2014q1/bin/../lib/gcc/arm-none-eabi/4.8.3/../../../../arm-none-eabi/lib/armv7-m/libg.a(lib_a-fflush.o)
 .data          0x0000000000000000        0x0 /home/aaa/.arduino15/packages/arduino/tools/arm-none-eabi-gcc/4.8.3-2014q1/bin/../lib/gcc/arm-none-eabi/4.8.3/../../../../arm-none-eabi/lib/armv7-m/libg.a(lib_a-fflush.o)
 .bss           0x0000000000000000        0x0 /home/aaa/.arduino15/packages/arduino/tools/arm-none-eabi-gcc/4.8.3-2014q1/bin/../lib/gcc/arm-none-eabi/4.8.3/../../../../arm-none-eabi/lib/armv7-m/libg.a(lib_a-fflush.o)
 .text.fflush   0x0000000000000000       0x24 /home/aaa/.arduino15/packages/arduino/tools/arm-none-eabi-gcc/4.8.3-2014q1/bin/../lib/gcc/arm-none-eabi/4.8.3/../../../../arm-none-eabi/lib/armv7-m/libg.a(lib_a-fflush.o)
 .text          0x0000000000000000        0x0 /home/aaa/.arduino15/packages/arduino/tools/arm-none-eabi-gcc/4.8.3-2014q1/bin/../lib/gcc/arm-none-eabi/4.8.3/../../../../arm-none-eabi/lib/armv7-m/libg.a(lib_a-findfp.o)
 .data          0x0000000000000000        0x0 /home/aaa/.arduino15/packages/arduino/tools/arm-none-eabi-gcc/4.8.3-2014q1/bin/../lib/gcc/arm-none-eabi/4.8.3/../../../../arm-none-eabi/lib/armv7-m/libg.a(lib_a-findfp.o)
 .bss           0x0000000000000000        0x0 /home/aaa/.arduino15/packages/arduino/tools/arm-none-eabi-gcc/4.8.3-2014q1/bin/../lib/gcc/arm-none-eabi/4.8.3/../../../../arm-none-eabi/lib/armv7-m/libg.a(lib_a-findfp.o)
 .text.__fp_lock
                0x0000000000000000        0x4 /home/aaa/.arduino15/packages/arduino/tools/arm-none-eabi-gcc/4.8.3-2014q1/bin/../lib/gcc/arm-none-eabi/4.8.3/../../../../arm-none-eabi/lib/armv7-m/libg.a(lib_a-findfp.o)
 .text.__fp_unlock
                0x0000000000000000        0x4 /home/aaa/.arduino15/packages/arduino/tools/arm-none-eabi-gcc/4.8.3-2014q1/bin/../lib/gcc/arm-none-eabi/4.8.3/../../../../arm-none-eabi/lib/armv7-m/libg.a(lib_a-findfp.o)
 .text.__sfmoreglue
                0x0000000000000000       0x30 /home/aaa/.arduino15/packages/arduino/tools/arm-none-eabi-gcc/4.8.3-2014q1/bin/../lib/gcc/arm-none-eabi/4.8.3/../../../../arm-none-eabi/lib/armv7-m/libg.a(lib_a-findfp.o)
 .text._cleanup
                0x0000000000000000       0x14 /home/aaa/.arduino15/packages/arduino/tools/arm-none-eabi-gcc/4.8.3-2014q1/bin/../lib/gcc/arm-none-eabi/4.8.3/../../../../arm-none-eabi/lib/armv7-m/libg.a(lib_a-findfp.o)
 .text.__sfp    0x0000000000000000       0x8c /home/aaa/.arduino15/packages/arduino/tools/arm-none-eabi-gcc/4.8.3-2014q1/bin/../lib/gcc/arm-none-eabi/4.8.3/../../../../arm-none-eabi/lib/armv7-m/libg.a(lib_a-findfp.o)
 .text.__sinit_lock_acquire
                0x0000000000000000        0x4 /home/aaa/.arduino15/packages/arduino/tools/arm-none-eabi-gcc/4.8.3-2014q1/bin/../lib/gcc/arm-none-eabi/4.8.3/../../../../arm-none-eabi/lib/armv7-m/libg.a(lib_a-findfp.o)
 .text.__sinit_lock_release
                0x0000000000000000        0x4 /home/aaa/.arduino15/packages/arduino/tools/arm-none-eabi-gcc/4.8.3-2014q1/bin/../lib/gcc/arm-none-eabi/4.8.3/../../../../arm-none-eabi/lib/armv7-m/libg.a(lib_a-findfp.o)
 .text.__fp_lock_all
                0x0000000000000000       0x14 /home/aaa/.arduino15/packages/arduino/tools/arm-none-eabi-gcc/4.8.3-2014q1/bin/../lib/gcc/arm-none-eabi/4.8.3/../../../../arm-none-eabi/lib/armv7-m/libg.a(lib_a-findfp.o)
 .text.__fp_unlock_all
                0x0000000000000000       0x14 /home/aaa/.arduino15/packages/arduino/tools/arm-none-eabi-gcc/4.8.3-2014q1/bin/../lib/gcc/arm-none-eabi/4.8.3/../../../../arm-none-eabi/lib/armv7-m/libg.a(lib_a-findfp.o)
 .text          0x0000000000000000        0x0 /home/aaa/.arduino15/packages/arduino/tools/arm-none-eabi-gcc/4.8.3-2014q1/bin/../lib/gcc/arm-none-eabi/4.8.3/../../../../arm-none-eabi/lib/armv7-m/libg.a(lib_a-fini.o)
 .data          0x0000000000000000        0x0 /home/aaa/.arduino15/packages/arduino/tools/arm-none-eabi-gcc/4.8.3-2014q1/bin/../lib/gcc/arm-none-eabi/4.8.3/../../../../arm-none-eabi/lib/armv7-m/libg.a(lib_a-fini.o)
 .bss           0x0000000000000000        0x0 /home/aaa/.arduino15/packages/arduino/tools/arm-none-eabi-gcc/4.8.3-2014q1/bin/../lib/gcc/arm-none-eabi/4.8.3/../../../../arm-none-eabi/lib/armv7-m/libg.a(lib_a-fini.o)
 .text          0x0000000000000000        0x0 /home/aaa/.arduino15/packages/arduino/tools/arm-none-eabi-gcc/4.8.3-2014q1/bin/../lib/gcc/arm-none-eabi/4.8.3/../../../../arm-none-eabi/lib/armv7-m/libg.a(lib_a-fputwc.o)
 .data          0x0000000000000000        0x0 /home/aaa/.arduino15/packages/arduino/tools/arm-none-eabi-gcc/4.8.3-2014q1/bin/../lib/gcc/arm-none-eabi/4.8.3/../../../../arm-none-eabi/lib/armv7-m/libg.a(lib_a-fputwc.o)
 .bss           0x0000000000000000        0x0 /home/aaa/.arduino15/packages/arduino/tools/arm-none-eabi-gcc/4.8.3-2014q1/bin/../lib/gcc/arm-none-eabi/4.8.3/../../../../arm-none-eabi/lib/armv7-m/libg.a(lib_a-fputwc.o)
 .text.fputwc   0x0000000000000000       0x28 /home/aaa/.arduino15/packages/arduino/tools/arm-none-eabi-gcc/4.8.3-2014q1/bin/../lib/gcc/arm-none-eabi/4.8.3/../../../../arm-none-eabi/lib/armv7-m/libg.a(lib_a-fputwc.o)
 .text          0x0000000000000000        0x0 /home/aaa/.arduino15/packages/arduino/tools/arm-none-eabi-gcc/4.8.3-2014q1/bin/../lib/gcc/arm-none-eabi/4.8.3/../../../../arm-none-eabi/lib/armv7-m/libg.a(lib_a-freer.o)
 .data          0x0000000000000000        0x0 /home/aaa/.arduino15/packages/arduino/tools/arm-none-eabi-gcc/4.8.3-2014q1/bin/../lib/gcc/arm-none-eabi/4.8.3/../../../../arm-none-eabi/lib/armv7-m/libg.a(lib_a-freer.o)
 .bss           0x0000000000000000        0x0 /home/aaa/.arduino15/packages/arduino/tools/arm-none-eabi-gcc/4.8.3-2014q1/bin/../lib/gcc/arm-none-eabi/4.8.3/../../../../arm-none-eabi/lib/armv7-m/libg.a(lib_a-freer.o)
 .text          0x0000000000000000        0x0 /home/aaa/.arduino15/packages/arduino/tools/arm-none-eabi-gcc/4.8.3-2014q1/bin/../lib/gcc/arm-none-eabi/4.8.3/../../../../arm-none-eabi/lib/armv7-m/libg.a(lib_a-fvwrite.o)
 .data          0x0000000000000000        0x0 /home/aaa/.arduino15/packages/arduino/tools/arm-none-eabi-gcc/4.8.3-2014q1/bin/../lib/gcc/arm-none-eabi/4.8.3/../../../../arm-none-eabi/lib/armv7-m/libg.a(lib_a-fvwrite.o)
 .bss           0x0000000000000000        0x0 /home/aaa/.arduino15/packages/arduino/tools/arm-none-eabi-gcc/4.8.3-2014q1/bin/../lib/gcc/arm-none-eabi/4.8.3/../../../../arm-none-eabi/lib/armv7-m/libg.a(lib_a-fvwrite.o)
 .text          0x0000000000000000        0x0 /home/aaa/.arduino15/packages/arduino/tools/arm-none-eabi-gcc/4.8.3-2014q1/bin/../lib/gcc/arm-none-eabi/4.8.3/../../../../arm-none-eabi/lib/armv7-m/libg.a(lib_a-fwalk.o)
 .data          0x0000000000000000        0x0 /home/aaa/.arduino15/packages/arduino/tools/arm-none-eabi-gcc/4.8.3-2014q1/bin/../lib/gcc/arm-none-eabi/4.8.3/../../../../arm-none-eabi/lib/armv7-m/libg.a(lib_a-fwalk.o)
 .bss           0x0000000000000000        0x0 /home/aaa/.arduino15/packages/arduino/tools/arm-none-eabi-gcc/4.8.3-2014q1/bin/../lib/gcc/arm-none-eabi/4.8.3/../../../../arm-none-eabi/lib/armv7-m/libg.a(lib_a-fwalk.o)
 .text._fwalk_reent
                0x0000000000000000       0x4c /home/aaa/.arduino15/packages/arduino/tools/arm-none-eabi-gcc/4.8.3-2014q1/bin/../lib/gcc/arm-none-eabi/4.8.3/../../../../arm-none-eabi/lib/armv7-m/libg.a(lib_a-fwalk.o)
 .text          0x0000000000000000        0x0 /home/aaa/.arduino15/packages/arduino/tools/arm-none-eabi-gcc/4.8.3-2014q1/bin/../lib/gcc/arm-none-eabi/4.8.3/../../../../arm-none-eabi/lib/armv7-m/libg.a(lib_a-locale.o)
 .data          0x0000000000000000        0x0 /home/aaa/.arduino15/packages/arduino/tools/arm-none-eabi-gcc/4.8.3-2014q1/bin/../lib/gcc/arm-none-eabi/4.8.3/../../../../arm-none-eabi/lib/armv7-m/libg.a(lib_a-locale.o)
 .bss           0x0000000000000000        0x0 /home/aaa/.arduino15/packages/arduino/tools/arm-none-eabi-gcc/4.8.3-2014q1/bin/../lib/gcc/arm-none-eabi/4.8.3/../../../../arm-none-eabi/lib/armv7-m/libg.a(lib_a-locale.o)
 .text._setlocale_r
                0x0000000000000000       0x40 /home/aaa/.arduino15/packages/arduino/tools/arm-none-eabi-gcc/4.8.3-2014q1/bin/../lib/gcc/arm-none-eabi/4.8.3/../../../../arm-none-eabi/lib/armv7-m/libg.a(lib_a-locale.o)
 .text.__locale_msgcharset
                0x0000000000000000        0x8 /home/aaa/.arduino15/packages/arduino/tools/arm-none-eabi-gcc/4.8.3-2014q1/bin/../lib/gcc/arm-none-eabi/4.8.3/../../../../arm-none-eabi/lib/armv7-m/libg.a(lib_a-locale.o)
 .text.__locale_cjk_lang
                0x0000000000000000        0x4 /home/aaa/.arduino15/packages/arduino/tools/arm-none-eabi-gcc/4.8.3-2014q1/bin/../lib/gcc/arm-none-eabi/4.8.3/../../../../arm-none-eabi/lib/armv7-m/libg.a(lib_a-locale.o)
 .text._localeconv_r
                0x0000000000000000        0x8 /home/aaa/.arduino15/packages/arduino/tools/arm-none-eabi-gcc/4.8.3-2014q1/bin/../lib/gcc/arm-none-eabi/4.8.3/../../../../arm-none-eabi/lib/armv7-m/libg.a(lib_a-locale.o)
 .text.setlocale
                0x0000000000000000       0x10 /home/aaa/.arduino15/packages/arduino/tools/arm-none-eabi-gcc/4.8.3-2014q1/bin/../lib/gcc/arm-none-eabi/4.8.3/../../../../arm-none-eabi/lib/armv7-m/libg.a(lib_a-locale.o)
 .text.localeconv
                0x0000000000000000        0x8 /home/aaa/.arduino15/packages/arduino/tools/arm-none-eabi-gcc/4.8.3-2014q1/bin/../lib/gcc/arm-none-eabi/4.8.3/../../../../arm-none-eabi/lib/armv7-m/libg.a(lib_a-locale.o)
 .data.lc_message_charset
                0x0000000000000000       0x20 /home/aaa/.arduino15/packages/arduino/tools/arm-none-eabi-gcc/4.8.3-2014q1/bin/../lib/gcc/arm-none-eabi/4.8.3/../../../../arm-none-eabi/lib/armv7-m/libg.a(lib_a-locale.o)
 .bss._PathLocale
                0x0000000000000000        0x4 /home/aaa/.arduino15/packages/arduino/tools/arm-none-eabi-gcc/4.8.3-2014q1/bin/../lib/gcc/arm-none-eabi/4.8.3/../../../../arm-none-eabi/lib/armv7-m/libg.a(lib_a-locale.o)
 .bss.__nlocale_changed
                0x0000000000000000        0x4 /home/aaa/.arduino15/packages/arduino/tools/arm-none-eabi-gcc/4.8.3-2014q1/bin/../lib/gcc/arm-none-eabi/4.8.3/../../../../arm-none-eabi/lib/armv7-m/libg.a(lib_a-locale.o)
 .bss.__mlocale_changed
                0x0000000000000000        0x4 /home/aaa/.arduino15/packages/arduino/tools/arm-none-eabi-gcc/4.8.3-2014q1/bin/../lib/gcc/arm-none-eabi/4.8.3/../../../../arm-none-eabi/lib/armv7-m/libg.a(lib_a-locale.o)
 .data.lconv    0x0000000000000000       0x38 /home/aaa/.arduino15/packages/arduino/tools/arm-none-eabi-gcc/4.8.3-2014q1/bin/../lib/gcc/arm-none-eabi/4.8.3/../../../../arm-none-eabi/lib/armv7-m/libg.a(lib_a-locale.o)
 .rodata.str1.4
                0x0000000000000000       0x14 /home/aaa/.arduino15/packages/arduino/tools/arm-none-eabi-gcc/4.8.3-2014q1/bin/../lib/gcc/arm-none-eabi/4.8.3/../../../../arm-none-eabi/lib/armv7-m/libg.a(lib_a-locale.o)
 .text          0x0000000000000000        0x0 /home/aaa/.arduino15/packages/arduino/tools/arm-none-eabi-gcc/4.8.3-2014q1/bin/../lib/gcc/arm-none-eabi/4.8.3/../../../../arm-none-eabi/lib/armv7-m/libg.a(lib_a-makebuf.o)
 .data          0x0000000000000000        0x0 /home/aaa/.arduino15/packages/arduino/tools/arm-none-eabi-gcc/4.8.3-2014q1/bin/../lib/gcc/arm-none-eabi/4.8.3/../../../../arm-none-eabi/lib/armv7-m/libg.a(lib_a-makebuf.o)
 .bss           0x0000000000000000        0x0 /home/aaa/.arduino15/packages/arduino/tools/arm-none-eabi-gcc/4.8.3-2014q1/bin/../lib/gcc/arm-none-eabi/4.8.3/../../../../arm-none-eabi/lib/armv7-m/libg.a(lib_a-makebuf.o)
 .text          0x0000000000000000        0x0 /home/aaa/.arduino15/packages/arduino/tools/arm-none-eabi-gcc/4.8.3-2014q1/bin/../lib/gcc/arm-none-eabi/4.8.3/../../../../arm-none-eabi/lib/armv7-m/libg.a(lib_a-mallocr.o)
 .data          0x0000000000000000        0x0 /home/aaa/.arduino15/packages/arduino/tools/arm-none-eabi-gcc/4.8.3-2014q1/bin/../lib/gcc/arm-none-eabi/4.8.3/../../../../arm-none-eabi/lib/armv7-m/libg.a(lib_a-mallocr.o)
 .bss           0x0000000000000000        0x0 /home/aaa/.arduino15/packages/arduino/tools/arm-none-eabi-gcc/4.8.3-2014q1/bin/../lib/gcc/arm-none-eabi/4.8.3/../../../../arm-none-eabi/lib/armv7-m/libg.a(lib_a-mallocr.o)
 .text          0x0000000000000000        0x0 /home/aaa/.arduino15/packages/arduino/tools/arm-none-eabi-gcc/4.8.3-2014q1/bin/../lib/gcc/arm-none-eabi/4.8.3/../../../../arm-none-eabi/lib/armv7-m/libg.a(lib_a-memchr-stub.o)
 .data          0x0000000000000000        0x0 /home/aaa/.arduino15/packages/arduino/tools/arm-none-eabi-gcc/4.8.3-2014q1/bin/../lib/gcc/arm-none-eabi/4.8.3/../../../../arm-none-eabi/lib/armv7-m/libg.a(lib_a-memchr-stub.o)
 .bss           0x0000000000000000        0x0 /home/aaa/.arduino15/packages/arduino/tools/arm-none-eabi-gcc/4.8.3-2014q1/bin/../lib/gcc/arm-none-eabi/4.8.3/../../../../arm-none-eabi/lib/armv7-m/libg.a(lib_a-memchr-stub.o)
 .data          0x0000000000000000        0x0 /home/aaa/.arduino15/packages/arduino/tools/arm-none-eabi-gcc/4.8.3-2014q1/bin/../lib/gcc/arm-none-eabi/4.8.3/../../../../arm-none-eabi/lib/armv7-m/libg.a(lib_a-memcpy.o)
 .bss           0x0000000000000000        0x0 /home/aaa/.arduino15/packages/arduino/tools/arm-none-eabi-gcc/4.8.3-2014q1/bin/../lib/gcc/arm-none-eabi/4.8.3/../../../../arm-none-eabi/lib/armv7-m/libg.a(lib_a-memcpy.o)
 .text          0x0000000000000000        0x0 /home/aaa/.arduino15/packages/arduino/tools/arm-none-eabi-gcc/4.8.3-2014q1/bin/../lib/gcc/arm-none-eabi/4.8.3/../../../../arm-none-eabi/lib/armv7-m/libg.a(lib_a-memmove.o)
 .data          0x0000000000000000        0x0 /home/aaa/.arduino15/packages/arduino/tools/arm-none-eabi-gcc/4.8.3-2014q1/bin/../lib/gcc/arm-none-eabi/4.8.3/../../../../arm-none-eabi/lib/armv7-m/libg.a(lib_a-memmove.o)
 .bss           0x0000000000000000        0x0 /home/aaa/.arduino15/packages/arduino/tools/arm-none-eabi-gcc/4.8.3-2014q1/bin/../lib/gcc/arm-none-eabi/4.8.3/../../../../arm-none-eabi/lib/armv7-m/libg.a(lib_a-memmove.o)
 .text          0x0000000000000000        0x0 /home/aaa/.arduino15/packages/arduino/tools/arm-none-eabi-gcc/4.8.3-2014q1/bin/../lib/gcc/arm-none-eabi/4.8.3/../../../../arm-none-eabi/lib/armv7-m/libg.a(lib_a-mlock.o)
 .data          0x0000000000000000        0x0 /home/aaa/.arduino15/packages/arduino/tools/arm-none-eabi-gcc/4.8.3-2014q1/bin/../lib/gcc/arm-none-eabi/4.8.3/../../../../arm-none-eabi/lib/armv7-m/libg.a(lib_a-mlock.o)
 .bss           0x0000000000000000        0x0 /home/aaa/.arduino15/packages/arduino/tools/arm-none-eabi-gcc/4.8.3-2014q1/bin/../lib/gcc/arm-none-eabi/4.8.3/../../../../arm-none-eabi/lib/armv7-m/libg.a(lib_a-mlock.o)
 .text          0x0000000000000000        0x0 /home/aaa/.arduino15/packages/arduino/tools/arm-none-eabi-gcc/4.8.3-2014q1/bin/../lib/gcc/arm-none-eabi/4.8.3/../../../../arm-none-eabi/lib/armv7-m/libg.a(lib_a-reallocr.o)
 .data          0x0000000000000000        0x0 /home/aaa/.arduino15/packages/arduino/tools/arm-none-eabi-gcc/4.8.3-2014q1/bin/../lib/gcc/arm-none-eabi/4.8.3/../../../../arm-none-eabi/lib/armv7-m/libg.a(lib_a-reallocr.o)
 .bss           0x0000000000000000        0x0 /home/aaa/.arduino15/packages/arduino/tools/arm-none-eabi-gcc/4.8.3-2014q1/bin/../lib/gcc/arm-none-eabi/4.8.3/../../../../arm-none-eabi/lib/armv7-m/libg.a(lib_a-reallocr.o)
 .text          0x0000000000000000        0x0 /home/aaa/.arduino15/packages/arduino/tools/arm-none-eabi-gcc/4.8.3-2014q1/bin/../lib/gcc/arm-none-eabi/4.8.3/../../../../arm-none-eabi/lib/armv7-m/libg.a(lib_a-sbrkr.o)
 .data          0x0000000000000000        0x0 /home/aaa/.arduino15/packages/arduino/tools/arm-none-eabi-gcc/4.8.3-2014q1/bin/../lib/gcc/arm-none-eabi/4.8.3/../../../../arm-none-eabi/lib/armv7-m/libg.a(lib_a-sbrkr.o)
 .bss           0x0000000000000000        0x0 /home/aaa/.arduino15/packages/arduino/tools/arm-none-eabi-gcc/4.8.3-2014q1/bin/../lib/gcc/arm-none-eabi/4.8.3/../../../../arm-none-eabi/lib/armv7-m/libg.a(lib_a-sbrkr.o)
 .text          0x0000000000000000        0x0 /home/aaa/.arduino15/packages/arduino/tools/arm-none-eabi-gcc/4.8.3-2014q1/bin/../lib/gcc/arm-none-eabi/4.8.3/../../../../arm-none-eabi/lib/armv7-m/libg.a(lib_a-signal.o)
 .data          0x0000000000000000        0x0 /home/aaa/.arduino15/packages/arduino/tools/arm-none-eabi-gcc/4.8.3-2014q1/bin/../lib/gcc/arm-none-eabi/4.8.3/../../../../arm-none-eabi/lib/armv7-m/libg.a(lib_a-signal.o)
 .bss           0x0000000000000000        0x0 /home/aaa/.arduino15/packages/arduino/tools/arm-none-eabi-gcc/4.8.3-2014q1/bin/../lib/gcc/arm-none-eabi/4.8.3/../../../../arm-none-eabi/lib/armv7-m/libg.a(lib_a-signal.o)
 .text._init_signal_r
                0x0000000000000000       0x38 /home/aaa/.arduino15/packages/arduino/tools/arm-none-eabi-gcc/4.8.3-2014q1/bin/../lib/gcc/arm-none-eabi/4.8.3/../../../../arm-none-eabi/lib/armv7-m/libg.a(lib_a-signal.o)
 .text._signal_r
                0x0000000000000000       0x44 /home/aaa/.arduino15/packages/arduino/tools/arm-none-eabi-gcc/4.8.3-2014q1/bin/../lib/gcc/arm-none-eabi/4.8.3/../../../../arm-none-eabi/lib/armv7-m/libg.a(lib_a-signal.o)
 .text.__sigtramp_r
                0x0000000000000000       0x58 /home/aaa/.arduino15/packages/arduino/tools/arm-none-eabi-gcc/4.8.3-2014q1/bin/../lib/gcc/arm-none-eabi/4.8.3/../../../../arm-none-eabi/lib/armv7-m/libg.a(lib_a-signal.o)
 .text.signal   0x0000000000000000       0x10 /home/aaa/.arduino15/packages/arduino/tools/arm-none-eabi-gcc/4.8.3-2014q1/bin/../lib/gcc/arm-none-eabi/4.8.3/../../../../arm-none-eabi/lib/armv7-m/libg.a(lib_a-signal.o)
 .text._init_signal
                0x0000000000000000        0xc /home/aaa/.arduino15/packages/arduino/tools/arm-none-eabi-gcc/4.8.3-2014q1/bin/../lib/gcc/arm-none-eabi/4.8.3/../../../../arm-none-eabi/lib/armv7-m/libg.a(lib_a-signal.o)
 .text.__sigtramp
                0x0000000000000000       0x10 /home/aaa/.arduino15/packages/arduino/tools/arm-none-eabi-gcc/4.8.3-2014q1/bin/../lib/gcc/arm-none-eabi/4.8.3/../../../../arm-none-eabi/lib/armv7-m/libg.a(lib_a-signal.o)
 .text          0x0000000000000000        0x0 /home/aaa/.arduino15/packages/arduino/tools/arm-none-eabi-gcc/4.8.3-2014q1/bin/../lib/gcc/arm-none-eabi/4.8.3/../../../../arm-none-eabi/lib/armv7-m/libg.a(lib_a-signalr.o)
 .data          0x0000000000000000        0x0 /home/aaa/.arduino15/packages/arduino/tools/arm-none-eabi-gcc/4.8.3-2014q1/bin/../lib/gcc/arm-none-eabi/4.8.3/../../../../arm-none-eabi/lib/armv7-m/libg.a(lib_a-signalr.o)
 .bss           0x0000000000000000        0x0 /home/aaa/.arduino15/packages/arduino/tools/arm-none-eabi-gcc/4.8.3-2014q1/bin/../lib/gcc/arm-none-eabi/4.8.3/../../../../arm-none-eabi/lib/armv7-m/libg.a(lib_a-signalr.o)
 .text          0x0000000000000000        0x0 /home/aaa/.arduino15/packages/arduino/tools/arm-none-eabi-gcc/4.8.3-2014q1/bin/../lib/gcc/arm-none-eabi/4.8.3/../../../../arm-none-eabi/lib/armv7-m/libg.a(lib_a-stdio.o)
 .data          0x0000000000000000        0x0 /home/aaa/.arduino15/packages/arduino/tools/arm-none-eabi-gcc/4.8.3-2014q1/bin/../lib/gcc/arm-none-eabi/4.8.3/../../../../arm-none-eabi/lib/armv7-m/libg.a(lib_a-stdio.o)
 .bss           0x0000000000000000        0x0 /home/aaa/.arduino15/packages/arduino/tools/arm-none-eabi-gcc/4.8.3-2014q1/bin/../lib/gcc/arm-none-eabi/4.8.3/../../../../arm-none-eabi/lib/armv7-m/libg.a(lib_a-stdio.o)
 .text.__seofread
                0x0000000000000000        0x4 /home/aaa/.arduino15/packages/arduino/tools/arm-none-eabi-gcc/4.8.3-2014q1/bin/../lib/gcc/arm-none-eabi/4.8.3/../../../../arm-none-eabi/lib/armv7-m/libg.a(lib_a-stdio.o)
 .text          0x0000000000000000      0x23c /home/aaa/.arduino15/packages/arduino/tools/arm-none-eabi-gcc/4.8.3-2014q1/bin/../lib/gcc/arm-none-eabi/4.8.3/../../../../arm-none-eabi/lib/armv7-m/libg.a(lib_a-strcmp.o)
 .data          0x0000000000000000        0x0 /home/aaa/.arduino15/packages/arduino/tools/arm-none-eabi-gcc/4.8.3-2014q1/bin/../lib/gcc/arm-none-eabi/4.8.3/../../../../arm-none-eabi/lib/armv7-m/libg.a(lib_a-strcmp.o)
 .bss           0x0000000000000000        0x0 /home/aaa/.arduino15/packages/arduino/tools/arm-none-eabi-gcc/4.8.3-2014q1/bin/../lib/gcc/arm-none-eabi/4.8.3/../../../../arm-none-eabi/lib/armv7-m/libg.a(lib_a-strcmp.o)
 .ARM.attributes
                0x0000000000000000       0x1b /home/aaa/.arduino15/packages/arduino/tools/arm-none-eabi-gcc/4.8.3-2014q1/bin/../lib/gcc/arm-none-eabi/4.8.3/../../../../arm-none-eabi/lib/armv7-m/libg.a(lib_a-strcmp.o)
 .text          0x0000000000000000        0x0 /home/aaa/.arduino15/packages/arduino/tools/arm-none-eabi-gcc/4.8.3-2014q1/bin/../lib/gcc/arm-none-eabi/4.8.3/../../../../arm-none-eabi/lib/armv7-m/libg.a(lib_a-wbuf.o)
 .data          0x0000000000000000        0x0 /home/aaa/.arduino15/packages/arduino/tools/arm-none-eabi-gcc/4.8.3-2014q1/bin/../lib/gcc/arm-none-eabi/4.8.3/../../../../arm-none-eabi/lib/armv7-m/libg.a(lib_a-wbuf.o)
 .bss           0x0000000000000000        0x0 /home/aaa/.arduino15/packages/arduino/tools/arm-none-eabi-gcc/4.8.3-2014q1/bin/../lib/gcc/arm-none-eabi/4.8.3/../../../../arm-none-eabi/lib/armv7-m/libg.a(lib_a-wbuf.o)
 .text.__swbuf  0x0000000000000000       0x10 /home/aaa/.arduino15/packages/arduino/tools/arm-none-eabi-gcc/4.8.3-2014q1/bin/../lib/gcc/arm-none-eabi/4.8.3/../../../../arm-none-eabi/lib/armv7-m/libg.a(lib_a-wbuf.o)
 .text          0x0000000000000000        0x0 /home/aaa/.arduino15/packages/arduino/tools/arm-none-eabi-gcc/4.8.3-2014q1/bin/../lib/gcc/arm-none-eabi/4.8.3/../../../../arm-none-eabi/lib/armv7-m/libg.a(lib_a-wcrtomb.o)
 .data          0x0000000000000000        0x0 /home/aaa/.arduino15/packages/arduino/tools/arm-none-eabi-gcc/4.8.3-2014q1/bin/../lib/gcc/arm-none-eabi/4.8.3/../../../../arm-none-eabi/lib/armv7-m/libg.a(lib_a-wcrtomb.o)
 .bss           0x0000000000000000        0x0 /home/aaa/.arduino15/packages/arduino/tools/arm-none-eabi-gcc/4.8.3-2014q1/bin/../lib/gcc/arm-none-eabi/4.8.3/../../../../arm-none-eabi/lib/armv7-m/libg.a(lib_a-wcrtomb.o)
 .text.wcrtomb  0x0000000000000000       0x58 /home/aaa/.arduino15/packages/arduino/tools/arm-none-eabi-gcc/4.8.3-2014q1/bin/../lib/gcc/arm-none-eabi/4.8.3/../../../../arm-none-eabi/lib/armv7-m/libg.a(lib_a-wcrtomb.o)
 .text          0x0000000000000000        0x0 /home/aaa/.arduino15/packages/arduino/tools/arm-none-eabi-gcc/4.8.3-2014q1/bin/../lib/gcc/arm-none-eabi/4.8.3/../../../../arm-none-eabi/lib/armv7-m/libg.a(lib_a-wctomb_r.o)
 .data          0x0000000000000000        0x0 /home/aaa/.arduino15/packages/arduino/tools/arm-none-eabi-gcc/4.8.3-2014q1/bin/../lib/gcc/arm-none-eabi/4.8.3/../../../../arm-none-eabi/lib/armv7-m/libg.a(lib_a-wctomb_r.o)
 .bss           0x0000000000000000        0x0 /home/aaa/.arduino15/packages/arduino/tools/arm-none-eabi-gcc/4.8.3-2014q1/bin/../lib/gcc/arm-none-eabi/4.8.3/../../../../arm-none-eabi/lib/armv7-m/libg.a(lib_a-wctomb_r.o)
 .text._wctomb_r
                0x0000000000000000       0x30 /home/aaa/.arduino15/packages/arduino/tools/arm-none-eabi-gcc/4.8.3-2014q1/bin/../lib/gcc/arm-none-eabi/4.8.3/../../../../arm-none-eabi/lib/armv7-m/libg.a(lib_a-wctomb_r.o)
 .text          0x0000000000000000        0x0 /home/aaa/.arduino15/packages/arduino/tools/arm-none-eabi-gcc/4.8.3-2014q1/bin/../lib/gcc/arm-none-eabi/4.8.3/../../../../arm-none-eabi/lib/armv7-m/libg.a(lib_a-writer.o)
 .data          0x0000000000000000        0x0 /home/aaa/.arduino15/packages/arduino/tools/arm-none-eabi-gcc/4.8.3-2014q1/bin/../lib/gcc/arm-none-eabi/4.8.3/../../../../arm-none-eabi/lib/armv7-m/libg.a(lib_a-writer.o)
 .bss           0x0000000000000000        0x0 /home/aaa/.arduino15/packages/arduino/tools/arm-none-eabi-gcc/4.8.3-2014q1/bin/../lib/gcc/arm-none-eabi/4.8.3/../../../../arm-none-eabi/lib/armv7-m/libg.a(lib_a-writer.o)
 .text          0x0000000000000000        0x0 /home/aaa/.arduino15/packages/arduino/tools/arm-none-eabi-gcc/4.8.3-2014q1/bin/../lib/gcc/arm-none-eabi/4.8.3/../../../../arm-none-eabi/lib/armv7-m/libg.a(lib_a-__atexit.o)
 .data          0x0000000000000000        0x0 /home/aaa/.arduino15/packages/arduino/tools/arm-none-eabi-gcc/4.8.3-2014q1/bin/../lib/gcc/arm-none-eabi/4.8.3/../../../../arm-none-eabi/lib/armv7-m/libg.a(lib_a-__atexit.o)
 .bss           0x0000000000000000        0x0 /home/aaa/.arduino15/packages/arduino/tools/arm-none-eabi-gcc/4.8.3-2014q1/bin/../lib/gcc/arm-none-eabi/4.8.3/../../../../arm-none-eabi/lib/armv7-m/libg.a(lib_a-__atexit.o)
 .text          0x0000000000000000        0x0 /home/aaa/.arduino15/packages/arduino/tools/arm-none-eabi-gcc/4.8.3-2014q1/bin/../lib/gcc/arm-none-eabi/4.8.3/../../../../arm-none-eabi/lib/armv7-m/libg.a(lib_a-closer.o)
 .data          0x0000000000000000        0x0 /home/aaa/.arduino15/packages/arduino/tools/arm-none-eabi-gcc/4.8.3-2014q1/bin/../lib/gcc/arm-none-eabi/4.8.3/../../../../arm-none-eabi/lib/armv7-m/libg.a(lib_a-closer.o)
 .bss           0x0000000000000000        0x0 /home/aaa/.arduino15/packages/arduino/tools/arm-none-eabi-gcc/4.8.3-2014q1/bin/../lib/gcc/arm-none-eabi/4.8.3/../../../../arm-none-eabi/lib/armv7-m/libg.a(lib_a-closer.o)
 .text          0x0000000000000000        0x0 /home/aaa/.arduino15/packages/arduino/tools/arm-none-eabi-gcc/4.8.3-2014q1/bin/../lib/gcc/arm-none-eabi/4.8.3/../../../../arm-none-eabi/lib/armv7-m/libg.a(lib_a-fclose.o)
 .data          0x0000000000000000        0x0 /home/aaa/.arduino15/packages/arduino/tools/arm-none-eabi-gcc/4.8.3-2014q1/bin/../lib/gcc/arm-none-eabi/4.8.3/../../../../arm-none-eabi/lib/armv7-m/libg.a(lib_a-fclose.o)
 .bss           0x0000000000000000        0x0 /home/aaa/.arduino15/packages/arduino/tools/arm-none-eabi-gcc/4.8.3-2014q1/bin/../lib/gcc/arm-none-eabi/4.8.3/../../../../arm-none-eabi/lib/armv7-m/libg.a(lib_a-fclose.o)
 .text          0x0000000000000000        0x0 /home/aaa/.arduino15/packages/arduino/tools/arm-none-eabi-gcc/4.8.3-2014q1/bin/../lib/gcc/arm-none-eabi/4.8.3/../../../../arm-none-eabi/lib/armv7-m/libg.a(lib_a-fstatr.o)
 .data          0x0000000000000000        0x0 /home/aaa/.arduino15/packages/arduino/tools/arm-none-eabi-gcc/4.8.3-2014q1/bin/../lib/gcc/arm-none-eabi/4.8.3/../../../../arm-none-eabi/lib/armv7-m/libg.a(lib_a-fstatr.o)
 .bss           0x0000000000000000        0x0 /home/aaa/.arduino15/packages/arduino/tools/arm-none-eabi-gcc/4.8.3-2014q1/bin/../lib/gcc/arm-none-eabi/4.8.3/../../../../arm-none-eabi/lib/armv7-m/libg.a(lib_a-fstatr.o)
 .text          0x0000000000000000        0x0 /home/aaa/.arduino15/packages/arduino/tools/arm-none-eabi-gcc/4.8.3-2014q1/bin/../lib/gcc/arm-none-eabi/4.8.3/../../../../arm-none-eabi/lib/armv7-m/libg.a(lib_a-isattyr.o)
 .data          0x0000000000000000        0x0 /home/aaa/.arduino15/packages/arduino/tools/arm-none-eabi-gcc/4.8.3-2014q1/bin/../lib/gcc/arm-none-eabi/4.8.3/../../../../arm-none-eabi/lib/armv7-m/libg.a(lib_a-isattyr.o)
 .bss           0x0000000000000000        0x0 /home/aaa/.arduino15/packages/arduino/tools/arm-none-eabi-gcc/4.8.3-2014q1/bin/../lib/gcc/arm-none-eabi/4.8.3/../../../../arm-none-eabi/lib/armv7-m/libg.a(lib_a-isattyr.o)
 .text          0x0000000000000000        0x0 /home/aaa/.arduino15/packages/arduino/tools/arm-none-eabi-gcc/4.8.3-2014q1/bin/../lib/gcc/arm-none-eabi/4.8.3/../../../../arm-none-eabi/lib/armv7-m/libg.a(lib_a-lseekr.o)
 .data          0x0000000000000000        0x0 /home/aaa/.arduino15/packages/arduino/tools/arm-none-eabi-gcc/4.8.3-2014q1/bin/../lib/gcc/arm-none-eabi/4.8.3/../../../../arm-none-eabi/lib/armv7-m/libg.a(lib_a-lseekr.o)
 .bss           0x0000000000000000        0x0 /home/aaa/.arduino15/packages/arduino/tools/arm-none-eabi-gcc/4.8.3-2014q1/bin/../lib/gcc/arm-none-eabi/4.8.3/../../../../arm-none-eabi/lib/armv7-m/libg.a(lib_a-lseekr.o)
 .text          0x0000000000000000        0x0 /home/aaa/.arduino15/packages/arduino/tools/arm-none-eabi-gcc/4.8.3-2014q1/bin/../lib/gcc/arm-none-eabi/4.8.3/../../../../arm-none-eabi/lib/armv7-m/libg.a(lib_a-readr.o)
 .data          0x0000000000000000        0x0 /home/aaa/.arduino15/packages/arduino/tools/arm-none-eabi-gcc/4.8.3-2014q1/bin/../lib/gcc/arm-none-eabi/4.8.3/../../../../arm-none-eabi/lib/armv7-m/libg.a(lib_a-readr.o)
 .bss           0x0000000000000000        0x0 /home/aaa/.arduino15/packages/arduino/tools/arm-none-eabi-gcc/4.8.3-2014q1/bin/../lib/gcc/arm-none-eabi/4.8.3/../../../../arm-none-eabi/lib/armv7-m/libg.a(lib_a-readr.o)
 .text          0x0000000000000000        0x0 /home/aaa/.arduino15/packages/arduino/tools/arm-none-eabi-gcc/4.8.3-2014q1/bin/../lib/gcc/arm-none-eabi/4.8.3/../../../../arm-none-eabi/lib/armv7-m/libg.a(lib_a-reent.o)
 .data          0x0000000000000000        0x0 /home/aaa/.arduino15/packages/arduino/tools/arm-none-eabi-gcc/4.8.3-2014q1/bin/../lib/gcc/arm-none-eabi/4.8.3/../../../../arm-none-eabi/lib/armv7-m/libg.a(lib_a-reent.o)
 .bss           0x0000000000000000        0x0 /home/aaa/.arduino15/packages/arduino/tools/arm-none-eabi-gcc/4.8.3-2014q1/bin/../lib/gcc/arm-none-eabi/4.8.3/../../../../arm-none-eabi/lib/armv7-m/libg.a(lib_a-reent.o)
 .text.cleanup_glue
                0x0000000000000000       0x1c /home/aaa/.arduino15/packages/arduino/tools/arm-none-eabi-gcc/4.8.3-2014q1/bin/../lib/gcc/arm-none-eabi/4.8.3/../../../../arm-none-eabi/lib/armv7-m/libg.a(lib_a-reent.o)
 .text._reclaim_reent
                0x0000000000000000       0x90 /home/aaa/.arduino15/packages/arduino/tools/arm-none-eabi-gcc/4.8.3-2014q1/bin/../lib/gcc/arm-none-eabi/4.8.3/../../../../arm-none-eabi/lib/armv7-m/libg.a(lib_a-reent.o)
 .data          0x0000000000000000        0x0 /home/aaa/.arduino15/packages/arduino/tools/arm-none-eabi-gcc/4.8.3-2014q1/bin/../lib/gcc/arm-none-eabi/4.8.3/armv7-m/libgcc.a(_aeabi_uldivmod.o)
 .bss           0x0000000000000000        0x0 /home/aaa/.arduino15/packages/arduino/tools/arm-none-eabi-gcc/4.8.3-2014q1/bin/../lib/gcc/arm-none-eabi/4.8.3/armv7-m/libgcc.a(_aeabi_uldivmod.o)
 .data          0x0000000000000000        0x0 /home/aaa/.arduino15/packages/arduino/tools/arm-none-eabi-gcc/4.8.3-2014q1/bin/../lib/gcc/arm-none-eabi/4.8.3/armv7-m/libgcc.a(bpabi.o)
 .bss           0x0000000000000000        0x0 /home/aaa/.arduino15/packages/arduino/tools/arm-none-eabi-gcc/4.8.3-2014q1/bin/../lib/gcc/arm-none-eabi/4.8.3/armv7-m/libgcc.a(bpabi.o)
 .data          0x0000000000000000        0x0 /home/aaa/.arduino15/packages/arduino/tools/arm-none-eabi-gcc/4.8.3-2014q1/bin/../lib/gcc/arm-none-eabi/4.8.3/armv7-m/libgcc.a(_dvmd_tls.o)
 .bss           0x0000000000000000        0x0 /home/aaa/.arduino15/packages/arduino/tools/arm-none-eabi-gcc/4.8.3-2014q1/bin/../lib/gcc/arm-none-eabi/4.8.3/armv7-m/libgcc.a(_dvmd_tls.o)
 .data          0x0000000000000000        0x0 /home/aaa/.arduino15/packages/arduino/tools/arm-none-eabi-gcc/4.8.3-2014q1/bin/../lib/gcc/arm-none-eabi/4.8.3/armv7-m/libgcc.a(_divdi3.o)
 .bss           0x0000000000000000        0x0 /home/aaa/.arduino15/packages/arduino/tools/arm-none-eabi-gcc/4.8.3-2014q1/bin/../lib/gcc/arm-none-eabi/4.8.3/armv7-m/libgcc.a(_divdi3.o)
 .ARM.extab     0x0000000000000000        0x0 /home/aaa/.arduino15/packages/arduino/tools/arm-none-eabi-gcc/4.8.3-2014q1/bin/../lib/gcc/arm-none-eabi/4.8.3/armv7-m/libgcc.a(_divdi3.o)
 .data          0x0000000000000000        0x0 /home/aaa/.arduino15/packages/arduino/tools/arm-none-eabi-gcc/4.8.3-2014q1/bin/../lib/gcc/arm-none-eabi/4.8.3/armv7-m/libgcc.a(_udivdi3.o)
 .bss           0x0000000000000000        0x0 /home/aaa/.arduino15/packages/arduino/tools/arm-none-eabi-gcc/4.8.3-2014q1/bin/../lib/gcc/arm-none-eabi/4.8.3/armv7-m/libgcc.a(_udivdi3.o)
 .ARM.extab     0x0000000000000000        0x0 /home/aaa/.arduino15/packages/arduino/tools/arm-none-eabi-gcc/4.8.3-2014q1/bin/../lib/gcc/arm-none-eabi/4.8.3/armv7-m/libgcc.a(_udivdi3.o)
 .text          0x0000000000000000        0x0 /home/aaa/.arduino15/packages/arduino/tools/arm-none-eabi-gcc/4.8.3-2014q1/bin/../lib/gcc/arm-none-eabi/4.8.3/armv7-m/crtend.o
 .data          0x0000000000000000        0x0 /home/aaa/.arduino15/packages/arduino/tools/arm-none-eabi-gcc/4.8.3-2014q1/bin/../lib/gcc/arm-none-eabi/4.8.3/armv7-m/crtend.o
 .bss           0x0000000000000000        0x0 /home/aaa/.arduino15/packages/arduino/tools/arm-none-eabi-gcc/4.8.3-2014q1/bin/../lib/gcc/arm-none-eabi/4.8.3/armv7-m/crtend.o
 .eh_frame      0x0000000000000000        0x4 /home/aaa/.arduino15/packages/arduino/tools/arm-none-eabi-gcc/4.8.3-2014q1/bin/../lib/gcc/arm-none-eabi/4.8.3/armv7-m/crtend.o
 .jcr           0x0000000000000000        0x4 /home/aaa/.arduino15/packages/arduino/tools/arm-none-eabi-gcc/4.8.3-2014q1/bin/../lib/gcc/arm-none-eabi/4.8.3/armv7-m/crtend.o
 .ARM.attributes
                0x0000000000000000       0x2d /home/aaa/.arduino15/packages/arduino/tools/arm-none-eabi-gcc/4.8.3-2014q1/bin/../lib/gcc/arm-none-eabi/4.8.3/armv7-m/crtend.o
 .text          0x0000000000000000        0x0 /home/aaa/.arduino15/packages/arduino/tools/arm-none-eabi-gcc/4.8.3-2014q1/bin/../lib/gcc/arm-none-eabi/4.8.3/armv7-m/crtn.o
 .data          0x0000000000000000        0x0 /home/aaa/.arduino15/packages/arduino/tools/arm-none-eabi-gcc/4.8.3-2014q1/bin/../lib/gcc/arm-none-eabi/4.8.3/armv7-m/crtn.o
 .bss           0x0000000000000000        0x0 /home/aaa/.arduino15/packages/arduino/tools/arm-none-eabi-gcc/4.8.3-2014q1/bin/../lib/gcc/arm-none-eabi/4.8.3/armv7-m/crtn.o

Memory Configuration

Name             Origin             Length             Attributes
rom              0x0000000000080000 0x0000000000080000 xr
sram0            0x0000000020000000 0x0000000000010000 xrw
sram1            0x0000000020080000 0x0000000000008000 xrw
ram              0x0000000020070000 0x0000000000018000 xrw
*default*        0x0000000000000000 0xffffffffffffffff

Linker script and memory map

LOAD /home/aaa/.arduino15/packages/arduino/tools/arm-none-eabi-gcc/4.8.3-2014q1/bin/../lib/gcc/arm-none-eabi/4.8.3/armv7-m/crti.o
LOAD /home/aaa/.arduino15/packages/arduino/tools/arm-none-eabi-gcc/4.8.3-2014q1/bin/../lib/gcc/arm-none-eabi/4.8.3/armv7-m/crtbegin.o
LOAD /home/aaa/.arduino15/packages/arduino/tools/arm-none-eabi-gcc/4.8.3-2014q1/bin/../lib/gcc/arm-none-eabi/4.8.3/../../../../arm-none-eabi/lib/armv7-m/crt0.o
START GROUP
LOAD /home/aaa/llvm-arduino-due/build/Blink.ino.cpp.o
LOAD /home/aaa/llvm-arduino-due/build/core/variant.cpp.o
LOAD /home/aaa/.arduino15/packages/arduino/hardware/sam/1.6.12/variants/arduino_due_x/libsam_sam3x8e_gcc_rel.a
LOAD /home/aaa/llvm-arduino-due/build/core.a
END GROUP
LOAD /home/aaa/.arduino15/packages/arduino/tools/arm-none-eabi-gcc/4.8.3-2014q1/bin/../lib/gcc/arm-none-eabi/4.8.3/../../../../arm-none-eabi/lib/armv7-m/libm.a
START GROUP
LOAD /home/aaa/.arduino15/packages/arduino/tools/arm-none-eabi-gcc/4.8.3-2014q1/bin/../lib/gcc/arm-none-eabi/4.8.3/armv7-m/libgcc.a
LOAD /home/aaa/.arduino15/packages/arduino/tools/arm-none-eabi-gcc/4.8.3-2014q1/bin/../lib/gcc/arm-none-eabi/4.8.3/../../../../arm-none-eabi/lib/armv7-m/libg.a
LOAD /home/aaa/.arduino15/packages/arduino/tools/arm-none-eabi-gcc/4.8.3-2014q1/bin/../lib/gcc/arm-none-eabi/4.8.3/../../../../arm-none-eabi/lib/armv7-m/libc.a
END GROUP
LOAD /home/aaa/.arduino15/packages/arduino/tools/arm-none-eabi-gcc/4.8.3-2014q1/bin/../lib/gcc/arm-none-eabi/4.8.3/armv7-m/crtend.o
LOAD /home/aaa/.arduino15/packages/arduino/tools/arm-none-eabi-gcc/4.8.3-2014q1/bin/../lib/gcc/arm-none-eabi/4.8.3/armv7-m/crtn.o

.text           0x0000000000080000     0xb7b4
                0x0000000000080000                . = ALIGN (0x4)
                0x0000000000080000                _sfixed = .
 *(.vectors .vectors.*)
 .vectors       0x0000000000080000       0xf4 /home/aaa/.arduino15/packages/arduino/hardware/sam/1.6.12/variants/arduino_due_x/libsam_sam3x8e_gcc_rel.a(startup_sam3xa.o)
                0x0000000000080000                exception_table
 *(.text .text.* .gnu.linkonce.t.*)
 .text          0x00000000000800f4       0x54 /home/aaa/.arduino15/packages/arduino/tools/arm-none-eabi-gcc/4.8.3-2014q1/bin/../lib/gcc/arm-none-eabi/4.8.3/armv7-m/crtbegin.o
 .text          0x0000000000080148      0x1fa /home/aaa/llvm-arduino-due/build/Blink.ino.cpp.o
                0x0000000000080148                initVariant
                0x0000000000080190                main
                0x00000000000801d8                setup
                0x00000000000802a8                loop
                0x00000000000802f0                good()
                0x000000000008033c                __cxa_pure_virtual
 *fill*         0x0000000000080342        0x2 
 .text          0x0000000000080344      0x990 /home/aaa/llvm-arduino-due/build/core/variant.cpp.o
                0x000000000008041c                serialEvent()
                0x0000000000080464                UART_Handler
                0x0000000000080684                serialEvent1()
                0x000000000008072c                serialEvent2()
                0x00000000000807d4                serialEvent3()
                0x000000000008081c                USART0_Handler
                0x0000000000080874                USART1_Handler
                0x00000000000808cc                USART3_Handler
                0x0000000000080924                serialEventRun()
                0x00000000000809c8                init
 .text.PIO_PullUp
                0x0000000000080cd4        0xa /home/aaa/.arduino15/packages/arduino/hardware/sam/1.6.12/variants/arduino_due_x/libsam_sam3x8e_gcc_rel.a(pio.o)
                0x0000000000080cd4                PIO_PullUp
 .text.PIO_Get  0x0000000000080cde       0x14 /home/aaa/.arduino15/packages/arduino/hardware/sam/1.6.12/variants/arduino_due_x/libsam_sam3x8e_gcc_rel.a(pio.o)
                0x0000000000080cde                PIO_Get
 .text.PIO_SetPeripheral
                0x0000000000080cf2       0x26 /home/aaa/.arduino15/packages/arduino/hardware/sam/1.6.12/variants/arduino_due_x/libsam_sam3x8e_gcc_rel.a(pio.o)
                0x0000000000080cf2                PIO_SetPeripheral
 .text.PIO_SetInput
                0x0000000000080d18       0x26 /home/aaa/.arduino15/packages/arduino/hardware/sam/1.6.12/variants/arduino_due_x/libsam_sam3x8e_gcc_rel.a(pio.o)
                0x0000000000080d18                PIO_SetInput
 .text.PIO_SetOutput
                0x0000000000080d3e       0x24 /home/aaa/.arduino15/packages/arduino/hardware/sam/1.6.12/variants/arduino_due_x/libsam_sam3x8e_gcc_rel.a(pio.o)
                0x0000000000080d3e                PIO_SetOutput
 *fill*         0x0000000000080d62        0x2 
 .text.PIO_Configure
                0x0000000000080d64       0x64 /home/aaa/.arduino15/packages/arduino/hardware/sam/1.6.12/variants/arduino_due_x/libsam_sam3x8e_gcc_rel.a(pio.o)
                0x0000000000080d64                PIO_Configure
 .text.PIO_GetOutputDataStatus
                0x0000000000080dc8       0x14 /home/aaa/.arduino15/packages/arduino/hardware/sam/1.6.12/variants/arduino_due_x/libsam_sam3x8e_gcc_rel.a(pio.o)
                0x0000000000080dc8                PIO_GetOutputDataStatus
 .text.pmc_enable_upll_clock
                0x0000000000080ddc       0x14 /home/aaa/.arduino15/packages/arduino/hardware/sam/1.6.12/variants/arduino_due_x/libsam_sam3x8e_gcc_rel.a(pmc.o)
                0x0000000000080ddc                pmc_enable_upll_clock
 .text.pmc_enable_periph_clk
                0x0000000000080df0       0x44 /home/aaa/.arduino15/packages/arduino/hardware/sam/1.6.12/variants/arduino_due_x/libsam_sam3x8e_gcc_rel.a(pmc.o)
                0x0000000000080df0                pmc_enable_periph_clk
 .text.pmc_disable_periph_clk
                0x0000000000080e34       0x40 /home/aaa/.arduino15/packages/arduino/hardware/sam/1.6.12/variants/arduino_due_x/libsam_sam3x8e_gcc_rel.a(pmc.o)
                0x0000000000080e34                pmc_disable_periph_clk
 .text.pmc_switch_udpck_to_upllck
                0x0000000000080e74       0x14 /home/aaa/.arduino15/packages/arduino/hardware/sam/1.6.12/variants/arduino_due_x/libsam_sam3x8e_gcc_rel.a(pmc.o)
                0x0000000000080e74                pmc_switch_udpck_to_upllck
 .text.pmc_enable_udpck
                0x0000000000080e88        0xc /home/aaa/.arduino15/packages/arduino/hardware/sam/1.6.12/variants/arduino_due_x/libsam_sam3x8e_gcc_rel.a(pmc.o)
                0x0000000000080e88                pmc_enable_udpck
 .text.SystemInit
                0x0000000000080e94       0x88 /home/aaa/.arduino15/packages/arduino/hardware/sam/1.6.12/variants/arduino_due_x/libsam_sam3x8e_gcc_rel.a(system_sam3xa.o)
                0x0000000000080e94                SystemInit
 .text.Reset_Handler
                0x0000000000080f1c       0x78 /home/aaa/.arduino15/packages/arduino/hardware/sam/1.6.12/variants/arduino_due_x/libsam_sam3x8e_gcc_rel.a(startup_sam3xa.o)
                0x0000000000080f1c                Reset_Handler
 .text.adc_init
                0x0000000000080f94       0x98 /home/aaa/.arduino15/packages/arduino/hardware/sam/1.6.12/variants/arduino_due_x/libsam_sam3x8e_gcc_rel.a(adc.o)
                0x0000000000080f94                adc_init
 .text.adc_configure_trigger
                0x000000000008102c        0xe /home/aaa/.arduino15/packages/arduino/hardware/sam/1.6.12/variants/arduino_due_x/libsam_sam3x8e_gcc_rel.a(adc.o)
                0x000000000008102c                adc_configure_trigger
 .text.adc_configure_timing
                0x000000000008103a       0x1a /home/aaa/.arduino15/packages/arduino/hardware/sam/1.6.12/variants/arduino_due_x/libsam_sam3x8e_gcc_rel.a(adc.o)
                0x000000000008103a                adc_configure_timing
 .text.adc_start
                0x0000000000081054        0x6 /home/aaa/.arduino15/packages/arduino/hardware/sam/1.6.12/variants/arduino_due_x/libsam_sam3x8e_gcc_rel.a(adc.o)
                0x0000000000081054                adc_start
 .text.adc_enable_channel
                0x000000000008105a        0xa /home/aaa/.arduino15/packages/arduino/hardware/sam/1.6.12/variants/arduino_due_x/libsam_sam3x8e_gcc_rel.a(adc.o)
                0x000000000008105a                adc_enable_channel
 .text.adc_disable_channel
                0x0000000000081064        0xa /home/aaa/.arduino15/packages/arduino/hardware/sam/1.6.12/variants/arduino_due_x/libsam_sam3x8e_gcc_rel.a(adc.o)
                0x0000000000081064                adc_disable_channel
 .text.adc_disable_all_channel
                0x000000000008106e        0x8 /home/aaa/.arduino15/packages/arduino/hardware/sam/1.6.12/variants/arduino_due_x/libsam_sam3x8e_gcc_rel.a(adc.o)
                0x000000000008106e                adc_disable_all_channel
 .text.adc_get_channel_status
                0x0000000000081076        0xa /home/aaa/.arduino15/packages/arduino/hardware/sam/1.6.12/variants/arduino_due_x/libsam_sam3x8e_gcc_rel.a(adc.o)
                0x0000000000081076                adc_get_channel_status
 .text.adc_get_latest_value
                0x0000000000081080        0x4 /home/aaa/.arduino15/packages/arduino/hardware/sam/1.6.12/variants/arduino_due_x/libsam_sam3x8e_gcc_rel.a(adc.o)
                0x0000000000081080                adc_get_latest_value
 .text.adc_disable_interrupt
                0x0000000000081084        0x4 /home/aaa/.arduino15/packages/arduino/hardware/sam/1.6.12/variants/arduino_due_x/libsam_sam3x8e_gcc_rel.a(adc.o)
                0x0000000000081084                adc_disable_interrupt
 .text.adc_get_status
                0x0000000000081088        0x4 /home/aaa/.arduino15/packages/arduino/hardware/sam/1.6.12/variants/arduino_due_x/libsam_sam3x8e_gcc_rel.a(adc.o)
                0x0000000000081088                adc_get_status
 .text.UOTGHS_Handler
                0x000000000008108c       0x10 /home/aaa/.arduino15/packages/arduino/hardware/sam/1.6.12/variants/arduino_due_x/libsam_sam3x8e_gcc_rel.a(uotghs.o)
                0x000000000008108c                UOTGHS_Handler
 .text          0x000000000008109c      0x844 /home/aaa/llvm-arduino-due/build/core.a(wiring_analog.c.o)
                0x000000000008109c                analogReadResolution
                0x00000000000810f0                analogWriteResolution
                0x0000000000081144                analogReference
                0x000000000008119c                analogRead
                0x0000000000081378                analogOutputInit
                0x00000000000813c0                analogWrite
 .text          0x00000000000818e0      0x108 /home/aaa/llvm-arduino-due/build/core.a(cortex_handlers.c.o)
                0x00000000000818e0                DACC_Handler
                0x00000000000818e0                DebugMon_Handler
                0x00000000000818e0                DMAC_Handler
                0x00000000000818e0                TRNG_Handler
                0x00000000000818e0                HardFault_Handler
                0x00000000000818e0                TC2_Handler
                0x00000000000818e0                TWI1_Handler
                0x00000000000818e0                NMI_Handler
                0x00000000000818e0                TC7_Handler
                0x00000000000818e0                ADC_Handler
                0x00000000000818e0                SMC_Handler
                0x00000000000818e0                RTT_Handler
                0x00000000000818e0                EFC1_Handler
                0x00000000000818e0                PIOB_Handler
                0x00000000000818e0                RTC_Handler
                0x00000000000818e0                UsageFault_Handler
                0x00000000000818e0                TC6_Handler
                0x00000000000818e0                WDT_Handler
                0x00000000000818e0                CAN0_Handler
                0x00000000000818e0                TC4_Handler
                0x00000000000818e0                TC1_Handler
                0x00000000000818e0                HSMCI_Handler
                0x00000000000818e0                TC3_Handler
                0x00000000000818e0                TWI0_Handler
                0x00000000000818e0                PIOA_Handler
                0x00000000000818e0                SSC_Handler
                0x00000000000818e0                EFC0_Handler
                0x00000000000818e0                PMC_Handler
                0x00000000000818e0                PWM_Handler
                0x00000000000818e0                CAN1_Handler
                0x00000000000818e0                MemManage_Handler
                0x00000000000818e0                SUPC_Handler
                0x00000000000818e0                TC8_Handler
                0x00000000000818e0                USART2_Handler
                0x00000000000818e0                PIOD_Handler
                0x00000000000818e0                EMAC_Handler
                0x00000000000818e0                PIOC_Handler
                0x00000000000818e0                BusFault_Handler
                0x00000000000818e0                RSTC_Handler
                0x00000000000818e0                TC0_Handler
                0x00000000000818e0                TC5_Handler
                0x00000000000818e0                SPI0_Handler
                0x00000000000818e8                SVC_Handler
                0x0000000000081938                PendSV_Handler
                0x0000000000081988                SysTick_Handler
 .text          0x00000000000819e8       0x96 /home/aaa/llvm-arduino-due/build/core.a(hooks.c.o)
                0x00000000000819e8                yield
                0x0000000000081a30                sysTickHook
                0x0000000000081a78                pendSVHook
                0x0000000000081a78                svcHook
 *fill*         0x0000000000081a7e        0x2 
 .text          0x0000000000081a80      0x1e8 /home/aaa/llvm-arduino-due/build/core.a(wiring.c.o)
                0x0000000000081a80                millis
                0x0000000000081ad0                micros
                0x0000000000081bf4                delay
 .text          0x0000000000081c68      0x390 /home/aaa/llvm-arduino-due/build/core.a(syscalls_sam3.c.o)
                0x0000000000081c68                _sbrk
                0x0000000000081ce8                link
                0x0000000000081d38                _close
                0x0000000000081d84                _fstat
                0x0000000000081dd8                _isatty
                0x0000000000081e24                _lseek
                0x0000000000081e74                _read
                0x0000000000081ec4                _write
                0x0000000000081f58                _exit
                0x0000000000081f60                _kill
                0x0000000000081fac                _getpid
 .text          0x0000000000081ff8      0x41c /home/aaa/llvm-arduino-due/build/core.a(wiring_digital.c.o)
                0x0000000000081ff8                pinMode
                0x0000000000082228                digitalWrite
                0x0000000000082330                digitalRead
 .text          0x0000000000082414      0xcec /home/aaa/llvm-arduino-due/build/core.a(Print.cpp.o)
                0x0000000000082414                Print::write(unsigned char const*, unsigned int)
                0x000000000008249c                Print::print(__FlashStringHelper const*)
                0x00000000000824f4                Print::print(char const*)
                0x000000000008254c                Print::print(String const&)
                0x00000000000825b4                Print::print(char)
                0x0000000000082610                Print::print(unsigned char, int)
                0x0000000000082670                Print::print(unsigned long, int)
                0x00000000000826e8                Print::print(int, int)
                0x0000000000082744                Print::print(long, int)
                0x0000000000082800                Print::print(unsigned int, int)
                0x000000000008285c                Print::printNumber(unsigned long, unsigned char)
                0x0000000000082924                Print::print(double, int)
                0x0000000000082984                Print::printFloat(double, unsigned char)
                0x0000000000082bac                Print::println(__FlashStringHelper const*)
                0x0000000000082c14                Print::println()
                0x0000000000082c70                Print::print(Printable const&)
                0x0000000000082cc8                Print::println(String const&)
                0x0000000000082d30                Print::println(char const*)
                0x0000000000082d98                Print::println(char)
                0x0000000000082e04                Print::println(unsigned char, int)
                0x0000000000082e74                Print::println(int, int)
                0x0000000000082ee0                Print::println(unsigned int, int)
                0x0000000000082f4c                Print::println(long, int)
                0x0000000000082fb8                Print::println(unsigned long, int)
                0x0000000000083024                Print::println(double, int)
                0x0000000000083098                Print::println(Printable const&)
 .text._ZN5Print5writeEPKcj
                0x0000000000083100       0x5c /home/aaa/llvm-arduino-due/build/core.a(Print.cpp.o)
                0x0000000000083100                Print::write(char const*, unsigned int)
 .text._ZNK6String5c_strEv
                0x000000000008315c       0x4c /home/aaa/llvm-arduino-due/build/core.a(Print.cpp.o)
                0x000000000008315c                String::c_str() const
 .text._ZNK6String6lengthEv
                0x00000000000831a8       0x4c /home/aaa/llvm-arduino-due/build/core.a(Print.cpp.o)
                0x00000000000831a8                String::length() const
 .text._ZN5Print5writeEPKc
                0x00000000000831f4       0x78 /home/aaa/llvm-arduino-due/build/core.a(Print.cpp.o)
                0x00000000000831f4                Print::write(char const*)
 .text          0x000000000008326c      0x1b0 /home/aaa/llvm-arduino-due/build/core.a(USARTClass.cpp.o)
                0x000000000008326c                USARTClass::USARTClass(Usart*, IRQn, unsigned int, RingBuffer*, RingBuffer*)
                0x000000000008326c                USARTClass::USARTClass(Usart*, IRQn, unsigned int, RingBuffer*, RingBuffer*)
                0x00000000000832f8                USARTClass::begin(unsigned int)
                0x0000000000083354                USARTClass::begin(unsigned int, UARTClass::UARTModes)
                0x00000000000833b8                USARTClass::begin(unsigned int, USARTClass::USARTModes)
 .text._ZN14HardwareSerial5beginEm
                0x000000000008341c       0x4c /home/aaa/llvm-arduino-due/build/core.a(USARTClass.cpp.o)
                0x000000000008341c                HardwareSerial::begin(unsigned long)
 .text._ZN9UARTClasscvbEv
                0x0000000000083468       0x4c /home/aaa/llvm-arduino-due/build/core.a(USARTClass.cpp.o)
                0x0000000000083468                UARTClass::operator bool()
 .text          0x00000000000834b4     0x1494 /home/aaa/llvm-arduino-due/build/core.a(USBCore.cpp.o)
                0x00000000000834b4                USBD_Available(unsigned int)
                0x0000000000083520                USBD_Recv(unsigned int, void*, unsigned int)
                0x0000000000083604                USBD_Recv(unsigned int)
                0x0000000000083678                USBD_Send(unsigned int, void const*, unsigned int)
                0x000000000008373c                USBD_InitControl(int)
                0x000000000008379c                USBD_SendControl(unsigned char, void const*, unsigned int)
                0x0000000000083854                USBD_RecvControl(void*, unsigned int)
                0x00000000000838b8                USBD_ClassInterfaceRequest(USBSetup&)
                0x0000000000083938                USBD_SendInterfaces()
                0x00000000000839a4                USBD_SendOtherInterfaces()
                0x0000000000083a10                USBD_Flush(unsigned int)
                0x0000000000083a70                USBD_Connected()
                0x0000000000083b14                USBDevice_::USBDevice_()
                0x0000000000083b14                USBDevice_::USBDevice_()
                0x0000000000083f90                USBDevice_::attach()
                0x0000000000084014                USBDevice_::detach()
                0x000000000008408c                USBDevice_::configured()
                0x00000000000840e8                USBDevice_::poll()
 .text._ZN6LockEPC2Ej
                0x0000000000084948       0x58 /home/aaa/llvm-arduino-due/build/core.a(USBCore.cpp.o)
                0x0000000000084948                LockEP::LockEP(unsigned int)
 .text._ZN6LockEPD2Ev
                0x00000000000849a0       0x58 /home/aaa/llvm-arduino-due/build/core.a(USBCore.cpp.o)
                0x00000000000849a0                LockEP::~LockEP()
 .text          0x00000000000849f8      0xac0 /home/aaa/llvm-arduino-due/build/core.a(CDC.cpp.o)
                0x00000000000849f8                CDC_GetInterface(unsigned char*)
                0x0000000000084a5c                CDC_GetOtherInterface(unsigned char*)
                0x0000000000084ac0                CDC_Setup(USBSetup&)
                0x0000000000084bf0                Serial_::begin(unsigned int)
                0x0000000000084c3c                Serial_::begin(unsigned int, unsigned char)
                0x0000000000084c8c                Serial_::end()
                0x0000000000084cd4                Serial_::accept()
                0x0000000000084ddc                Serial_::available()
                0x0000000000084e44                Serial_::availableForWrite()
                0x0000000000084e90                Serial_::peek()
                0x0000000000084f0c                Serial_::read()
                0x0000000000084fbc                Serial_::flush()
                0x0000000000085010                Serial_::write(unsigned char const*, unsigned int)
                0x00000000000850ac                Serial_::write(unsigned char)
                0x000000000008510c                Serial_::operator bool()
                0x00000000000851a8                Serial_::readBreak()
                0x0000000000085240                Serial_::baud()
                0x0000000000085294                Serial_::stopbits()
                0x00000000000852e8                Serial_::paritytype()
                0x000000000008533c                Serial_::numbits()
                0x0000000000085390                Serial_::dtr()
                0x00000000000853ec                Serial_::rts()
 .text._ZN5Print13setWriteErrorEi
                0x00000000000854b8       0x50 /home/aaa/llvm-arduino-due/build/core.a(CDC.cpp.o)
                0x00000000000854b8                Print::setWriteError(int)
 .text._ZN7Serial_C2Ev
                0x0000000000085508       0x60 /home/aaa/llvm-arduino-due/build/core.a(CDC.cpp.o)
                0x0000000000085508                Serial_::Serial_()
 .text._ZN6StreamC2Ev
                0x0000000000085568       0x64 /home/aaa/llvm-arduino-due/build/core.a(CDC.cpp.o)
                0x0000000000085568                Stream::Stream()
 .text._ZN5PrintC2Ev
                0x00000000000855cc       0x5c /home/aaa/llvm-arduino-due/build/core.a(CDC.cpp.o)
                0x00000000000855cc                Print::Print()
 .text          0x0000000000085628      0x8f4 /home/aaa/llvm-arduino-due/build/core.a(UARTClass.cpp.o)
                0x0000000000085628                UARTClass::UARTClass(Uart*, IRQn, unsigned int, RingBuffer*, RingBuffer*)
                0x0000000000085628                UARTClass::UARTClass(Uart*, IRQn, unsigned int, RingBuffer*, RingBuffer*)
                0x00000000000856ac                UARTClass::begin(unsigned int)
                0x0000000000085708                UARTClass::begin(unsigned int, UARTClass::UARTModes)
                0x0000000000085770                UARTClass::init(unsigned int, unsigned int)
                0x000000000008589c                UARTClass::end()
                0x0000000000085974                UARTClass::setInterruptPriority(unsigned int)
                0x0000000000085a58                UARTClass::getInterruptPriority()
                0x0000000000085b34                UARTClass::available()
                0x0000000000085b94                UARTClass::availableForWrite()
                0x0000000000085c14                UARTClass::peek()
                0x0000000000085c88                UARTClass::read()
                0x0000000000085d14                UARTClass::flush()
                0x0000000000085d88                UARTClass::write(unsigned char)
                0x0000000000085e44                UARTClass::IrqHandler()
 .text._ZN14HardwareSerialC2Ev
                0x0000000000085f1c       0x60 /home/aaa/llvm-arduino-due/build/core.a(UARTClass.cpp.o)
                0x0000000000085f1c                HardwareSerial::HardwareSerial()
 .text._ZN14HardwareSerial3endEv
                0x0000000000085f7c       0x48 /home/aaa/llvm-arduino-due/build/core.a(UARTClass.cpp.o)
                0x0000000000085f7c                HardwareSerial::end()
 .text          0x0000000000085fc4      0x1b0 /home/aaa/llvm-arduino-due/build/core.a(watchdog.cpp.o)
                0x0000000000085fc4                watchdogEnable(unsigned int)
                0x000000000008606c                watchdogDisable()
                0x00000000000860c4                watchdogReset()
                0x000000000008611c                watchdogSetup()
                0x000000000008611c                _watchdogDefaultSetup
 .text          0x0000000000086174       0xdc /home/aaa/llvm-arduino-due/build/core.a(RingBuffer.cpp.o)
                0x0000000000086174                RingBuffer::RingBuffer()
                0x0000000000086174                RingBuffer::RingBuffer()
                0x00000000000861d8                RingBuffer::store_char(unsigned char)
 .text          0x0000000000086250      0x120 /home/aaa/llvm-arduino-due/build/core.a(Reset.cpp.o)
                0x0000000000086250                initiateReset
                0x00000000000862a4                cancelReset
                0x00000000000862f8                tickReset
 .text          0x0000000000086370      0x3f4 /home/aaa/llvm-arduino-due/build/core.a(PluggableUSB.cpp.o)
                0x0000000000086370                PluggableUSB_::getInterface(unsigned char*)
                0x0000000000086408                PluggableUSB_::getDescriptor(USBSetup&)
                0x0000000000086490                PluggableUSB_::getShortName(char*)
                0x000000000008650c                PluggableUSB_::setup(USBSetup&)
                0x0000000000086598                PluggableUSB_::plug(PluggableUSBModule*)
                0x0000000000086690                PluggableUSB()
                0x000000000008670c                PluggableUSB_::PluggableUSB_()
                0x000000000008670c                PluggableUSB_::PluggableUSB_()
 .text.FindClockConfiguration
                0x0000000000086764       0x7c /home/aaa/.arduino15/packages/arduino/hardware/sam/1.6.12/variants/arduino_due_x/libsam_sam3x8e_gcc_rel.a(pwmc.o)
 .text.PWMC_ConfigureChannel
                0x00000000000867e0       0x60 /home/aaa/.arduino15/packages/arduino/hardware/sam/1.6.12/variants/arduino_due_x/libsam_sam3x8e_gcc_rel.a(pwmc.o)
                0x00000000000867e0                PWMC_ConfigureChannel
 .text.PWMC_ConfigureClocks
                0x0000000000086840       0x54 /home/aaa/.arduino15/packages/arduino/hardware/sam/1.6.12/variants/arduino_due_x/libsam_sam3x8e_gcc_rel.a(pwmc.o)
                0x0000000000086840                PWMC_ConfigureClocks
 .text.PWMC_SetPeriod
                0x0000000000086894       0x1a /home/aaa/.arduino15/packages/arduino/hardware/sam/1.6.12/variants/arduino_due_x/libsam_sam3x8e_gcc_rel.a(pwmc.o)
                0x0000000000086894                PWMC_SetPeriod
 *fill*         0x00000000000868ae        0x2 
 .text.PWMC_SetDutyCycle
                0x00000000000868b0       0x44 /home/aaa/.arduino15/packages/arduino/hardware/sam/1.6.12/variants/arduino_due_x/libsam_sam3x8e_gcc_rel.a(pwmc.o)
                0x00000000000868b0                PWMC_SetDutyCycle
 .text.PWMC_EnableChannel
                0x00000000000868f4        0xa /home/aaa/.arduino15/packages/arduino/hardware/sam/1.6.12/variants/arduino_due_x/libsam_sam3x8e_gcc_rel.a(pwmc.o)
                0x00000000000868f4                PWMC_EnableChannel
 *fill*         0x00000000000868fe        0x2 
 .text.TC_Configure
                0x0000000000086900       0x38 /home/aaa/.arduino15/packages/arduino/hardware/sam/1.6.12/variants/arduino_due_x/libsam_sam3x8e_gcc_rel.a(tc.o)
                0x0000000000086900                TC_Configure
 .text.TC_Start
                0x0000000000086938       0x2c /home/aaa/.arduino15/packages/arduino/hardware/sam/1.6.12/variants/arduino_due_x/libsam_sam3x8e_gcc_rel.a(tc.o)
                0x0000000000086938                TC_Start
 .text.TC_SetRA
                0x0000000000086964        0x8 /home/aaa/.arduino15/packages/arduino/hardware/sam/1.6.12/variants/arduino_due_x/libsam_sam3x8e_gcc_rel.a(tc.o)
                0x0000000000086964                TC_SetRA
 .text.TC_SetRB
                0x000000000008696c        0x8 /home/aaa/.arduino15/packages/arduino/hardware/sam/1.6.12/variants/arduino_due_x/libsam_sam3x8e_gcc_rel.a(tc.o)
                0x000000000008696c                TC_SetRB
 .text.TC_SetRC
                0x0000000000086974        0x8 /home/aaa/.arduino15/packages/arduino/hardware/sam/1.6.12/variants/arduino_due_x/libsam_sam3x8e_gcc_rel.a(tc.o)
                0x0000000000086974                TC_SetRC
 .text.TimeTick_Increment
                0x000000000008697c       0x10 /home/aaa/.arduino15/packages/arduino/hardware/sam/1.6.12/variants/arduino_due_x/libsam_sam3x8e_gcc_rel.a(timetick.o)
                0x000000000008697c                TimeTick_Increment
 .text.GetTickCount
                0x000000000008698c        0xc /home/aaa/.arduino15/packages/arduino/hardware/sam/1.6.12/variants/arduino_due_x/libsam_sam3x8e_gcc_rel.a(timetick.o)
                0x000000000008698c                GetTickCount
 .text.WDT_Enable
                0x0000000000086998        0x4 /home/aaa/.arduino15/packages/arduino/hardware/sam/1.6.12/variants/arduino_due_x/libsam_sam3x8e_gcc_rel.a(wdt.o)
                0x0000000000086998                WDT_Enable
 .text.WDT_Disable
                0x000000000008699c        0x8 /home/aaa/.arduino15/packages/arduino/hardware/sam/1.6.12/variants/arduino_due_x/libsam_sam3x8e_gcc_rel.a(wdt.o)
                0x000000000008699c                WDT_Disable
 .text.WDT_Restart
                0x00000000000869a4        0xc /home/aaa/.arduino15/packages/arduino/hardware/sam/1.6.12/variants/arduino_due_x/libsam_sam3x8e_gcc_rel.a(wdt.o)
                0x00000000000869a4                WDT_Restart
 .text.UDD_SetStack
                0x00000000000869b0        0xc /home/aaa/.arduino15/packages/arduino/hardware/sam/1.6.12/variants/arduino_due_x/libsam_sam3x8e_gcc_rel.a(uotghs_device.o)
                0x00000000000869b0                UDD_SetStack
 .text.UDD_Init
                0x00000000000869bc       0xd0 /home/aaa/.arduino15/packages/arduino/hardware/sam/1.6.12/variants/arduino_due_x/libsam_sam3x8e_gcc_rel.a(uotghs_device.o)
                0x00000000000869bc                UDD_Init
 .text.UDD_Attach
                0x0000000000086a8c       0x50 /home/aaa/.arduino15/packages/arduino/hardware/sam/1.6.12/variants/arduino_due_x/libsam_sam3x8e_gcc_rel.a(uotghs_device.o)
                0x0000000000086a8c                UDD_Attach
 .text.UDD_Detach
                0x0000000000086adc       0x10 /home/aaa/.arduino15/packages/arduino/hardware/sam/1.6.12/variants/arduino_due_x/libsam_sam3x8e_gcc_rel.a(uotghs_device.o)
                0x0000000000086adc                UDD_Detach
 .text.UDD_InitEP
                0x0000000000086aec       0x2c /home/aaa/.arduino15/packages/arduino/hardware/sam/1.6.12/variants/arduino_due_x/libsam_sam3x8e_gcc_rel.a(uotghs_device.o)
                0x0000000000086aec                UDD_InitEP
 .text.UDD_InitEndpoints
                0x0000000000086b18       0x3c /home/aaa/.arduino15/packages/arduino/hardware/sam/1.6.12/variants/arduino_due_x/libsam_sam3x8e_gcc_rel.a(uotghs_device.o)
                0x0000000000086b18                UDD_InitEndpoints
 .text.UDD_WaitIN
                0x0000000000086b54       0x10 /home/aaa/.arduino15/packages/arduino/hardware/sam/1.6.12/variants/arduino_due_x/libsam_sam3x8e_gcc_rel.a(uotghs_device.o)
                0x0000000000086b54                UDD_WaitIN
 .text.UDD_WaitOUT
                0x0000000000086b64       0x10 /home/aaa/.arduino15/packages/arduino/hardware/sam/1.6.12/variants/arduino_due_x/libsam_sam3x8e_gcc_rel.a(uotghs_device.o)
                0x0000000000086b64                UDD_WaitOUT
 .text.UDD_ClearIN
                0x0000000000086b74       0x18 /home/aaa/.arduino15/packages/arduino/hardware/sam/1.6.12/variants/arduino_due_x/libsam_sam3x8e_gcc_rel.a(uotghs_device.o)
                0x0000000000086b74                UDD_ClearIN
 .text.UDD_ClearOUT
                0x0000000000086b8c       0x18 /home/aaa/.arduino15/packages/arduino/hardware/sam/1.6.12/variants/arduino_due_x/libsam_sam3x8e_gcc_rel.a(uotghs_device.o)
                0x0000000000086b8c                UDD_ClearOUT
 .text.UDD_ReceivedSetupInt
                0x0000000000086ba4       0x10 /home/aaa/.arduino15/packages/arduino/hardware/sam/1.6.12/variants/arduino_due_x/libsam_sam3x8e_gcc_rel.a(uotghs_device.o)
                0x0000000000086ba4                UDD_ReceivedSetupInt
 .text.UDD_ClearSetupInt
                0x0000000000086bb4       0x10 /home/aaa/.arduino15/packages/arduino/hardware/sam/1.6.12/variants/arduino_due_x/libsam_sam3x8e_gcc_rel.a(uotghs_device.o)
                0x0000000000086bb4                UDD_ClearSetupInt
 .text.UDD_Send
                0x0000000000086bc4       0x88 /home/aaa/.arduino15/packages/arduino/hardware/sam/1.6.12/variants/arduino_due_x/libsam_sam3x8e_gcc_rel.a(uotghs_device.o)
                0x0000000000086bc4                UDD_Send
 .text.UDD_Send8
                0x0000000000086c4c       0x24 /home/aaa/.arduino15/packages/arduino/hardware/sam/1.6.12/variants/arduino_due_x/libsam_sam3x8e_gcc_rel.a(uotghs_device.o)
                0x0000000000086c4c                UDD_Send8
 .text.UDD_Recv8
                0x0000000000086c70       0x28 /home/aaa/.arduino15/packages/arduino/hardware/sam/1.6.12/variants/arduino_due_x/libsam_sam3x8e_gcc_rel.a(uotghs_device.o)
                0x0000000000086c70                UDD_Recv8
 .text.UDD_Recv
                0x0000000000086c98       0x34 /home/aaa/.arduino15/packages/arduino/hardware/sam/1.6.12/variants/arduino_due_x/libsam_sam3x8e_gcc_rel.a(uotghs_device.o)
                0x0000000000086c98                UDD_Recv
 .text.UDD_Stall
                0x0000000000086ccc       0x14 /home/aaa/.arduino15/packages/arduino/hardware/sam/1.6.12/variants/arduino_due_x/libsam_sam3x8e_gcc_rel.a(uotghs_device.o)
                0x0000000000086ccc                UDD_Stall
 .text.UDD_FifoByteCount
                0x0000000000086ce0       0x14 /home/aaa/.arduino15/packages/arduino/hardware/sam/1.6.12/variants/arduino_due_x/libsam_sam3x8e_gcc_rel.a(uotghs_device.o)
                0x0000000000086ce0                UDD_FifoByteCount
 .text.UDD_ReleaseRX
                0x0000000000086cf4       0x28 /home/aaa/.arduino15/packages/arduino/hardware/sam/1.6.12/variants/arduino_due_x/libsam_sam3x8e_gcc_rel.a(uotghs_device.o)
                0x0000000000086cf4                UDD_ReleaseRX
 .text.UDD_ReleaseTX
                0x0000000000086d1c       0x28 /home/aaa/.arduino15/packages/arduino/hardware/sam/1.6.12/variants/arduino_due_x/libsam_sam3x8e_gcc_rel.a(uotghs_device.o)
                0x0000000000086d1c                UDD_ReleaseTX
 .text.UDD_SetAddress
                0x0000000000086d44       0x20 /home/aaa/.arduino15/packages/arduino/hardware/sam/1.6.12/variants/arduino_due_x/libsam_sam3x8e_gcc_rel.a(uotghs_device.o)
                0x0000000000086d44                UDD_SetAddress
 .text.UDD_GetFrameNumber
                0x0000000000086d64       0x10 /home/aaa/.arduino15/packages/arduino/hardware/sam/1.6.12/variants/arduino_due_x/libsam_sam3x8e_gcc_rel.a(uotghs_device.o)
                0x0000000000086d64                UDD_GetFrameNumber
 .text.dacc_reset
                0x0000000000086d74        0x6 /home/aaa/.arduino15/packages/arduino/hardware/sam/1.6.12/variants/arduino_due_x/libsam_sam3x8e_gcc_rel.a(dacc.o)
                0x0000000000086d74                dacc_reset
 .text.dacc_set_transfer_mode
                0x0000000000086d7a       0x14 /home/aaa/.arduino15/packages/arduino/hardware/sam/1.6.12/variants/arduino_due_x/libsam_sam3x8e_gcc_rel.a(dacc.o)
                0x0000000000086d7a                dacc_set_transfer_mode
 .text.dacc_get_interrupt_status
                0x0000000000086d8e        0x4 /home/aaa/.arduino15/packages/arduino/hardware/sam/1.6.12/variants/arduino_due_x/libsam_sam3x8e_gcc_rel.a(dacc.o)
                0x0000000000086d8e                dacc_get_interrupt_status
 .text.dacc_write_conversion_data
                0x0000000000086d92        0x4 /home/aaa/.arduino15/packages/arduino/hardware/sam/1.6.12/variants/arduino_due_x/libsam_sam3x8e_gcc_rel.a(dacc.o)
                0x0000000000086d92                dacc_write_conversion_data
 .text.dacc_set_channel_selection
                0x0000000000086d96       0x18 /home/aaa/.arduino15/packages/arduino/hardware/sam/1.6.12/variants/arduino_due_x/libsam_sam3x8e_gcc_rel.a(dacc.o)
                0x0000000000086d96                dacc_set_channel_selection
 .text.dacc_set_power_save
                0x0000000000086dae       0x24 /home/aaa/.arduino15/packages/arduino/hardware/sam/1.6.12/variants/arduino_due_x/libsam_sam3x8e_gcc_rel.a(dacc.o)
                0x0000000000086dae                dacc_set_power_save
 .text.dacc_set_timing
                0x0000000000086dd2       0x2c /home/aaa/.arduino15/packages/arduino/hardware/sam/1.6.12/variants/arduino_due_x/libsam_sam3x8e_gcc_rel.a(dacc.o)
                0x0000000000086dd2                dacc_set_timing
 .text.dacc_enable_channel
                0x0000000000086dfe       0x12 /home/aaa/.arduino15/packages/arduino/hardware/sam/1.6.12/variants/arduino_due_x/libsam_sam3x8e_gcc_rel.a(dacc.o)
                0x0000000000086dfe                dacc_enable_channel
 .text.dacc_get_channel_status
                0x0000000000086e10        0x4 /home/aaa/.arduino15/packages/arduino/hardware/sam/1.6.12/variants/arduino_due_x/libsam_sam3x8e_gcc_rel.a(dacc.o)
                0x0000000000086e10                dacc_get_channel_status
 .text.dacc_set_analog_control
                0x0000000000086e14        0x8 /home/aaa/.arduino15/packages/arduino/hardware/sam/1.6.12/variants/arduino_due_x/libsam_sam3x8e_gcc_rel.a(dacc.o)
                0x0000000000086e14                dacc_set_analog_control
 .text.__fpclassifyd
                0x0000000000086e1c       0x50 /home/aaa/.arduino15/packages/arduino/tools/arm-none-eabi-gcc/4.8.3-2014q1/bin/../lib/gcc/arm-none-eabi/4.8.3/../../../../arm-none-eabi/lib/armv7-m/libm.a(lib_a-s_fpclassify.o)
                0x0000000000086e1c                __fpclassifyd
 .text          0x0000000000086e6c      0x370 /home/aaa/.arduino15/packages/arduino/tools/arm-none-eabi-gcc/4.8.3-2014q1/bin/../lib/gcc/arm-none-eabi/4.8.3/armv7-m/libgcc.a(_arm_addsubdf3.o)
                0x0000000000086e6c                __aeabi_drsub
                0x0000000000086e74                __aeabi_dsub
                0x0000000000086e74                __subdf3
                0x0000000000086e78                __adddf3
                0x0000000000086e78                __aeabi_dadd
                0x00000000000870f0                __aeabi_ui2d
                0x00000000000870f0                __floatunsidf
                0x0000000000087110                __floatsidf
                0x0000000000087110                __aeabi_i2d
                0x0000000000087134                __extendsfdf2
                0x0000000000087134                __aeabi_f2d
                0x0000000000087170                __aeabi_ul2d
                0x0000000000087170                __floatundidf
                0x0000000000087180                __floatdidf
                0x0000000000087180                __aeabi_l2d
 .text          0x00000000000871dc      0x424 /home/aaa/.arduino15/packages/arduino/tools/arm-none-eabi-gcc/4.8.3-2014q1/bin/../lib/gcc/arm-none-eabi/4.8.3/armv7-m/libgcc.a(_arm_muldivdf3.o)
                0x00000000000871dc                __aeabi_dmul
                0x00000000000871dc                __muldf3
                0x0000000000087430                __aeabi_ddiv
                0x0000000000087430                __divdf3
 .text          0x0000000000087600      0x110 /home/aaa/.arduino15/packages/arduino/tools/arm-none-eabi-gcc/4.8.3-2014q1/bin/../lib/gcc/arm-none-eabi/4.8.3/armv7-m/libgcc.a(_arm_cmpdf2.o)
                0x0000000000087600                __gtdf2
                0x0000000000087600                __gedf2
                0x0000000000087608                __ltdf2
                0x0000000000087608                __ledf2
                0x0000000000087610                __cmpdf2
                0x0000000000087610                __eqdf2
                0x0000000000087610                __nedf2
                0x000000000008768c                __aeabi_cdrcmple
                0x000000000008769c                __aeabi_cdcmple
                0x000000000008769c                __aeabi_cdcmpeq
                0x00000000000876ac                __aeabi_dcmpeq
                0x00000000000876c0                __aeabi_dcmplt
                0x00000000000876d4                __aeabi_dcmple
                0x00000000000876e8                __aeabi_dcmpge
                0x00000000000876fc                __aeabi_dcmpgt
 .text          0x0000000000087710       0x40 /home/aaa/.arduino15/packages/arduino/tools/arm-none-eabi-gcc/4.8.3-2014q1/bin/../lib/gcc/arm-none-eabi/4.8.3/armv7-m/libgcc.a(_arm_fixunsdfsi.o)
                0x0000000000087710                __fixunsdfsi
                0x0000000000087710                __aeabi_d2uiz
 .text.__assert_func
                0x0000000000087750       0x3c /home/aaa/.arduino15/packages/arduino/tools/arm-none-eabi-gcc/4.8.3-2014q1/bin/../lib/gcc/arm-none-eabi/4.8.3/../../../../arm-none-eabi/lib/armv7-m/libg.a(lib_a-assert.o)
                0x0000000000087750                __assert_func
 .text.fiprintf
                0x000000000008778c       0x28 /home/aaa/.arduino15/packages/arduino/tools/arm-none-eabi-gcc/4.8.3-2014q1/bin/../lib/gcc/arm-none-eabi/4.8.3/../../../../arm-none-eabi/lib/armv7-m/libg.a(lib_a-fiprintf.o)
                0x000000000008778c                fiprintf
 .text.__libc_init_array
                0x00000000000877b4       0x50 /home/aaa/.arduino15/packages/arduino/tools/arm-none-eabi-gcc/4.8.3-2014q1/bin/../lib/gcc/arm-none-eabi/4.8.3/../../../../arm-none-eabi/lib/armv7-m/libg.a(lib_a-init.o)
                0x00000000000877b4                __libc_init_array
 .text.memset   0x0000000000087804       0x94 /home/aaa/.arduino15/packages/arduino/tools/arm-none-eabi-gcc/4.8.3-2014q1/bin/../lib/gcc/arm-none-eabi/4.8.3/../../../../arm-none-eabi/lib/armv7-m/libg.a(lib_a-memset.o)
                0x0000000000087804                memset
 .text.strlen   0x0000000000087898       0x60 /home/aaa/.arduino15/packages/arduino/tools/arm-none-eabi-gcc/4.8.3-2014q1/bin/../lib/gcc/arm-none-eabi/4.8.3/../../../../arm-none-eabi/lib/armv7-m/libg.a(lib_a-strlen.o)
                0x0000000000087898                strlen
 .text.kill     0x00000000000878f8       0x10 /home/aaa/.arduino15/packages/arduino/tools/arm-none-eabi-gcc/4.8.3-2014q1/bin/../lib/gcc/arm-none-eabi/4.8.3/../../../../arm-none-eabi/lib/armv7-m/libg.a(lib_a-syskill.o)
                0x00000000000878f8                kill
 .text.__sprint_r.part.0
                0x0000000000087908       0x78 /home/aaa/.arduino15/packages/arduino/tools/arm-none-eabi-gcc/4.8.3-2014q1/bin/../lib/gcc/arm-none-eabi/4.8.3/../../../../arm-none-eabi/lib/armv7-m/libg.a(lib_a-vfiprintf.o)
 .text._vfiprintf_r
                0x0000000000087980      0xc54 /home/aaa/.arduino15/packages/arduino/tools/arm-none-eabi-gcc/4.8.3-2014q1/bin/../lib/gcc/arm-none-eabi/4.8.3/../../../../arm-none-eabi/lib/armv7-m/libg.a(lib_a-vfiprintf.o)
                0x0000000000087980                _vfiprintf_r
 .text.__sbprintf
                0x00000000000885d4       0x7c /home/aaa/.arduino15/packages/arduino/tools/arm-none-eabi-gcc/4.8.3-2014q1/bin/../lib/gcc/arm-none-eabi/4.8.3/../../../../arm-none-eabi/lib/armv7-m/libg.a(lib_a-vfiprintf.o)
 .text.__swsetup_r
                0x0000000000088650       0xc4 /home/aaa/.arduino15/packages/arduino/tools/arm-none-eabi-gcc/4.8.3-2014q1/bin/../lib/gcc/arm-none-eabi/4.8.3/../../../../arm-none-eabi/lib/armv7-m/libg.a(lib_a-wsetup.o)
                0x0000000000088650                __swsetup_r
 .text.startup.register_fini
                0x0000000000088714       0x14 /home/aaa/.arduino15/packages/arduino/tools/arm-none-eabi-gcc/4.8.3-2014q1/bin/../lib/gcc/arm-none-eabi/4.8.3/../../../../arm-none-eabi/lib/armv7-m/libg.a(lib_a-__call_atexit.o)
 .text.abort    0x0000000000088728       0x10 /home/aaa/.arduino15/packages/arduino/tools/arm-none-eabi-gcc/4.8.3-2014q1/bin/../lib/gcc/arm-none-eabi/4.8.3/../../../../arm-none-eabi/lib/armv7-m/libg.a(lib_a-abort.o)
                0x0000000000088728                abort
 .text.atexit   0x0000000000088738        0xc /home/aaa/.arduino15/packages/arduino/tools/arm-none-eabi-gcc/4.8.3-2014q1/bin/../lib/gcc/arm-none-eabi/4.8.3/../../../../arm-none-eabi/lib/armv7-m/libg.a(lib_a-atexit.o)
                0x0000000000088738                atexit
 .text.__sflush_r
                0x0000000000088744      0x148 /home/aaa/.arduino15/packages/arduino/tools/arm-none-eabi-gcc/4.8.3-2014q1/bin/../lib/gcc/arm-none-eabi/4.8.3/../../../../arm-none-eabi/lib/armv7-m/libg.a(lib_a-fflush.o)
                0x0000000000088744                __sflush_r
 .text._fflush_r
                0x000000000008888c       0x2c /home/aaa/.arduino15/packages/arduino/tools/arm-none-eabi-gcc/4.8.3-2014q1/bin/../lib/gcc/arm-none-eabi/4.8.3/../../../../arm-none-eabi/lib/armv7-m/libg.a(lib_a-fflush.o)
                0x000000000008888c                _fflush_r
 .text._cleanup_r
                0x00000000000888b8        0xc /home/aaa/.arduino15/packages/arduino/tools/arm-none-eabi-gcc/4.8.3-2014q1/bin/../lib/gcc/arm-none-eabi/4.8.3/../../../../arm-none-eabi/lib/armv7-m/libg.a(lib_a-findfp.o)
                0x00000000000888b8                _cleanup_r
 .text.__sinit  0x00000000000888c4       0xf4 /home/aaa/.arduino15/packages/arduino/tools/arm-none-eabi-gcc/4.8.3-2014q1/bin/../lib/gcc/arm-none-eabi/4.8.3/../../../../arm-none-eabi/lib/armv7-m/libg.a(lib_a-findfp.o)
                0x00000000000888c4                __sinit
 .text.__sfp_lock_acquire
                0x00000000000889b8        0x4 /home/aaa/.arduino15/packages/arduino/tools/arm-none-eabi-gcc/4.8.3-2014q1/bin/../lib/gcc/arm-none-eabi/4.8.3/../../../../arm-none-eabi/lib/armv7-m/libg.a(lib_a-findfp.o)
                0x00000000000889b8                __sfp_lock_acquire
 .text.__sfp_lock_release
                0x00000000000889bc        0x4 /home/aaa/.arduino15/packages/arduino/tools/arm-none-eabi-gcc/4.8.3-2014q1/bin/../lib/gcc/arm-none-eabi/4.8.3/../../../../arm-none-eabi/lib/armv7-m/libg.a(lib_a-findfp.o)
                0x00000000000889bc                __sfp_lock_release
 .text.__libc_fini_array
                0x00000000000889c0       0x30 /home/aaa/.arduino15/packages/arduino/tools/arm-none-eabi-gcc/4.8.3-2014q1/bin/../lib/gcc/arm-none-eabi/4.8.3/../../../../arm-none-eabi/lib/armv7-m/libg.a(lib_a-fini.o)
                0x00000000000889c0                __libc_fini_array
 .text._fputwc_r
                0x00000000000889f0       0xc0 /home/aaa/.arduino15/packages/arduino/tools/arm-none-eabi-gcc/4.8.3-2014q1/bin/../lib/gcc/arm-none-eabi/4.8.3/../../../../arm-none-eabi/lib/armv7-m/libg.a(lib_a-fputwc.o)
                0x00000000000889f0                _fputwc_r
 .text._malloc_trim_r
                0x0000000000088ab0       0x9c /home/aaa/.arduino15/packages/arduino/tools/arm-none-eabi-gcc/4.8.3-2014q1/bin/../lib/gcc/arm-none-eabi/4.8.3/../../../../arm-none-eabi/lib/armv7-m/libg.a(lib_a-freer.o)
                0x0000000000088ab0                _malloc_trim_r
 .text._free_r  0x0000000000088b4c      0x198 /home/aaa/.arduino15/packages/arduino/tools/arm-none-eabi-gcc/4.8.3-2014q1/bin/../lib/gcc/arm-none-eabi/4.8.3/../../../../arm-none-eabi/lib/armv7-m/libg.a(lib_a-freer.o)
                0x0000000000088b4c                _free_r
 .text.__sfvwrite_r
                0x0000000000088ce4      0x314 /home/aaa/.arduino15/packages/arduino/tools/arm-none-eabi-gcc/4.8.3-2014q1/bin/../lib/gcc/arm-none-eabi/4.8.3/../../../../arm-none-eabi/lib/armv7-m/libg.a(lib_a-fvwrite.o)
                0x0000000000088ce4                __sfvwrite_r
 .text._fwalk   0x0000000000088ff8       0x48 /home/aaa/.arduino15/packages/arduino/tools/arm-none-eabi-gcc/4.8.3-2014q1/bin/../lib/gcc/arm-none-eabi/4.8.3/../../../../arm-none-eabi/lib/armv7-m/libg.a(lib_a-fwalk.o)
                0x0000000000088ff8                _fwalk
 .text.__locale_charset
                0x0000000000089040        0x8 /home/aaa/.arduino15/packages/arduino/tools/arm-none-eabi-gcc/4.8.3-2014q1/bin/../lib/gcc/arm-none-eabi/4.8.3/../../../../arm-none-eabi/lib/armv7-m/libg.a(lib_a-locale.o)
                0x0000000000089040                __locale_charset
 .text.__locale_mb_cur_max
                0x0000000000089048        0xc /home/aaa/.arduino15/packages/arduino/tools/arm-none-eabi-gcc/4.8.3-2014q1/bin/../lib/gcc/arm-none-eabi/4.8.3/../../../../arm-none-eabi/lib/armv7-m/libg.a(lib_a-locale.o)
                0x0000000000089048                __locale_mb_cur_max
 .text.__smakebuf_r
                0x0000000000089054       0xe0 /home/aaa/.arduino15/packages/arduino/tools/arm-none-eabi-gcc/4.8.3-2014q1/bin/../lib/gcc/arm-none-eabi/4.8.3/../../../../arm-none-eabi/lib/armv7-m/libg.a(lib_a-makebuf.o)
                0x0000000000089054                __smakebuf_r
 .text._malloc_r
                0x0000000000089134      0x538 /home/aaa/.arduino15/packages/arduino/tools/arm-none-eabi-gcc/4.8.3-2014q1/bin/../lib/gcc/arm-none-eabi/4.8.3/../../../../arm-none-eabi/lib/armv7-m/libg.a(lib_a-mallocr.o)
                0x0000000000089134                _malloc_r
 .text.memchr   0x000000000008966c       0x94 /home/aaa/.arduino15/packages/arduino/tools/arm-none-eabi-gcc/4.8.3-2014q1/bin/../lib/gcc/arm-none-eabi/4.8.3/../../../../arm-none-eabi/lib/armv7-m/libg.a(lib_a-memchr-stub.o)
                0x000000000008966c                memchr
 .text          0x0000000000089700       0xec /home/aaa/.arduino15/packages/arduino/tools/arm-none-eabi-gcc/4.8.3-2014q1/bin/../lib/gcc/arm-none-eabi/4.8.3/../../../../arm-none-eabi/lib/armv7-m/libg.a(lib_a-memcpy.o)
                0x0000000000089700                memcpy
 .text.memmove  0x00000000000897ec       0xcc /home/aaa/.arduino15/packages/arduino/tools/arm-none-eabi-gcc/4.8.3-2014q1/bin/../lib/gcc/arm-none-eabi/4.8.3/../../../../arm-none-eabi/lib/armv7-m/libg.a(lib_a-memmove.o)
                0x00000000000897ec                memmove
 .text.__malloc_lock
                0x00000000000898b8        0x4 /home/aaa/.arduino15/packages/arduino/tools/arm-none-eabi-gcc/4.8.3-2014q1/bin/../lib/gcc/arm-none-eabi/4.8.3/../../../../arm-none-eabi/lib/armv7-m/libg.a(lib_a-mlock.o)
                0x00000000000898b8                __malloc_lock
 .text.__malloc_unlock
                0x00000000000898bc        0x4 /home/aaa/.arduino15/packages/arduino/tools/arm-none-eabi-gcc/4.8.3-2014q1/bin/../lib/gcc/arm-none-eabi/4.8.3/../../../../arm-none-eabi/lib/armv7-m/libg.a(lib_a-mlock.o)
                0x00000000000898bc                __malloc_unlock
 .text._realloc_r
                0x00000000000898c0      0x3c0 /home/aaa/.arduino15/packages/arduino/tools/arm-none-eabi-gcc/4.8.3-2014q1/bin/../lib/gcc/arm-none-eabi/4.8.3/../../../../arm-none-eabi/lib/armv7-m/libg.a(lib_a-reallocr.o)
                0x00000000000898c0                _realloc_r
 .text._sbrk_r  0x0000000000089c80       0x24 /home/aaa/.arduino15/packages/arduino/tools/arm-none-eabi-gcc/4.8.3-2014q1/bin/../lib/gcc/arm-none-eabi/4.8.3/../../../../arm-none-eabi/lib/armv7-m/libg.a(lib_a-sbrkr.o)
                0x0000000000089c80                _sbrk_r
 .text._raise_r
                0x0000000000089ca4       0x58 /home/aaa/.arduino15/packages/arduino/tools/arm-none-eabi-gcc/4.8.3-2014q1/bin/../lib/gcc/arm-none-eabi/4.8.3/../../../../arm-none-eabi/lib/armv7-m/libg.a(lib_a-signal.o)
                0x0000000000089ca4                _raise_r
 .text.raise    0x0000000000089cfc       0x10 /home/aaa/.arduino15/packages/arduino/tools/arm-none-eabi-gcc/4.8.3-2014q1/bin/../lib/gcc/arm-none-eabi/4.8.3/../../../../arm-none-eabi/lib/armv7-m/libg.a(lib_a-signal.o)
                0x0000000000089cfc                raise
 .text._kill_r  0x0000000000089d0c       0x28 /home/aaa/.arduino15/packages/arduino/tools/arm-none-eabi-gcc/4.8.3-2014q1/bin/../lib/gcc/arm-none-eabi/4.8.3/../../../../arm-none-eabi/lib/armv7-m/libg.a(lib_a-signalr.o)
                0x0000000000089d0c                _kill_r
 .text._getpid_r
                0x0000000000089d34        0x4 /home/aaa/.arduino15/packages/arduino/tools/arm-none-eabi-gcc/4.8.3-2014q1/bin/../lib/gcc/arm-none-eabi/4.8.3/../../../../arm-none-eabi/lib/armv7-m/libg.a(lib_a-signalr.o)
                0x0000000000089d34                _getpid_r
 .text.__sread  0x0000000000089d38       0x24 /home/aaa/.arduino15/packages/arduino/tools/arm-none-eabi-gcc/4.8.3-2014q1/bin/../lib/gcc/arm-none-eabi/4.8.3/../../../../arm-none-eabi/lib/armv7-m/libg.a(lib_a-stdio.o)
                0x0000000000089d38                __sread
 .text.__swrite
                0x0000000000089d5c       0x38 /home/aaa/.arduino15/packages/arduino/tools/arm-none-eabi-gcc/4.8.3-2014q1/bin/../lib/gcc/arm-none-eabi/4.8.3/../../../../arm-none-eabi/lib/armv7-m/libg.a(lib_a-stdio.o)
                0x0000000000089d5c                __swrite
 .text.__sseek  0x0000000000089d94       0x20 /home/aaa/.arduino15/packages/arduino/tools/arm-none-eabi-gcc/4.8.3-2014q1/bin/../lib/gcc/arm-none-eabi/4.8.3/../../../../arm-none-eabi/lib/armv7-m/libg.a(lib_a-stdio.o)
                0x0000000000089d94                __sseek
 .text.__sclose
                0x0000000000089db4        0x8 /home/aaa/.arduino15/packages/arduino/tools/arm-none-eabi-gcc/4.8.3-2014q1/bin/../lib/gcc/arm-none-eabi/4.8.3/../../../../arm-none-eabi/lib/armv7-m/libg.a(lib_a-stdio.o)
                0x0000000000089db4                __sclose
 .text.__swbuf_r
                0x0000000000089dbc       0xa8 /home/aaa/.arduino15/packages/arduino/tools/arm-none-eabi-gcc/4.8.3-2014q1/bin/../lib/gcc/arm-none-eabi/4.8.3/../../../../arm-none-eabi/lib/armv7-m/libg.a(lib_a-wbuf.o)
                0x0000000000089dbc                __swbuf_r
 .text._wcrtomb_r
                0x0000000000089e64       0x50 /home/aaa/.arduino15/packages/arduino/tools/arm-none-eabi-gcc/4.8.3-2014q1/bin/../lib/gcc/arm-none-eabi/4.8.3/../../../../arm-none-eabi/lib/armv7-m/libg.a(lib_a-wcrtomb.o)
                0x0000000000089e64                _wcrtomb_r
 .text.__ascii_wctomb
                0x0000000000089eb4       0x1c /home/aaa/.arduino15/packages/arduino/tools/arm-none-eabi-gcc/4.8.3-2014q1/bin/../lib/gcc/arm-none-eabi/4.8.3/../../../../arm-none-eabi/lib/armv7-m/libg.a(lib_a-wctomb_r.o)
                0x0000000000089eb4                __ascii_wctomb
 .text._write_r
                0x0000000000089ed0       0x28 /home/aaa/.arduino15/packages/arduino/tools/arm-none-eabi-gcc/4.8.3-2014q1/bin/../lib/gcc/arm-none-eabi/4.8.3/../../../../arm-none-eabi/lib/armv7-m/libg.a(lib_a-writer.o)
                0x0000000000089ed0                _write_r
 .text.__register_exitproc
                0x0000000000089ef8       0xa8 /home/aaa/.arduino15/packages/arduino/tools/arm-none-eabi-gcc/4.8.3-2014q1/bin/../lib/gcc/arm-none-eabi/4.8.3/../../../../arm-none-eabi/lib/armv7-m/libg.a(lib_a-__atexit.o)
                0x0000000000089ef8                __register_exitproc
 .text._close_r
                0x0000000000089fa0       0x24 /home/aaa/.arduino15/packages/arduino/tools/arm-none-eabi-gcc/4.8.3-2014q1/bin/../lib/gcc/arm-none-eabi/4.8.3/../../../../arm-none-eabi/lib/armv7-m/libg.a(lib_a-closer.o)
                0x0000000000089fa0                _close_r
 .text._fclose_r
                0x0000000000089fc4       0x80 /home/aaa/.arduino15/packages/arduino/tools/arm-none-eabi-gcc/4.8.3-2014q1/bin/../lib/gcc/arm-none-eabi/4.8.3/../../../../arm-none-eabi/lib/armv7-m/libg.a(lib_a-fclose.o)
                0x0000000000089fc4                _fclose_r
 .text.fclose   0x000000000008a044       0x10 /home/aaa/.arduino15/packages/arduino/tools/arm-none-eabi-gcc/4.8.3-2014q1/bin/../lib/gcc/arm-none-eabi/4.8.3/../../../../arm-none-eabi/lib/armv7-m/libg.a(lib_a-fclose.o)
                0x000000000008a044                fclose
 .text._fstat_r
                0x000000000008a054       0x28 /home/aaa/.arduino15/packages/arduino/tools/arm-none-eabi-gcc/4.8.3-2014q1/bin/../lib/gcc/arm-none-eabi/4.8.3/../../../../arm-none-eabi/lib/armv7-m/libg.a(lib_a-fstatr.o)
                0x000000000008a054                _fstat_r
 .text._isatty_r
                0x000000000008a07c       0x24 /home/aaa/.arduino15/packages/arduino/tools/arm-none-eabi-gcc/4.8.3-2014q1/bin/../lib/gcc/arm-none-eabi/4.8.3/../../../../arm-none-eabi/lib/armv7-m/libg.a(lib_a-isattyr.o)
                0x000000000008a07c                _isatty_r
 .text._lseek_r
                0x000000000008a0a0       0x28 /home/aaa/.arduino15/packages/arduino/tools/arm-none-eabi-gcc/4.8.3-2014q1/bin/../lib/gcc/arm-none-eabi/4.8.3/../../../../arm-none-eabi/lib/armv7-m/libg.a(lib_a-lseekr.o)
                0x000000000008a0a0                _lseek_r
 .text._read_r  0x000000000008a0c8       0x28 /home/aaa/.arduino15/packages/arduino/tools/arm-none-eabi-gcc/4.8.3-2014q1/bin/../lib/gcc/arm-none-eabi/4.8.3/../../../../arm-none-eabi/lib/armv7-m/libg.a(lib_a-readr.o)
                0x000000000008a0c8                _read_r
 .text          0x000000000008a0f0       0x2c /home/aaa/.arduino15/packages/arduino/tools/arm-none-eabi-gcc/4.8.3-2014q1/bin/../lib/gcc/arm-none-eabi/4.8.3/armv7-m/libgcc.a(_aeabi_uldivmod.o)
                0x000000000008a0f0                __aeabi_uldivmod
 .text          0x000000000008a11c       0x60 /home/aaa/.arduino15/packages/arduino/tools/arm-none-eabi-gcc/4.8.3-2014q1/bin/../lib/gcc/arm-none-eabi/4.8.3/armv7-m/libgcc.a(bpabi.o)
                0x000000000008a11c                __gnu_ldivmod_helper
                0x000000000008a14c                __gnu_uldivmod_helper
 .text          0x000000000008a17c        0x4 /home/aaa/.arduino15/packages/arduino/tools/arm-none-eabi-gcc/4.8.3-2014q1/bin/../lib/gcc/arm-none-eabi/4.8.3/armv7-m/libgcc.a(_dvmd_tls.o)
                0x000000000008a17c                __aeabi_ldiv0
                0x000000000008a17c                __aeabi_idiv0
 .text          0x000000000008a180      0x2a0 /home/aaa/.arduino15/packages/arduino/tools/arm-none-eabi-gcc/4.8.3-2014q1/bin/../lib/gcc/arm-none-eabi/4.8.3/armv7-m/libgcc.a(_divdi3.o)
                0x000000000008a180                __divdi3
 .text          0x000000000008a420      0x290 /home/aaa/.arduino15/packages/arduino/tools/arm-none-eabi-gcc/4.8.3-2014q1/bin/../lib/gcc/arm-none-eabi/4.8.3/armv7-m/libgcc.a(_udivdi3.o)
                0x000000000008a420                __udivdi3
 *(.glue_7t)
 .glue_7t       0x0000000000000000        0x0 linker stubs
 *(.glue_7)
 .glue_7        0x0000000000000000        0x0 linker stubs
 *(.rodata .rodata* .gnu.linkonce.r.*)
 .rodata.str1.1
                0x000000000008a6b0       0x3b /home/aaa/llvm-arduino-due/build/Blink.ino.cpp.o
 *fill*         0x000000000008a6eb        0x1 
 .rodata        0x000000000008a6ec      0xa2c /home/aaa/llvm-arduino-due/build/core/variant.cpp.o
                0x000000000008a6ec                g_APinDescription
 .rodata        0x000000000008b118       0x40 /home/aaa/.arduino15/packages/arduino/hardware/sam/1.6.12/variants/arduino_due_x/libsam_sam3x8e_gcc_rel.a(adc.o)
 .rodata        0x000000000008b158       0xd8 /home/aaa/llvm-arduino-due/build/core.a(wiring_analog.c.o)
 .rodata.str1.1
                0x000000000008b230        0xf /home/aaa/llvm-arduino-due/build/core.a(Print.cpp.o)
 *fill*         0x000000000008b23f        0x1 
 .rodata        0x000000000008b240       0x10 /home/aaa/llvm-arduino-due/build/core.a(Print.cpp.o)
                0x000000000008b240                vtable for Print
 .rodata._ZTV10USARTClass
                0x000000000008b250       0x2c /home/aaa/llvm-arduino-due/build/core.a(USARTClass.cpp.o)
                0x000000000008b250                vtable for USARTClass
 .rodata        0x000000000008b27c       0x7e /home/aaa/llvm-arduino-due/build/core.a(USBCore.cpp.o)
                0x000000000008b27c                STRING_LANGUAGE
                0x000000000008b280                STRING_PRODUCT
                0x000000000008b28c                STRING_MANUFACTURER
                0x000000000008b298                USB_DeviceDescriptor
                0x000000000008b2aa                USB_DeviceDescriptorA
 *fill*         0x000000000008b2fa        0x2 
 .rodata        0x000000000008b2fc       0xac /home/aaa/llvm-arduino-due/build/core.a(CDC.cpp.o)
                0x000000000008b380                vtable for Serial_
 .rodata._ZTV6Stream
                0x000000000008b3a8       0x20 /home/aaa/llvm-arduino-due/build/core.a(CDC.cpp.o)
                0x000000000008b3a8                vtable for Stream
 .rodata        0x000000000008b3c8       0x2c /home/aaa/llvm-arduino-due/build/core.a(UARTClass.cpp.o)
                0x000000000008b3c8                vtable for UARTClass
 .rodata._ZTV14HardwareSerial
                0x000000000008b3f4       0x2c /home/aaa/llvm-arduino-due/build/core.a(UARTClass.cpp.o)
                0x000000000008b3f4                vtable for HardwareSerial
 .rodata        0x000000000008b420       0x2c /home/aaa/.arduino15/packages/arduino/hardware/sam/1.6.12/variants/arduino_due_x/libsam_sam3x8e_gcc_rel.a(pwmc.o)
 .rodata.__func__.6830
                0x000000000008b44c       0x15 /home/aaa/.arduino15/packages/arduino/hardware/sam/1.6.12/variants/arduino_due_x/libsam_sam3x8e_gcc_rel.a(pwmc.o)
 .rodata.__func__.6841
                0x000000000008b461       0x12 /home/aaa/.arduino15/packages/arduino/hardware/sam/1.6.12/variants/arduino_due_x/libsam_sam3x8e_gcc_rel.a(pwmc.o)
 .rodata.str1.1
                0x000000000008b473      0x1cc /home/aaa/.arduino15/packages/arduino/hardware/sam/1.6.12/variants/arduino_due_x/libsam_sam3x8e_gcc_rel.a(pwmc.o)
 .rodata.__func__.6804
                0x000000000008b63f       0x16 /home/aaa/.arduino15/packages/arduino/hardware/sam/1.6.12/variants/arduino_due_x/libsam_sam3x8e_gcc_rel.a(pwmc.o)
 .rodata.__func__.6793
                0x000000000008b655       0x17 /home/aaa/.arduino15/packages/arduino/hardware/sam/1.6.12/variants/arduino_due_x/libsam_sam3x8e_gcc_rel.a(pwmc.o)
 .rodata.__func__.6792
                0x000000000008b66c        0xd /home/aaa/.arduino15/packages/arduino/hardware/sam/1.6.12/variants/arduino_due_x/libsam_sam3x8e_gcc_rel.a(tc.o)
 .rodata.str1.1
                0x000000000008b679       0x54 /home/aaa/.arduino15/packages/arduino/hardware/sam/1.6.12/variants/arduino_due_x/libsam_sam3x8e_gcc_rel.a(tc.o)
 .rodata.__func__.6798
                0x000000000008b6cd        0x9 /home/aaa/.arduino15/packages/arduino/hardware/sam/1.6.12/variants/arduino_due_x/libsam_sam3x8e_gcc_rel.a(tc.o)
 *fill*         0x000000000008b6d6        0x2 
 .rodata.str1.4
                0x000000000008b6d8       0x3f /home/aaa/.arduino15/packages/arduino/tools/arm-none-eabi-gcc/4.8.3-2014q1/bin/../lib/gcc/arm-none-eabi/4.8.3/../../../../arm-none-eabi/lib/armv7-m/libg.a(lib_a-assert.o)
                                         0x44 (size before relaxing)
 *fill*         0x000000000008b717        0x1 
 .rodata.str1.4
                0x000000000008b718        0x2 /home/aaa/.arduino15/packages/arduino/tools/arm-none-eabi-gcc/4.8.3-2014q1/bin/../lib/gcc/arm-none-eabi/4.8.3/../../../../arm-none-eabi/lib/armv7-m/libg.a(lib_a-impure.o)
                                          0x4 (size before relaxing)
 *fill*         0x000000000008b71a        0x2 
 .rodata._global_impure_ptr
                0x000000000008b71c        0x4 /home/aaa/.arduino15/packages/arduino/tools/arm-none-eabi-gcc/4.8.3-2014q1/bin/../lib/gcc/arm-none-eabi/4.8.3/../../../../arm-none-eabi/lib/armv7-m/libg.a(lib_a-impure.o)
                0x000000000008b71c                _global_impure_ptr
 .rodata.blanks.6717
                0x000000000008b720       0x10 /home/aaa/.arduino15/packages/arduino/tools/arm-none-eabi-gcc/4.8.3-2014q1/bin/../lib/gcc/arm-none-eabi/4.8.3/../../../../arm-none-eabi/lib/armv7-m/libg.a(lib_a-vfiprintf.o)
 .rodata.str1.4
                0x000000000008b730       0x30 /home/aaa/.arduino15/packages/arduino/tools/arm-none-eabi-gcc/4.8.3-2014q1/bin/../lib/gcc/arm-none-eabi/4.8.3/../../../../arm-none-eabi/lib/armv7-m/libg.a(lib_a-vfiprintf.o)
 .rodata.zeroes.6718
                0x000000000008b760       0x10 /home/aaa/.arduino15/packages/arduino/tools/arm-none-eabi-gcc/4.8.3-2014q1/bin/../lib/gcc/arm-none-eabi/4.8.3/../../../../arm-none-eabi/lib/armv7-m/libg.a(lib_a-vfiprintf.o)
 *(.ARM.extab* .gnu.linkonce.armextab.*)
                0x000000000008b770                . = ALIGN (0x4)
 *(.init)
 .init          0x000000000008b770        0x4 /home/aaa/.arduino15/packages/arduino/tools/arm-none-eabi-gcc/4.8.3-2014q1/bin/../lib/gcc/arm-none-eabi/4.8.3/armv7-m/crti.o
                0x000000000008b770                _init
 .init          0x000000000008b774        0x8 /home/aaa/.arduino15/packages/arduino/tools/arm-none-eabi-gcc/4.8.3-2014q1/bin/../lib/gcc/arm-none-eabi/4.8.3/armv7-m/crtn.o
                0x000000000008b77c                . = ALIGN (0x4)
                0x000000000008b77c                __preinit_array_start = .
 *(.preinit_array)
                0x000000000008b77c                __preinit_array_end = .
                0x000000000008b77c                . = ALIGN (0x4)
                0x000000000008b77c                __init_array_start = .
 *(SORT(.init_array.*))
 .init_array.00000
                0x000000000008b77c        0x4 /home/aaa/.arduino15/packages/arduino/tools/arm-none-eabi-gcc/4.8.3-2014q1/bin/../lib/gcc/arm-none-eabi/4.8.3/../../../../arm-none-eabi/lib/armv7-m/libg.a(lib_a-__call_atexit.o)
 *(.init_array)
 .init_array    0x000000000008b780        0x4 /home/aaa/.arduino15/packages/arduino/tools/arm-none-eabi-gcc/4.8.3-2014q1/bin/../lib/gcc/arm-none-eabi/4.8.3/armv7-m/crtbegin.o
 .init_array    0x000000000008b784        0x4 /home/aaa/llvm-arduino-due/build/core/variant.cpp.o
 .init_array    0x000000000008b788        0x4 /home/aaa/llvm-arduino-due/build/core.a(USBCore.cpp.o)
 .init_array    0x000000000008b78c        0x4 /home/aaa/llvm-arduino-due/build/core.a(CDC.cpp.o)
                0x000000000008b790                __init_array_end = .
                0x000000000008b790                . = ALIGN (0x4)
 *crtbegin.o(.ctors)
 *(EXCLUDE_FILE(*crtend.o) .ctors)
 *(SORT(.ctors.*))
 *crtend.o(.ctors)
                0x000000000008b790                . = ALIGN (0x4)
 *(.fini)
 .fini          0x000000000008b790        0x4 /home/aaa/.arduino15/packages/arduino/tools/arm-none-eabi-gcc/4.8.3-2014q1/bin/../lib/gcc/arm-none-eabi/4.8.3/armv7-m/crti.o
                0x000000000008b790                _fini
 .fini          0x000000000008b794        0x8 /home/aaa/.arduino15/packages/arduino/tools/arm-none-eabi-gcc/4.8.3-2014q1/bin/../lib/gcc/arm-none-eabi/4.8.3/armv7-m/crtn.o
 *fill*         0x000000000008b79c        0x4 
 .fini.__stub   0x000000000008b7a0       0x10 linker stubs
                0x000000000008b7b0                . = ALIGN (0x4)
                0x000000000008b7b0                __fini_array_start = .
 *(.fini_array)
 .fini_array    0x000000000008b7b0        0x4 /home/aaa/.arduino15/packages/arduino/tools/arm-none-eabi-gcc/4.8.3-2014q1/bin/../lib/gcc/arm-none-eabi/4.8.3/armv7-m/crtbegin.o
 *(SORT(.fini_array.*))
                0x000000000008b7b4                __fini_array_end = .
 *crtbegin.o(.dtors)
 *(EXCLUDE_FILE(*crtend.o) .dtors)
 *(SORT(.dtors.*))
 *crtend.o(.dtors)
                0x000000000008b7b4                . = ALIGN (0x4)
                0x000000000008b7b4                _efixed = .
                0x000000000008b7b4                PROVIDE (__exidx_start, .)

.vfp11_veneer   0x000000000008b7b4        0x0
 .vfp11_veneer  0x0000000000000000        0x0 linker stubs

.v4_bx          0x000000000008b7b4        0x0
 .v4_bx         0x0000000000000000        0x0 linker stubs

.iplt           0x000000000008b7b4        0x0
 .iplt          0x0000000000000000        0x0 /home/aaa/.arduino15/packages/arduino/tools/arm-none-eabi-gcc/4.8.3-2014q1/bin/../lib/gcc/arm-none-eabi/4.8.3/armv7-m/crtbegin.o

.ARM.exidx      0x000000000008b7b4        0x8
 *(.ARM.exidx* .gnu.linkonce.armexidx.*)
 .ARM.exidx     0x000000000008b7b4        0x8 /home/aaa/llvm-arduino-due/build/Blink.ino.cpp.o
                                         0x30 (size before relaxing)
 .ARM.exidx     0x000000000008b7bc        0x0 /home/aaa/llvm-arduino-due/build/core/variant.cpp.o
                                         0xc8 (size before relaxing)
 .ARM.exidx     0x000000000008b7bc        0x0 /home/aaa/llvm-arduino-due/build/core.a(wiring_analog.c.o)
                                         0x48 (size before relaxing)
 .ARM.exidx     0x000000000008b7bc        0x0 /home/aaa/llvm-arduino-due/build/core.a(cortex_handlers.c.o)
                                         0x20 (size before relaxing)
 .ARM.exidx     0x000000000008b7bc        0x0 /home/aaa/llvm-arduino-due/build/core.a(hooks.c.o)
                                         0x18 (size before relaxing)
 .ARM.exidx     0x000000000008b7bc        0x0 /home/aaa/llvm-arduino-due/build/core.a(wiring.c.o)
                                         0x18 (size before relaxing)
 .ARM.exidx     0x000000000008b7bc        0x0 /home/aaa/llvm-arduino-due/build/core.a(syscalls_sam3.c.o)
                                         0x58 (size before relaxing)
 .ARM.exidx     0x000000000008b7bc        0x0 /home/aaa/llvm-arduino-due/build/core.a(wiring_digital.c.o)
                                         0x18 (size before relaxing)
 .ARM.exidx     0x000000000008b7bc        0x0 /home/aaa/llvm-arduino-due/build/core.a(Print.cpp.o)
                                         0xd0 (size before relaxing)
 .ARM.exidx.text._ZN5Print5writeEPKcj
                0x000000000008b7bc        0x0 /home/aaa/llvm-arduino-due/build/core.a(Print.cpp.o)
                                          0x8 (size before relaxing)
 .ARM.exidx.text._ZNK6String5c_strEv
                0x000000000008b7bc        0x0 /home/aaa/llvm-arduino-due/build/core.a(Print.cpp.o)
                                          0x8 (size before relaxing)
 .ARM.exidx.text._ZNK6String6lengthEv
                0x000000000008b7bc        0x0 /home/aaa/llvm-arduino-due/build/core.a(Print.cpp.o)
                                          0x8 (size before relaxing)
 .ARM.exidx.text._ZN5Print5writeEPKc
                0x000000000008b7bc        0x0 /home/aaa/llvm-arduino-due/build/core.a(Print.cpp.o)
                                          0x8 (size before relaxing)
 .ARM.exidx     0x000000000008b7bc        0x0 /home/aaa/llvm-arduino-due/build/core.a(USARTClass.cpp.o)
                                         0x20 (size before relaxing)
 .ARM.exidx.text._ZN14HardwareSerial5beginEm
                0x000000000008b7bc        0x0 /home/aaa/llvm-arduino-due/build/core.a(USARTClass.cpp.o)
                                          0x8 (size before relaxing)
 .ARM.exidx.text._ZN9UARTClasscvbEv
                0x000000000008b7bc        0x0 /home/aaa/llvm-arduino-due/build/core.a(USARTClass.cpp.o)
                                          0x8 (size before relaxing)
 .ARM.exidx     0x000000000008b7bc        0x0 /home/aaa/llvm-arduino-due/build/core.a(USBCore.cpp.o)
                                         0xe8 (size before relaxing)
 .ARM.exidx.text._ZN6LockEPC2Ej
                0x000000000008b7bc        0x0 /home/aaa/llvm-arduino-due/build/core.a(USBCore.cpp.o)
                                          0x8 (size before relaxing)
 .ARM.exidx.text._ZN6LockEPD2Ev
                0x000000000008b7bc        0x0 /home/aaa/llvm-arduino-due/build/core.a(USBCore.cpp.o)
                                          0x8 (size before relaxing)
 .ARM.exidx     0x000000000008b7bc        0x0 /home/aaa/llvm-arduino-due/build/core.a(CDC.cpp.o)
                                         0xc0 (size before relaxing)
 .ARM.exidx.text._ZN5Print13setWriteErrorEi
                0x000000000008b7bc        0x0 /home/aaa/llvm-arduino-due/build/core.a(CDC.cpp.o)
                                          0x8 (size before relaxing)
 .ARM.exidx.text._ZN7Serial_C2Ev
                0x000000000008b7bc        0x0 /home/aaa/llvm-arduino-due/build/core.a(CDC.cpp.o)
                                          0x8 (size before relaxing)
 .ARM.exidx.text._ZN6StreamC2Ev
                0x000000000008b7bc        0x0 /home/aaa/llvm-arduino-due/build/core.a(CDC.cpp.o)
                                          0x8 (size before relaxing)
 .ARM.exidx.text._ZN5PrintC2Ev
                0x000000000008b7bc        0x0 /home/aaa/llvm-arduino-due/build/core.a(CDC.cpp.o)
                                          0x8 (size before relaxing)
 .ARM.exidx     0x000000000008b7bc        0x0 /home/aaa/llvm-arduino-due/build/core.a(UARTClass.cpp.o)
                                         0x90 (size before relaxing)
 .ARM.exidx.text._ZN14HardwareSerialC2Ev
                0x000000000008b7bc        0x0 /home/aaa/llvm-arduino-due/build/core.a(UARTClass.cpp.o)
                                          0x8 (size before relaxing)
 .ARM.exidx.text._ZN14HardwareSerial3endEv
                0x000000000008b7bc        0x0 /home/aaa/llvm-arduino-due/build/core.a(UARTClass.cpp.o)
                                          0x8 (size before relaxing)
 .ARM.exidx     0x000000000008b7bc        0x0 /home/aaa/llvm-arduino-due/build/core.a(watchdog.cpp.o)
                                         0x20 (size before relaxing)
 .ARM.exidx     0x000000000008b7bc        0x0 /home/aaa/llvm-arduino-due/build/core.a(RingBuffer.cpp.o)
                                         0x10 (size before relaxing)
 .ARM.exidx.ramfunc
                0x000000000008b7bc        0x0 /home/aaa/llvm-arduino-due/build/core.a(Reset.cpp.o)
                                          0x8 (size before relaxing)
 .ARM.exidx     0x000000000008b7bc        0x0 /home/aaa/llvm-arduino-due/build/core.a(Reset.cpp.o)
                                         0x18 (size before relaxing)
 .ARM.exidx     0x000000000008b7bc        0x0 /home/aaa/llvm-arduino-due/build/core.a(PluggableUSB.cpp.o)
                                         0x38 (size before relaxing)
 .ARM.exidx     0x000000000008b7bc        0x0 /home/aaa/.arduino15/packages/arduino/tools/arm-none-eabi-gcc/4.8.3-2014q1/bin/../lib/gcc/arm-none-eabi/4.8.3/armv7-m/libgcc.a(_divdi3.o)
                                          0x8 (size before relaxing)
 .ARM.exidx     0x000000000008b7bc        0x0 /home/aaa/.arduino15/packages/arduino/tools/arm-none-eabi-gcc/4.8.3-2014q1/bin/../lib/gcc/arm-none-eabi/4.8.3/armv7-m/libgcc.a(_udivdi3.o)
                                          0x8 (size before relaxing)
                0x000000000008b7bc                PROVIDE (__exidx_end, .)

.eh_frame       0x000000000008b7bc        0x0
 .eh_frame      0x000000000008b7bc        0x0 /home/aaa/.arduino15/packages/arduino/tools/arm-none-eabi-gcc/4.8.3-2014q1/bin/../lib/gcc/arm-none-eabi/4.8.3/armv7-m/crtbegin.o

.rel.dyn        0x000000000008b7bc        0x0
 .rel.iplt      0x0000000000000000        0x0 /home/aaa/.arduino15/packages/arduino/tools/arm-none-eabi-gcc/4.8.3-2014q1/bin/../lib/gcc/arm-none-eabi/4.8.3/armv7-m/crtbegin.o

.jcr            0x000000000008b7bc        0x0
 .jcr           0x000000000008b7bc        0x0 /home/aaa/.arduino15/packages/arduino/tools/arm-none-eabi-gcc/4.8.3-2014q1/bin/../lib/gcc/arm-none-eabi/4.8.3/armv7-m/crtbegin.o

.igot.plt       0x000000000008b7bc        0x0
 .igot.plt      0x0000000000000000        0x0 /home/aaa/.arduino15/packages/arduino/tools/arm-none-eabi-gcc/4.8.3-2014q1/bin/../lib/gcc/arm-none-eabi/4.8.3/armv7-m/crtbegin.o
                0x000000000008b7bc                . = ALIGN (0x4)
                0x000000000008b7bc                _etext = .

.relocate       0x0000000020070000      0x95c load address 0x000000000008b7bc
                0x0000000020070000                . = ALIGN (0x4)
                0x0000000020070000                _srelocate = .
 *(.ramfunc .ramfunc.*)
 .ramfunc       0x0000000020070000       0x5e /home/aaa/llvm-arduino-due/build/core.a(Reset.cpp.o)
                0x0000000020070000                banzai
 *(.data .data.*)
 *fill*         0x000000002007005e        0x2 
 .data.SystemCoreClock
                0x0000000020070060        0x4 /home/aaa/.arduino15/packages/arduino/hardware/sam/1.6.12/variants/arduino_due_x/libsam_sam3x8e_gcc_rel.a(system_sam3xa.o)
                0x0000000020070060                SystemCoreClock
 .data          0x0000000020070064       0x54 /home/aaa/llvm-arduino-due/build/core.a(wiring_analog.c.o)
 .data          0x00000000200700b8       0x28 /home/aaa/llvm-arduino-due/build/core.a(USBCore.cpp.o)
                0x00000000200700b8                EndPoints
 .data          0x00000000200700e0       0x10 /home/aaa/llvm-arduino-due/build/core.a(CDC.cpp.o)
                0x00000000200700ec                _serialPeek
 .data          0x00000000200700f0        0x4 /home/aaa/llvm-arduino-due/build/core.a(Reset.cpp.o)
 .data.g_interrupt_enabled
                0x00000000200700f4        0x4 /home/aaa/.arduino15/packages/arduino/hardware/sam/1.6.12/variants/arduino_due_x/libsam_sam3x8e_gcc_rel.a(interrupt_sam_nvic.o)
                0x00000000200700f4                g_interrupt_enabled
 .data.impure_data
                0x00000000200700f8      0x428 /home/aaa/.arduino15/packages/arduino/tools/arm-none-eabi-gcc/4.8.3-2014q1/bin/../lib/gcc/arm-none-eabi/4.8.3/../../../../arm-none-eabi/lib/armv7-m/libg.a(lib_a-impure.o)
 .data._impure_ptr
                0x0000000020070520        0x4 /home/aaa/.arduino15/packages/arduino/tools/arm-none-eabi-gcc/4.8.3-2014q1/bin/../lib/gcc/arm-none-eabi/4.8.3/../../../../arm-none-eabi/lib/armv7-m/libg.a(lib_a-impure.o)
                0x0000000020070520                _impure_ptr
 .data.lc_ctype_charset
                0x0000000020070524       0x20 /home/aaa/.arduino15/packages/arduino/tools/arm-none-eabi-gcc/4.8.3-2014q1/bin/../lib/gcc/arm-none-eabi/4.8.3/../../../../arm-none-eabi/lib/armv7-m/libg.a(lib_a-locale.o)
 .data.__mb_cur_max
                0x0000000020070544        0x4 /home/aaa/.arduino15/packages/arduino/tools/arm-none-eabi-gcc/4.8.3-2014q1/bin/../lib/gcc/arm-none-eabi/4.8.3/../../../../arm-none-eabi/lib/armv7-m/libg.a(lib_a-locale.o)
                0x0000000020070544                __mb_cur_max
 .data.__malloc_av_
                0x0000000020070548      0x408 /home/aaa/.arduino15/packages/arduino/tools/arm-none-eabi-gcc/4.8.3-2014q1/bin/../lib/gcc/arm-none-eabi/4.8.3/../../../../arm-none-eabi/lib/armv7-m/libg.a(lib_a-mallocr.o)
                0x0000000020070548                __malloc_av_
 .data.__malloc_trim_threshold
                0x0000000020070950        0x4 /home/aaa/.arduino15/packages/arduino/tools/arm-none-eabi-gcc/4.8.3-2014q1/bin/../lib/gcc/arm-none-eabi/4.8.3/../../../../arm-none-eabi/lib/armv7-m/libg.a(lib_a-mallocr.o)
                0x0000000020070950                __malloc_trim_threshold
 .data.__malloc_sbrk_base
                0x0000000020070954        0x4 /home/aaa/.arduino15/packages/arduino/tools/arm-none-eabi-gcc/4.8.3-2014q1/bin/../lib/gcc/arm-none-eabi/4.8.3/../../../../arm-none-eabi/lib/armv7-m/libg.a(lib_a-mallocr.o)
                0x0000000020070954                __malloc_sbrk_base
 .data.__wctomb
                0x0000000020070958        0x4 /home/aaa/.arduino15/packages/arduino/tools/arm-none-eabi-gcc/4.8.3-2014q1/bin/../lib/gcc/arm-none-eabi/4.8.3/../../../../arm-none-eabi/lib/armv7-m/libg.a(lib_a-wctomb_r.o)
                0x0000000020070958                __wctomb
                0x000000002007095c                . = ALIGN (0x4)
                0x000000002007095c                _erelocate = .

.bss            0x000000002007095c      0x830 load address 0x000000000008c118
                0x000000002007095c                . = ALIGN (0x4)
                0x000000002007095c                _sbss = .
                0x000000002007095c                _szero = .
 *(.bss .bss.*)
 .bss           0x000000002007095c       0x1c /home/aaa/.arduino15/packages/arduino/tools/arm-none-eabi-gcc/4.8.3-2014q1/bin/../lib/gcc/arm-none-eabi/4.8.3/armv7-m/crtbegin.o
 .bss           0x0000000020070978      0x52c /home/aaa/llvm-arduino-due/build/core/variant.cpp.o
                0x0000000020070978                g_pinStatus
                0x00000000200709c8                rx_buffer1
                0x0000000020070a50                tx_buffer1
                0x0000000020070ad8                Serial
                0x0000000020070afc                rx_buffer2
                0x0000000020070b84                rx_buffer3
                0x0000000020070c0c                rx_buffer4
                0x0000000020070c94                tx_buffer2
                0x0000000020070d1c                tx_buffer3
                0x0000000020070da4                tx_buffer4
                0x0000000020070e2c                Serial1
                0x0000000020070e54                Serial2
                0x0000000020070e7c                Serial3
 .bss.gpf_isr   0x0000000020070ea4        0x4 /home/aaa/.arduino15/packages/arduino/hardware/sam/1.6.12/variants/arduino_due_x/libsam_sam3x8e_gcc_rel.a(uotghs.o)
                0x0000000020070ea4                gpf_isr
 .bss           0x0000000020070ea8        0xb /home/aaa/llvm-arduino-due/build/core.a(wiring_analog.c.o)
                0x0000000020070ea8                analog_reference
 *fill*         0x0000000020070eb3        0x1 
 .bss           0x0000000020070eb4        0x4 /home/aaa/llvm-arduino-due/build/core.a(syscalls_sam3.c.o)
 .bss           0x0000000020070eb8       0x1b /home/aaa/llvm-arduino-due/build/core.a(USBCore.cpp.o)
                0x0000000020070eb8                TxLEDPulse
                0x0000000020070eb9                RxLEDPulse
                0x0000000020070ebc                _usbConfiguration
                0x0000000020070ec0                _usbInitialized
                0x0000000020070ec4                _usbSetInterface
                0x0000000020070ec8                _cdcComposite
                0x0000000020070ecc                _cmark
                0x0000000020070ece                _cend
                0x0000000020070ed0                USBDevice
 *fill*         0x0000000020070ed3        0x1 
 .bss           0x0000000020070ed4      0x220 /home/aaa/llvm-arduino-due/build/core.a(CDC.cpp.o)
                0x0000000020070ed4                cdc_rx_buffer
                0x00000000200710e0                SerialUSB
 .bss           0x00000000200710f4        0x9 /home/aaa/llvm-arduino-due/build/core.a(PluggableUSB.cpp.o)
 *fill*         0x00000000200710fd        0x3 
 .bss._dwTickCount
                0x0000000020071100        0x4 /home/aaa/.arduino15/packages/arduino/hardware/sam/1.6.12/variants/arduino_due_x/libsam_sam3x8e_gcc_rel.a(timetick.o)
 .bss.ul_recv_fifo_ptr
                0x0000000020071104       0x28 /home/aaa/.arduino15/packages/arduino/hardware/sam/1.6.12/variants/arduino_due_x/libsam_sam3x8e_gcc_rel.a(uotghs_device.o)
 .bss.ul_send_fifo_ptr
                0x000000002007112c       0x28 /home/aaa/.arduino15/packages/arduino/hardware/sam/1.6.12/variants/arduino_due_x/libsam_sam3x8e_gcc_rel.a(uotghs_device.o)
 .bss.__malloc_max_total_mem
                0x0000000020071154        0x4 /home/aaa/.arduino15/packages/arduino/tools/arm-none-eabi-gcc/4.8.3-2014q1/bin/../lib/gcc/arm-none-eabi/4.8.3/../../../../arm-none-eabi/lib/armv7-m/libg.a(lib_a-mallocr.o)
                0x0000000020071154                __malloc_max_total_mem
 .bss.__malloc_max_sbrked_mem
                0x0000000020071158        0x4 /home/aaa/.arduino15/packages/arduino/tools/arm-none-eabi-gcc/4.8.3-2014q1/bin/../lib/gcc/arm-none-eabi/4.8.3/../../../../arm-none-eabi/lib/armv7-m/libg.a(lib_a-mallocr.o)
                0x0000000020071158                __malloc_max_sbrked_mem
 .bss.__malloc_top_pad
                0x000000002007115c        0x4 /home/aaa/.arduino15/packages/arduino/tools/arm-none-eabi-gcc/4.8.3-2014q1/bin/../lib/gcc/arm-none-eabi/4.8.3/../../../../arm-none-eabi/lib/armv7-m/libg.a(lib_a-mallocr.o)
                0x000000002007115c                __malloc_top_pad
 .bss.__malloc_current_mallinfo
                0x0000000020071160       0x28 /home/aaa/.arduino15/packages/arduino/tools/arm-none-eabi-gcc/4.8.3-2014q1/bin/../lib/gcc/arm-none-eabi/4.8.3/../../../../arm-none-eabi/lib/armv7-m/libg.a(lib_a-mallocr.o)
                0x0000000020071160                __malloc_current_mallinfo
 *(COMMON)
 COMMON         0x0000000020071188        0x4 /home/aaa/.arduino15/packages/arduino/tools/arm-none-eabi-gcc/4.8.3-2014q1/bin/../lib/gcc/arm-none-eabi/4.8.3/../../../../arm-none-eabi/lib/armv7-m/libg.a(lib_a-reent.o)
                0x0000000020071188                errno
                0x000000002007118c                . = ALIGN (0x4)
                0x000000002007118c                _ebss = .
                0x000000002007118c                _ezero = .
                0x000000002007118c                . = ALIGN (0x4)
                0x000000002007118c                _end = .

.stack_dummy    0x000000002007118c        0x0
 *(.stack*)
                0x0000000020088000                __StackTop = (ORIGIN (ram) + 0x18000)
                0x0000000020088000                __StackLimit = (__StackTop - SIZEOF (.stack_dummy))
                0x0000000020088000                PROVIDE (_sstack, __StackLimit)
                0x0000000020088000                PROVIDE (_estack, __StackTop)
OUTPUT(/home/aaa/llvm-arduino-due/build/Blink.elf elf32-littlearm)

.ARM.attributes
                0x0000000000000000       0x2d
 .ARM.attributes
                0x0000000000000000       0x1d /home/aaa/.arduino15/packages/arduino/tools/arm-none-eabi-gcc/4.8.3-2014q1/bin/../lib/gcc/arm-none-eabi/4.8.3/armv7-m/crti.o
 .ARM.attributes
                0x000000000000001d       0x2d /home/aaa/.arduino15/packages/arduino/tools/arm-none-eabi-gcc/4.8.3-2014q1/bin/../lib/gcc/arm-none-eabi/4.8.3/armv7-m/crtbegin.o
 .ARM.attributes
                0x000000000000004a       0x34 /home/aaa/llvm-arduino-due/build/Blink.ino.cpp.o
 .ARM.attributes
                0x000000000000007e       0x34 /home/aaa/llvm-arduino-due/build/core/variant.cpp.o
 .ARM.attributes
                0x00000000000000b2       0x33 /home/aaa/.arduino15/packages/arduino/hardware/sam/1.6.12/variants/arduino_due_x/libsam_sam3x8e_gcc_rel.a(pio.o)
 .ARM.attributes
                0x00000000000000e5       0x33 /home/aaa/.arduino15/packages/arduino/hardware/sam/1.6.12/variants/arduino_due_x/libsam_sam3x8e_gcc_rel.a(pmc.o)
 .ARM.attributes
                0x0000000000000118       0x33 /home/aaa/.arduino15/packages/arduino/hardware/sam/1.6.12/variants/arduino_due_x/libsam_sam3x8e_gcc_rel.a(system_sam3xa.o)
 .ARM.attributes
                0x000000000000014b       0x33 /home/aaa/.arduino15/packages/arduino/hardware/sam/1.6.12/variants/arduino_due_x/libsam_sam3x8e_gcc_rel.a(startup_sam3xa.o)
 .ARM.attributes
                0x000000000000017e       0x33 /home/aaa/.arduino15/packages/arduino/hardware/sam/1.6.12/variants/arduino_due_x/libsam_sam3x8e_gcc_rel.a(adc.o)
 .ARM.attributes
                0x00000000000001b1       0x33 /home/aaa/.arduino15/packages/arduino/hardware/sam/1.6.12/variants/arduino_due_x/libsam_sam3x8e_gcc_rel.a(uotghs.o)
 .ARM.attributes
                0x00000000000001e4       0x34 /home/aaa/llvm-arduino-due/build/core.a(wiring_analog.c.o)
 .ARM.attributes
                0x0000000000000218       0x34 /home/aaa/llvm-arduino-due/build/core.a(cortex_handlers.c.o)
 .ARM.attributes
                0x000000000000024c       0x34 /home/aaa/llvm-arduino-due/build/core.a(hooks.c.o)
 .ARM.attributes
                0x0000000000000280       0x34 /home/aaa/llvm-arduino-due/build/core.a(wiring.c.o)
 .ARM.attributes
                0x00000000000002b4       0x34 /home/aaa/llvm-arduino-due/build/core.a(syscalls_sam3.c.o)
 .ARM.attributes
                0x00000000000002e8       0x34 /home/aaa/llvm-arduino-due/build/core.a(wiring_digital.c.o)
 .ARM.attributes
                0x000000000000031c       0x34 /home/aaa/llvm-arduino-due/build/core.a(Print.cpp.o)
 .ARM.attributes
                0x0000000000000350       0x34 /home/aaa/llvm-arduino-due/build/core.a(USARTClass.cpp.o)
 .ARM.attributes
                0x0000000000000384       0x34 /home/aaa/llvm-arduino-due/build/core.a(USBCore.cpp.o)
 .ARM.attributes
                0x00000000000003b8       0x34 /home/aaa/llvm-arduino-due/build/core.a(CDC.cpp.o)
 .ARM.attributes
                0x00000000000003ec       0x34 /home/aaa/llvm-arduino-due/build/core.a(UARTClass.cpp.o)
 .ARM.attributes
                0x0000000000000420       0x34 /home/aaa/llvm-arduino-due/build/core.a(watchdog.cpp.o)
 .ARM.attributes
                0x0000000000000454       0x34 /home/aaa/llvm-arduino-due/build/core.a(RingBuffer.cpp.o)
 .ARM.attributes
                0x0000000000000488       0x34 /home/aaa/llvm-arduino-due/build/core.a(Reset.cpp.o)
 .ARM.attributes
                0x00000000000004bc       0x34 /home/aaa/llvm-arduino-due/build/core.a(PluggableUSB.cpp.o)
 .ARM.attributes
                0x00000000000004f0       0x33 /home/aaa/.arduino15/packages/arduino/hardware/sam/1.6.12/variants/arduino_due_x/libsam_sam3x8e_gcc_rel.a(pwmc.o)
 .ARM.attributes
                0x0000000000000523       0x33 /home/aaa/.arduino15/packages/arduino/hardware/sam/1.6.12/variants/arduino_due_x/libsam_sam3x8e_gcc_rel.a(tc.o)
 .ARM.attributes
                0x0000000000000556       0x33 /home/aaa/.arduino15/packages/arduino/hardware/sam/1.6.12/variants/arduino_due_x/libsam_sam3x8e_gcc_rel.a(timetick.o)
 .ARM.attributes
                0x0000000000000589       0x33 /home/aaa/.arduino15/packages/arduino/hardware/sam/1.6.12/variants/arduino_due_x/libsam_sam3x8e_gcc_rel.a(wdt.o)
 .ARM.attributes
                0x00000000000005bc       0x33 /home/aaa/.arduino15/packages/arduino/hardware/sam/1.6.12/variants/arduino_due_x/libsam_sam3x8e_gcc_rel.a(interrupt_sam_nvic.o)
 .ARM.attributes
                0x00000000000005ef       0x33 /home/aaa/.arduino15/packages/arduino/hardware/sam/1.6.12/variants/arduino_due_x/libsam_sam3x8e_gcc_rel.a(uotghs_device.o)
 .ARM.attributes
                0x0000000000000622       0x33 /home/aaa/.arduino15/packages/arduino/hardware/sam/1.6.12/variants/arduino_due_x/libsam_sam3x8e_gcc_rel.a(dacc.o)
 .ARM.attributes
                0x0000000000000655       0x2d /home/aaa/.arduino15/packages/arduino/tools/arm-none-eabi-gcc/4.8.3-2014q1/bin/../lib/gcc/arm-none-eabi/4.8.3/../../../../arm-none-eabi/lib/armv7-m/libm.a(lib_a-s_fpclassify.o)
 .ARM.attributes
                0x0000000000000682       0x1d /home/aaa/.arduino15/packages/arduino/tools/arm-none-eabi-gcc/4.8.3-2014q1/bin/../lib/gcc/arm-none-eabi/4.8.3/armv7-m/libgcc.a(_arm_addsubdf3.o)
 .ARM.attributes
                0x000000000000069f       0x1d /home/aaa/.arduino15/packages/arduino/tools/arm-none-eabi-gcc/4.8.3-2014q1/bin/../lib/gcc/arm-none-eabi/4.8.3/armv7-m/libgcc.a(_arm_muldivdf3.o)
 .ARM.attributes
                0x00000000000006bc       0x1d /home/aaa/.arduino15/packages/arduino/tools/arm-none-eabi-gcc/4.8.3-2014q1/bin/../lib/gcc/arm-none-eabi/4.8.3/armv7-m/libgcc.a(_arm_cmpdf2.o)
 .ARM.attributes
                0x00000000000006d9       0x1d /home/aaa/.arduino15/packages/arduino/tools/arm-none-eabi-gcc/4.8.3-2014q1/bin/../lib/gcc/arm-none-eabi/4.8.3/armv7-m/libgcc.a(_arm_fixunsdfsi.o)
 .ARM.attributes
                0x00000000000006f6       0x2d /home/aaa/.arduino15/packages/arduino/tools/arm-none-eabi-gcc/4.8.3-2014q1/bin/../lib/gcc/arm-none-eabi/4.8.3/../../../../arm-none-eabi/lib/armv7-m/libg.a(lib_a-assert.o)
 .ARM.attributes
                0x0000000000000723       0x2d /home/aaa/.arduino15/packages/arduino/tools/arm-none-eabi-gcc/4.8.3-2014q1/bin/../lib/gcc/arm-none-eabi/4.8.3/../../../../arm-none-eabi/lib/armv7-m/libg.a(lib_a-fiprintf.o)
 .ARM.attributes
                0x0000000000000750       0x2d /home/aaa/.arduino15/packages/arduino/tools/arm-none-eabi-gcc/4.8.3-2014q1/bin/../lib/gcc/arm-none-eabi/4.8.3/../../../../arm-none-eabi/lib/armv7-m/libg.a(lib_a-impure.o)
 .ARM.attributes
                0x000000000000077d       0x2d /home/aaa/.arduino15/packages/arduino/tools/arm-none-eabi-gcc/4.8.3-2014q1/bin/../lib/gcc/arm-none-eabi/4.8.3/../../../../arm-none-eabi/lib/armv7-m/libg.a(lib_a-init.o)
 .ARM.attributes
                0x00000000000007aa       0x2d /home/aaa/.arduino15/packages/arduino/tools/arm-none-eabi-gcc/4.8.3-2014q1/bin/../lib/gcc/arm-none-eabi/4.8.3/../../../../arm-none-eabi/lib/armv7-m/libg.a(lib_a-memset.o)
 .ARM.attributes
                0x00000000000007d7       0x2d /home/aaa/.arduino15/packages/arduino/tools/arm-none-eabi-gcc/4.8.3-2014q1/bin/../lib/gcc/arm-none-eabi/4.8.3/../../../../arm-none-eabi/lib/armv7-m/libg.a(lib_a-strlen.o)
 .ARM.attributes
                0x0000000000000804       0x2d /home/aaa/.arduino15/packages/arduino/tools/arm-none-eabi-gcc/4.8.3-2014q1/bin/../lib/gcc/arm-none-eabi/4.8.3/../../../../arm-none-eabi/lib/armv7-m/libg.a(lib_a-syskill.o)
 .ARM.attributes
                0x0000000000000831       0x2d /home/aaa/.arduino15/packages/arduino/tools/arm-none-eabi-gcc/4.8.3-2014q1/bin/../lib/gcc/arm-none-eabi/4.8.3/../../../../arm-none-eabi/lib/armv7-m/libg.a(lib_a-vfiprintf.o)
 .ARM.attributes
                0x000000000000085e       0x2d /home/aaa/.arduino15/packages/arduino/tools/arm-none-eabi-gcc/4.8.3-2014q1/bin/../lib/gcc/arm-none-eabi/4.8.3/../../../../arm-none-eabi/lib/armv7-m/libg.a(lib_a-wsetup.o)
 .ARM.attributes
                0x000000000000088b       0x2d /home/aaa/.arduino15/packages/arduino/tools/arm-none-eabi-gcc/4.8.3-2014q1/bin/../lib/gcc/arm-none-eabi/4.8.3/../../../../arm-none-eabi/lib/armv7-m/libg.a(lib_a-__call_atexit.o)
 .ARM.attributes
                0x00000000000008b8       0x2d /home/aaa/.arduino15/packages/arduino/tools/arm-none-eabi-gcc/4.8.3-2014q1/bin/../lib/gcc/arm-none-eabi/4.8.3/../../../../arm-none-eabi/lib/armv7-m/libg.a(lib_a-abort.o)
 .ARM.attributes
                0x00000000000008e5       0x2d /home/aaa/.arduino15/packages/arduino/tools/arm-none-eabi-gcc/4.8.3-2014q1/bin/../lib/gcc/arm-none-eabi/4.8.3/../../../../arm-none-eabi/lib/armv7-m/libg.a(lib_a-atexit.o)
 .ARM.attributes
                0x0000000000000912       0x2d /home/aaa/.arduino15/packages/arduino/tools/arm-none-eabi-gcc/4.8.3-2014q1/bin/../lib/gcc/arm-none-eabi/4.8.3/../../../../arm-none-eabi/lib/armv7-m/libg.a(lib_a-fflush.o)
 .ARM.attributes
                0x000000000000093f       0x2d /home/aaa/.arduino15/packages/arduino/tools/arm-none-eabi-gcc/4.8.3-2014q1/bin/../lib/gcc/arm-none-eabi/4.8.3/../../../../arm-none-eabi/lib/armv7-m/libg.a(lib_a-findfp.o)
 .ARM.attributes
                0x000000000000096c       0x2d /home/aaa/.arduino15/packages/arduino/tools/arm-none-eabi-gcc/4.8.3-2014q1/bin/../lib/gcc/arm-none-eabi/4.8.3/../../../../arm-none-eabi/lib/armv7-m/libg.a(lib_a-fini.o)
 .ARM.attributes
                0x0000000000000999       0x2d /home/aaa/.arduino15/packages/arduino/tools/arm-none-eabi-gcc/4.8.3-2014q1/bin/../lib/gcc/arm-none-eabi/4.8.3/../../../../arm-none-eabi/lib/armv7-m/libg.a(lib_a-fputwc.o)
 .ARM.attributes
                0x00000000000009c6       0x2d /home/aaa/.arduino15/packages/arduino/tools/arm-none-eabi-gcc/4.8.3-2014q1/bin/../lib/gcc/arm-none-eabi/4.8.3/../../../../arm-none-eabi/lib/armv7-m/libg.a(lib_a-freer.o)
 .ARM.attributes
                0x00000000000009f3       0x2d /home/aaa/.arduino15/packages/arduino/tools/arm-none-eabi-gcc/4.8.3-2014q1/bin/../lib/gcc/arm-none-eabi/4.8.3/../../../../arm-none-eabi/lib/armv7-m/libg.a(lib_a-fvwrite.o)
 .ARM.attributes
                0x0000000000000a20       0x2d /home/aaa/.arduino15/packages/arduino/tools/arm-none-eabi-gcc/4.8.3-2014q1/bin/../lib/gcc/arm-none-eabi/4.8.3/../../../../arm-none-eabi/lib/armv7-m/libg.a(lib_a-fwalk.o)
 .ARM.attributes
                0x0000000000000a4d       0x2d /home/aaa/.arduino15/packages/arduino/tools/arm-none-eabi-gcc/4.8.3-2014q1/bin/../lib/gcc/arm-none-eabi/4.8.3/../../../../arm-none-eabi/lib/armv7-m/libg.a(lib_a-locale.o)
 .ARM.attributes
                0x0000000000000a7a       0x2d /home/aaa/.arduino15/packages/arduino/tools/arm-none-eabi-gcc/4.8.3-2014q1/bin/../lib/gcc/arm-none-eabi/4.8.3/../../../../arm-none-eabi/lib/armv7-m/libg.a(lib_a-makebuf.o)
 .ARM.attributes
                0x0000000000000aa7       0x2d /home/aaa/.arduino15/packages/arduino/tools/arm-none-eabi-gcc/4.8.3-2014q1/bin/../lib/gcc/arm-none-eabi/4.8.3/../../../../arm-none-eabi/lib/armv7-m/libg.a(lib_a-mallocr.o)
 .ARM.attributes
                0x0000000000000ad4       0x2d /home/aaa/.arduino15/packages/arduino/tools/arm-none-eabi-gcc/4.8.3-2014q1/bin/../lib/gcc/arm-none-eabi/4.8.3/../../../../arm-none-eabi/lib/armv7-m/libg.a(lib_a-memchr-stub.o)
 .ARM.attributes
                0x0000000000000b01       0x1b /home/aaa/.arduino15/packages/arduino/tools/arm-none-eabi-gcc/4.8.3-2014q1/bin/../lib/gcc/arm-none-eabi/4.8.3/../../../../arm-none-eabi/lib/armv7-m/libg.a(lib_a-memcpy.o)
 .ARM.attributes
                0x0000000000000b1c       0x2d /home/aaa/.arduino15/packages/arduino/tools/arm-none-eabi-gcc/4.8.3-2014q1/bin/../lib/gcc/arm-none-eabi/4.8.3/../../../../arm-none-eabi/lib/armv7-m/libg.a(lib_a-memmove.o)
 .ARM.attributes
                0x0000000000000b49       0x2d /home/aaa/.arduino15/packages/arduino/tools/arm-none-eabi-gcc/4.8.3-2014q1/bin/../lib/gcc/arm-none-eabi/4.8.3/../../../../arm-none-eabi/lib/armv7-m/libg.a(lib_a-mlock.o)
 .ARM.attributes
                0x0000000000000b76       0x2d /home/aaa/.arduino15/packages/arduino/tools/arm-none-eabi-gcc/4.8.3-2014q1/bin/../lib/gcc/arm-none-eabi/4.8.3/../../../../arm-none-eabi/lib/armv7-m/libg.a(lib_a-reallocr.o)
 .ARM.attributes
                0x0000000000000ba3       0x2d /home/aaa/.arduino15/packages/arduino/tools/arm-none-eabi-gcc/4.8.3-2014q1/bin/../lib/gcc/arm-none-eabi/4.8.3/../../../../arm-none-eabi/lib/armv7-m/libg.a(lib_a-sbrkr.o)
 .ARM.attributes
                0x0000000000000bd0       0x2d /home/aaa/.arduino15/packages/arduino/tools/arm-none-eabi-gcc/4.8.3-2014q1/bin/../lib/gcc/arm-none-eabi/4.8.3/../../../../arm-none-eabi/lib/armv7-m/libg.a(lib_a-signal.o)
 .ARM.attributes
                0x0000000000000bfd       0x2d /home/aaa/.arduino15/packages/arduino/tools/arm-none-eabi-gcc/4.8.3-2014q1/bin/../lib/gcc/arm-none-eabi/4.8.3/../../../../arm-none-eabi/lib/armv7-m/libg.a(lib_a-signalr.o)
 .ARM.attributes
                0x0000000000000c2a       0x2d /home/aaa/.arduino15/packages/arduino/tools/arm-none-eabi-gcc/4.8.3-2014q1/bin/../lib/gcc/arm-none-eabi/4.8.3/../../../../arm-none-eabi/lib/armv7-m/libg.a(lib_a-stdio.o)
 .ARM.attributes
                0x0000000000000c57       0x2d /home/aaa/.arduino15/packages/arduino/tools/arm-none-eabi-gcc/4.8.3-2014q1/bin/../lib/gcc/arm-none-eabi/4.8.3/../../../../arm-none-eabi/lib/armv7-m/libg.a(lib_a-wbuf.o)
 .ARM.attributes
                0x0000000000000c84       0x2d /home/aaa/.arduino15/packages/arduino/tools/arm-none-eabi-gcc/4.8.3-2014q1/bin/../lib/gcc/arm-none-eabi/4.8.3/../../../../arm-none-eabi/lib/armv7-m/libg.a(lib_a-wcrtomb.o)
 .ARM.attributes
                0x0000000000000cb1       0x2d /home/aaa/.arduino15/packages/arduino/tools/arm-none-eabi-gcc/4.8.3-2014q1/bin/../lib/gcc/arm-none-eabi/4.8.3/../../../../arm-none-eabi/lib/armv7-m/libg.a(lib_a-wctomb_r.o)
 .ARM.attributes
                0x0000000000000cde       0x2d /home/aaa/.arduino15/packages/arduino/tools/arm-none-eabi-gcc/4.8.3-2014q1/bin/../lib/gcc/arm-none-eabi/4.8.3/../../../../arm-none-eabi/lib/armv7-m/libg.a(lib_a-writer.o)
 .ARM.attributes
                0x0000000000000d0b       0x2d /home/aaa/.arduino15/packages/arduino/tools/arm-none-eabi-gcc/4.8.3-2014q1/bin/../lib/gcc/arm-none-eabi/4.8.3/../../../../arm-none-eabi/lib/armv7-m/libg.a(lib_a-__atexit.o)
 .ARM.attributes
                0x0000000000000d38       0x2d /home/aaa/.arduino15/packages/arduino/tools/arm-none-eabi-gcc/4.8.3-2014q1/bin/../lib/gcc/arm-none-eabi/4.8.3/../../../../arm-none-eabi/lib/armv7-m/libg.a(lib_a-closer.o)
 .ARM.attributes
                0x0000000000000d65       0x2d /home/aaa/.arduino15/packages/arduino/tools/arm-none-eabi-gcc/4.8.3-2014q1/bin/../lib/gcc/arm-none-eabi/4.8.3/../../../../arm-none-eabi/lib/armv7-m/libg.a(lib_a-fclose.o)
 .ARM.attributes
                0x0000000000000d92       0x2d /home/aaa/.arduino15/packages/arduino/tools/arm-none-eabi-gcc/4.8.3-2014q1/bin/../lib/gcc/arm-none-eabi/4.8.3/../../../../arm-none-eabi/lib/armv7-m/libg.a(lib_a-fstatr.o)
 .ARM.attributes
                0x0000000000000dbf       0x2d /home/aaa/.arduino15/packages/arduino/tools/arm-none-eabi-gcc/4.8.3-2014q1/bin/../lib/gcc/arm-none-eabi/4.8.3/../../../../arm-none-eabi/lib/armv7-m/libg.a(lib_a-isattyr.o)
 .ARM.attributes
                0x0000000000000dec       0x2d /home/aaa/.arduino15/packages/arduino/tools/arm-none-eabi-gcc/4.8.3-2014q1/bin/../lib/gcc/arm-none-eabi/4.8.3/../../../../arm-none-eabi/lib/armv7-m/libg.a(lib_a-lseekr.o)
 .ARM.attributes
                0x0000000000000e19       0x2d /home/aaa/.arduino15/packages/arduino/tools/arm-none-eabi-gcc/4.8.3-2014q1/bin/../lib/gcc/arm-none-eabi/4.8.3/../../../../arm-none-eabi/lib/armv7-m/libg.a(lib_a-readr.o)
 .ARM.attributes
                0x0000000000000e46       0x2d /home/aaa/.arduino15/packages/arduino/tools/arm-none-eabi-gcc/4.8.3-2014q1/bin/../lib/gcc/arm-none-eabi/4.8.3/../../../../arm-none-eabi/lib/armv7-m/libg.a(lib_a-reent.o)
 .ARM.attributes
                0x0000000000000e73       0x1d /home/aaa/.arduino15/packages/arduino/tools/arm-none-eabi-gcc/4.8.3-2014q1/bin/../lib/gcc/arm-none-eabi/4.8.3/armv7-m/libgcc.a(_aeabi_uldivmod.o)
 .ARM.attributes
                0x0000000000000e90       0x2d /home/aaa/.arduino15/packages/arduino/tools/arm-none-eabi-gcc/4.8.3-2014q1/bin/../lib/gcc/arm-none-eabi/4.8.3/armv7-m/libgcc.a(bpabi.o)
 .ARM.attributes
                0x0000000000000ebd       0x1d /home/aaa/.arduino15/packages/arduino/tools/arm-none-eabi-gcc/4.8.3-2014q1/bin/../lib/gcc/arm-none-eabi/4.8.3/armv7-m/libgcc.a(_dvmd_tls.o)
 .ARM.attributes
                0x0000000000000eda       0x2d /home/aaa/.arduino15/packages/arduino/tools/arm-none-eabi-gcc/4.8.3-2014q1/bin/../lib/gcc/arm-none-eabi/4.8.3/armv7-m/libgcc.a(_divdi3.o)
 .ARM.attributes
                0x0000000000000f07       0x2d /home/aaa/.arduino15/packages/arduino/tools/arm-none-eabi-gcc/4.8.3-2014q1/bin/../lib/gcc/arm-none-eabi/4.8.3/armv7-m/libgcc.a(_udivdi3.o)
 .ARM.attributes
                0x0000000000000f34       0x1d /home/aaa/.arduino15/packages/arduino/tools/arm-none-eabi-gcc/4.8.3-2014q1/bin/../lib/gcc/arm-none-eabi/4.8.3/armv7-m/crtn.o

.comment        0x0000000000000000       0xf1
 .comment       0x0000000000000000       0x81 /home/aaa/llvm-arduino-due/build/Blink.ino.cpp.o
                                         0x82 (size before relaxing)
 .comment       0x0000000000000000       0x82 /home/aaa/llvm-arduino-due/build/core/variant.cpp.o
 .comment       0x0000000000000081       0x70 /home/aaa/.arduino15/packages/arduino/hardware/sam/1.6.12/variants/arduino_due_x/libsam_sam3x8e_gcc_rel.a(pio.o)
                                         0x71 (size before relaxing)
 .comment       0x0000000000000000       0x71 /home/aaa/.arduino15/packages/arduino/hardware/sam/1.6.12/variants/arduino_due_x/libsam_sam3x8e_gcc_rel.a(pmc.o)
 .comment       0x0000000000000000       0x71 /home/aaa/.arduino15/packages/arduino/hardware/sam/1.6.12/variants/arduino_due_x/libsam_sam3x8e_gcc_rel.a(system_sam3xa.o)
 .comment       0x0000000000000000       0x71 /home/aaa/.arduino15/packages/arduino/hardware/sam/1.6.12/variants/arduino_due_x/libsam_sam3x8e_gcc_rel.a(startup_sam3xa.o)
 .comment       0x0000000000000000       0x71 /home/aaa/.arduino15/packages/arduino/hardware/sam/1.6.12/variants/arduino_due_x/libsam_sam3x8e_gcc_rel.a(adc.o)
 .comment       0x0000000000000000       0x71 /home/aaa/.arduino15/packages/arduino/hardware/sam/1.6.12/variants/arduino_due_x/libsam_sam3x8e_gcc_rel.a(uotghs.o)
 .comment       0x0000000000000000       0x82 /home/aaa/llvm-arduino-due/build/core.a(wiring_analog.c.o)
 .comment       0x0000000000000000       0x82 /home/aaa/llvm-arduino-due/build/core.a(cortex_handlers.c.o)
 .comment       0x0000000000000000       0x82 /home/aaa/llvm-arduino-due/build/core.a(hooks.c.o)
 .comment       0x0000000000000000       0x82 /home/aaa/llvm-arduino-due/build/core.a(wiring.c.o)
 .comment       0x0000000000000000       0x82 /home/aaa/llvm-arduino-due/build/core.a(syscalls_sam3.c.o)
 .comment       0x0000000000000000       0x82 /home/aaa/llvm-arduino-due/build/core.a(wiring_digital.c.o)
 .comment       0x0000000000000000       0x82 /home/aaa/llvm-arduino-due/build/core.a(Print.cpp.o)
 .comment       0x0000000000000000       0x82 /home/aaa/llvm-arduino-due/build/core.a(USARTClass.cpp.o)
 .comment       0x0000000000000000       0x82 /home/aaa/llvm-arduino-due/build/core.a(USBCore.cpp.o)
 .comment       0x0000000000000000       0x82 /home/aaa/llvm-arduino-due/build/core.a(CDC.cpp.o)
 .comment       0x0000000000000000       0x82 /home/aaa/llvm-arduino-due/build/core.a(UARTClass.cpp.o)
 .comment       0x0000000000000000       0x82 /home/aaa/llvm-arduino-due/build/core.a(watchdog.cpp.o)
 .comment       0x0000000000000000       0x82 /home/aaa/llvm-arduino-due/build/core.a(RingBuffer.cpp.o)
 .comment       0x0000000000000000       0x82 /home/aaa/llvm-arduino-due/build/core.a(Reset.cpp.o)
 .comment       0x0000000000000000       0x82 /home/aaa/llvm-arduino-due/build/core.a(PluggableUSB.cpp.o)
 .comment       0x0000000000000000       0x71 /home/aaa/.arduino15/packages/arduino/hardware/sam/1.6.12/variants/arduino_due_x/libsam_sam3x8e_gcc_rel.a(pwmc.o)
 .comment       0x0000000000000000       0x71 /home/aaa/.arduino15/packages/arduino/hardware/sam/1.6.12/variants/arduino_due_x/libsam_sam3x8e_gcc_rel.a(tc.o)
 .comment       0x0000000000000000       0x71 /home/aaa/.arduino15/packages/arduino/hardware/sam/1.6.12/variants/arduino_due_x/libsam_sam3x8e_gcc_rel.a(timetick.o)
 .comment       0x0000000000000000       0x71 /home/aaa/.arduino15/packages/arduino/hardware/sam/1.6.12/variants/arduino_due_x/libsam_sam3x8e_gcc_rel.a(wdt.o)
 .comment       0x0000000000000000       0x71 /home/aaa/.arduino15/packages/arduino/hardware/sam/1.6.12/variants/arduino_due_x/libsam_sam3x8e_gcc_rel.a(interrupt_sam_nvic.o)
 .comment       0x0000000000000000       0x71 /home/aaa/.arduino15/packages/arduino/hardware/sam/1.6.12/variants/arduino_due_x/libsam_sam3x8e_gcc_rel.a(uotghs_device.o)
 .comment       0x0000000000000000       0x71 /home/aaa/.arduino15/packages/arduino/hardware/sam/1.6.12/variants/arduino_due_x/libsam_sam3x8e_gcc_rel.a(dacc.o)

.note.GNU-stack
                0x0000000000000000        0x0
 .note.GNU-stack
                0x0000000000000000        0x0 /home/aaa/llvm-arduino-due/build/Blink.ino.cpp.o
 .note.GNU-stack
                0x0000000000000000        0x0 /home/aaa/llvm-arduino-due/build/core/variant.cpp.o
 .note.GNU-stack
                0x0000000000000000        0x0 /home/aaa/llvm-arduino-due/build/core.a(wiring_analog.c.o)
 .note.GNU-stack
                0x0000000000000000        0x0 /home/aaa/llvm-arduino-due/build/core.a(cortex_handlers.c.o)
 .note.GNU-stack
                0x0000000000000000        0x0 /home/aaa/llvm-arduino-due/build/core.a(hooks.c.o)
 .note.GNU-stack
                0x0000000000000000        0x0 /home/aaa/llvm-arduino-due/build/core.a(wiring.c.o)
 .note.GNU-stack
                0x0000000000000000        0x0 /home/aaa/llvm-arduino-due/build/core.a(syscalls_sam3.c.o)
 .note.GNU-stack
                0x0000000000000000        0x0 /home/aaa/llvm-arduino-due/build/core.a(wiring_digital.c.o)
 .note.GNU-stack
                0x0000000000000000        0x0 /home/aaa/llvm-arduino-due/build/core.a(Print.cpp.o)
 .note.GNU-stack
                0x0000000000000000        0x0 /home/aaa/llvm-arduino-due/build/core.a(USARTClass.cpp.o)
 .note.GNU-stack
                0x0000000000000000        0x0 /home/aaa/llvm-arduino-due/build/core.a(USBCore.cpp.o)
 .note.GNU-stack
                0x0000000000000000        0x0 /home/aaa/llvm-arduino-due/build/core.a(CDC.cpp.o)
 .note.GNU-stack
                0x0000000000000000        0x0 /home/aaa/llvm-arduino-due/build/core.a(UARTClass.cpp.o)
 .note.GNU-stack
                0x0000000000000000        0x0 /home/aaa/llvm-arduino-due/build/core.a(watchdog.cpp.o)
 .note.GNU-stack
                0x0000000000000000        0x0 /home/aaa/llvm-arduino-due/build/core.a(RingBuffer.cpp.o)
 .note.GNU-stack
                0x0000000000000000        0x0 /home/aaa/llvm-arduino-due/build/core.a(Reset.cpp.o)
 .note.GNU-stack
                0x0000000000000000        0x0 /home/aaa/llvm-arduino-due/build/core.a(PluggableUSB.cpp.o)

.debug_str      0x0000000000000000     0x4645
 .debug_str     0x0000000000000000      0x11b /home/aaa/llvm-arduino-due/build/Blink.ino.cpp.o
                                        0x125 (size before relaxing)
 .debug_str     0x000000000000011b      0xc79 /home/aaa/llvm-arduino-due/build/core/variant.cpp.o
                                        0xdb5 (size before relaxing)
 .debug_str     0x0000000000000d94      0x61b /home/aaa/llvm-arduino-due/build/core.a(wiring_analog.c.o)
                                        0x8f4 (size before relaxing)
 .debug_str     0x00000000000013af       0x8c /home/aaa/llvm-arduino-due/build/core.a(cortex_handlers.c.o)
                                        0x128 (size before relaxing)
 .debug_str     0x000000000000143b       0x60 /home/aaa/llvm-arduino-due/build/core.a(hooks.c.o)
                                        0x107 (size before relaxing)
 .debug_str     0x000000000000149b       0x87 /home/aaa/llvm-arduino-due/build/core.a(wiring.c.o)
                                        0x21b (size before relaxing)
 .debug_str     0x0000000000001522      0x2b0 /home/aaa/llvm-arduino-due/build/core.a(syscalls_sam3.c.o)
                                        0x3f4 (size before relaxing)
 .debug_str     0x00000000000017d2       0x80 /home/aaa/llvm-arduino-due/build/core.a(wiring_digital.c.o)
                                        0x307 (size before relaxing)
 .debug_str     0x0000000000001852      0xd2d /home/aaa/llvm-arduino-due/build/core.a(Print.cpp.o)
                                        0xe98 (size before relaxing)
 .debug_str     0x000000000000257f      0x2ef /home/aaa/llvm-arduino-due/build/core.a(USARTClass.cpp.o)
                                        0x667 (size before relaxing)
 .debug_str     0x000000000000286e      0xc26 /home/aaa/llvm-arduino-due/build/core.a(USBCore.cpp.o)
                                        0xe8a (size before relaxing)
 .debug_str     0x0000000000003494      0xa10 /home/aaa/llvm-arduino-due/build/core.a(CDC.cpp.o)
                                       0x1abf (size before relaxing)
 .debug_str     0x0000000000003ea4      0x3a2 /home/aaa/llvm-arduino-due/build/core.a(UARTClass.cpp.o)
                                       0x17c4 (size before relaxing)
 .debug_str     0x0000000000004246       0xd8 /home/aaa/llvm-arduino-due/build/core.a(watchdog.cpp.o)
                                        0x19d (size before relaxing)
 .debug_str     0x000000000000431e       0x6b /home/aaa/llvm-arduino-due/build/core.a(RingBuffer.cpp.o)
                                        0x1b6 (size before relaxing)
 .debug_str     0x0000000000004389       0xf4 /home/aaa/llvm-arduino-due/build/core.a(Reset.cpp.o)
                                        0x1ef (size before relaxing)
 .debug_str     0x000000000000447d      0x1c8 /home/aaa/llvm-arduino-due/build/core.a(PluggableUSB.cpp.o)
                                        0x2d7 (size before relaxing)

.debug_abbrev   0x0000000000000000     0x17f0
 .debug_abbrev  0x0000000000000000       0x80 /home/aaa/llvm-arduino-due/build/Blink.ino.cpp.o
 .debug_abbrev  0x0000000000000080      0x22a /home/aaa/llvm-arduino-due/build/core/variant.cpp.o
 .debug_abbrev  0x00000000000002aa      0x18e /home/aaa/llvm-arduino-due/build/core.a(wiring_analog.c.o)
 .debug_abbrev  0x0000000000000438       0x3a /home/aaa/llvm-arduino-due/build/core.a(cortex_handlers.c.o)
 .debug_abbrev  0x0000000000000472       0x43 /home/aaa/llvm-arduino-due/build/core.a(hooks.c.o)
 .debug_abbrev  0x00000000000004b5       0xe4 /home/aaa/llvm-arduino-due/build/core.a(wiring.c.o)
 .debug_abbrev  0x0000000000000599      0x11f /home/aaa/llvm-arduino-due/build/core.a(syscalls_sam3.c.o)
 .debug_abbrev  0x00000000000006b8       0xd8 /home/aaa/llvm-arduino-due/build/core.a(wiring_digital.c.o)
 .debug_abbrev  0x0000000000000790      0x1d1 /home/aaa/llvm-arduino-due/build/core.a(Print.cpp.o)
 .debug_abbrev  0x0000000000000961      0x178 /home/aaa/llvm-arduino-due/build/core.a(USARTClass.cpp.o)
 .debug_abbrev  0x0000000000000ad9      0x2ea /home/aaa/llvm-arduino-due/build/core.a(USBCore.cpp.o)
 .debug_abbrev  0x0000000000000dc3      0x3c2 /home/aaa/llvm-arduino-due/build/core.a(CDC.cpp.o)
 .debug_abbrev  0x0000000000001185      0x2dd /home/aaa/llvm-arduino-due/build/core.a(UARTClass.cpp.o)
 .debug_abbrev  0x0000000000001462       0x86 /home/aaa/llvm-arduino-due/build/core.a(watchdog.cpp.o)
 .debug_abbrev  0x00000000000014e8      0x103 /home/aaa/llvm-arduino-due/build/core.a(RingBuffer.cpp.o)
 .debug_abbrev  0x00000000000015eb       0xd2 /home/aaa/llvm-arduino-due/build/core.a(Reset.cpp.o)
 .debug_abbrev  0x00000000000016bd      0x133 /home/aaa/llvm-arduino-due/build/core.a(PluggableUSB.cpp.o)

.debug_info     0x0000000000000000     0x998c
 .debug_info    0x0000000000000000       0xf6 /home/aaa/llvm-arduino-due/build/Blink.ino.cpp.o
 .debug_info    0x00000000000000f6      0xde8 /home/aaa/llvm-arduino-due/build/core/variant.cpp.o
 .debug_info    0x0000000000000ede      0xd0a /home/aaa/llvm-arduino-due/build/core.a(wiring_analog.c.o)
 .debug_info    0x0000000000001be8       0x6b /home/aaa/llvm-arduino-due/build/core.a(cortex_handlers.c.o)
 .debug_info    0x0000000000001c53       0x65 /home/aaa/llvm-arduino-due/build/core.a(hooks.c.o)
 .debug_info    0x0000000000001cb8      0x2d3 /home/aaa/llvm-arduino-due/build/core.a(wiring.c.o)
 .debug_info    0x0000000000001f8b      0x55c /home/aaa/llvm-arduino-due/build/core.a(syscalls_sam3.c.o)
 .debug_info    0x00000000000024e7      0x327 /home/aaa/llvm-arduino-due/build/core.a(wiring_digital.c.o)
 .debug_info    0x000000000000280e     0x16bd /home/aaa/llvm-arduino-due/build/core.a(Print.cpp.o)
 .debug_info    0x0000000000003ecb      0x591 /home/aaa/llvm-arduino-due/build/core.a(USARTClass.cpp.o)
 .debug_info    0x000000000000445c     0x113b /home/aaa/llvm-arduino-due/build/core.a(USBCore.cpp.o)
 .debug_info    0x0000000000005597     0x20d8 /home/aaa/llvm-arduino-due/build/core.a(CDC.cpp.o)
 .debug_info    0x000000000000766f     0x1c45 /home/aaa/llvm-arduino-due/build/core.a(UARTClass.cpp.o)
 .debug_info    0x00000000000092b4       0xb4 /home/aaa/llvm-arduino-due/build/core.a(watchdog.cpp.o)
 .debug_info    0x0000000000009368      0x14b /home/aaa/llvm-arduino-due/build/core.a(RingBuffer.cpp.o)
 .debug_info    0x00000000000094b3      0x1a6 /home/aaa/llvm-arduino-due/build/core.a(Reset.cpp.o)
 .debug_info    0x0000000000009659      0x333 /home/aaa/llvm-arduino-due/build/core.a(PluggableUSB.cpp.o)

.debug_frame    0x0000000000000000     0x21c0
 .debug_frame   0x0000000000000000       0xa0 /home/aaa/llvm-arduino-due/build/Blink.ino.cpp.o
 .debug_frame   0x00000000000000a0      0x2ac /home/aaa/llvm-arduino-due/build/core/variant.cpp.o
 .debug_frame   0x000000000000034c       0xdc /home/aaa/llvm-arduino-due/build/core.a(wiring_analog.c.o)
 .debug_frame   0x0000000000000428       0x7c /home/aaa/llvm-arduino-due/build/core.a(cortex_handlers.c.o)
 .debug_frame   0x00000000000004a4       0x50 /home/aaa/llvm-arduino-due/build/core.a(hooks.c.o)
 .debug_frame   0x00000000000004f4       0x68 /home/aaa/llvm-arduino-due/build/core.a(wiring.c.o)
 .debug_frame   0x000000000000055c       0xf0 /home/aaa/llvm-arduino-due/build/core.a(syscalls_sam3.c.o)
 .debug_frame   0x000000000000064c       0x6c /home/aaa/llvm-arduino-due/build/core.a(wiring_digital.c.o)
 .debug_frame   0x00000000000006b8      0x390 /home/aaa/llvm-arduino-due/build/core.a(Print.cpp.o)
 .debug_frame   0x0000000000000a48       0xac /home/aaa/llvm-arduino-due/build/core.a(USARTClass.cpp.o)
 .debug_frame   0x0000000000000af4      0x374 /home/aaa/llvm-arduino-due/build/core.a(USBCore.cpp.o)
 .debug_frame   0x0000000000000e68      0x2b4 /home/aaa/llvm-arduino-due/build/core.a(CDC.cpp.o)
 .debug_frame   0x000000000000111c      0x250 /home/aaa/llvm-arduino-due/build/core.a(UARTClass.cpp.o)
 .debug_frame   0x000000000000136c       0x84 /home/aaa/llvm-arduino-due/build/core.a(watchdog.cpp.o)
 .debug_frame   0x00000000000013f0       0x48 /home/aaa/llvm-arduino-due/build/core.a(RingBuffer.cpp.o)
 .debug_frame   0x0000000000001438       0x6c /home/aaa/llvm-arduino-due/build/core.a(Reset.cpp.o)
 .debug_frame   0x00000000000014a4       0xc8 /home/aaa/llvm-arduino-due/build/core.a(PluggableUSB.cpp.o)
 .debug_frame   0x000000000000156c       0x28 /home/aaa/.arduino15/packages/arduino/tools/arm-none-eabi-gcc/4.8.3-2014q1/bin/../lib/gcc/arm-none-eabi/4.8.3/../../../../arm-none-eabi/lib/armv7-m/libm.a(lib_a-s_fpclassify.o)
 .debug_frame   0x0000000000001594       0x40 /home/aaa/.arduino15/packages/arduino/tools/arm-none-eabi-gcc/4.8.3-2014q1/bin/../lib/gcc/arm-none-eabi/4.8.3/../../../../arm-none-eabi/lib/armv7-m/libg.a(lib_a-assert.o)
 .debug_frame   0x00000000000015d4       0x5c /home/aaa/.arduino15/packages/arduino/tools/arm-none-eabi-gcc/4.8.3-2014q1/bin/../lib/gcc/arm-none-eabi/4.8.3/../../../../arm-none-eabi/lib/armv7-m/libg.a(lib_a-fiprintf.o)
 .debug_frame   0x0000000000001630       0x2c /home/aaa/.arduino15/packages/arduino/tools/arm-none-eabi-gcc/4.8.3-2014q1/bin/../lib/gcc/arm-none-eabi/4.8.3/../../../../arm-none-eabi/lib/armv7-m/libg.a(lib_a-init.o)
 .debug_frame   0x000000000000165c       0x2c /home/aaa/.arduino15/packages/arduino/tools/arm-none-eabi-gcc/4.8.3-2014q1/bin/../lib/gcc/arm-none-eabi/4.8.3/../../../../arm-none-eabi/lib/armv7-m/libg.a(lib_a-memset.o)
 .debug_frame   0x0000000000001688       0x20 /home/aaa/.arduino15/packages/arduino/tools/arm-none-eabi-gcc/4.8.3-2014q1/bin/../lib/gcc/arm-none-eabi/4.8.3/../../../../arm-none-eabi/lib/armv7-m/libg.a(lib_a-strlen.o)
 .debug_frame   0x00000000000016a8       0x20 /home/aaa/.arduino15/packages/arduino/tools/arm-none-eabi-gcc/4.8.3-2014q1/bin/../lib/gcc/arm-none-eabi/4.8.3/../../../../arm-none-eabi/lib/armv7-m/libg.a(lib_a-syskill.o)
 .debug_frame   0x00000000000016c8       0xb8 /home/aaa/.arduino15/packages/arduino/tools/arm-none-eabi-gcc/4.8.3-2014q1/bin/../lib/gcc/arm-none-eabi/4.8.3/../../../../arm-none-eabi/lib/armv7-m/libg.a(lib_a-vfiprintf.o)
 .debug_frame   0x0000000000001780       0x2c /home/aaa/.arduino15/packages/arduino/tools/arm-none-eabi-gcc/4.8.3-2014q1/bin/../lib/gcc/arm-none-eabi/4.8.3/../../../../arm-none-eabi/lib/armv7-m/libg.a(lib_a-wsetup.o)
 .debug_frame   0x00000000000017ac       0x48 /home/aaa/.arduino15/packages/arduino/tools/arm-none-eabi-gcc/4.8.3-2014q1/bin/../lib/gcc/arm-none-eabi/4.8.3/../../../../arm-none-eabi/lib/armv7-m/libg.a(lib_a-__call_atexit.o)
 .debug_frame   0x00000000000017f4       0x28 /home/aaa/.arduino15/packages/arduino/tools/arm-none-eabi-gcc/4.8.3-2014q1/bin/../lib/gcc/arm-none-eabi/4.8.3/../../../../arm-none-eabi/lib/armv7-m/libg.a(lib_a-abort.o)
 .debug_frame   0x000000000000181c       0x20 /home/aaa/.arduino15/packages/arduino/tools/arm-none-eabi-gcc/4.8.3-2014q1/bin/../lib/gcc/arm-none-eabi/4.8.3/../../../../arm-none-eabi/lib/armv7-m/libg.a(lib_a-atexit.o)
 .debug_frame   0x000000000000183c       0x5c /home/aaa/.arduino15/packages/arduino/tools/arm-none-eabi-gcc/4.8.3-2014q1/bin/../lib/gcc/arm-none-eabi/4.8.3/../../../../arm-none-eabi/lib/armv7-m/libg.a(lib_a-fflush.o)
 .debug_frame   0x0000000000001898      0x110 /home/aaa/.arduino15/packages/arduino/tools/arm-none-eabi-gcc/4.8.3-2014q1/bin/../lib/gcc/arm-none-eabi/4.8.3/../../../../arm-none-eabi/lib/armv7-m/libg.a(lib_a-findfp.o)
 .debug_frame   0x00000000000019a8       0x2c /home/aaa/.arduino15/packages/arduino/tools/arm-none-eabi-gcc/4.8.3-2014q1/bin/../lib/gcc/arm-none-eabi/4.8.3/../../../../arm-none-eabi/lib/armv7-m/libg.a(lib_a-fini.o)
 .debug_frame   0x00000000000019d4       0x50 /home/aaa/.arduino15/packages/arduino/tools/arm-none-eabi-gcc/4.8.3-2014q1/bin/../lib/gcc/arm-none-eabi/4.8.3/../../../../arm-none-eabi/lib/armv7-m/libg.a(lib_a-fputwc.o)
 .debug_frame   0x0000000000001a24       0x50 /home/aaa/.arduino15/packages/arduino/tools/arm-none-eabi-gcc/4.8.3-2014q1/bin/../lib/gcc/arm-none-eabi/4.8.3/../../../../arm-none-eabi/lib/armv7-m/libg.a(lib_a-freer.o)
 .debug_frame   0x0000000000001a74       0x38 /home/aaa/.arduino15/packages/arduino/tools/arm-none-eabi-gcc/4.8.3-2014q1/bin/../lib/gcc/arm-none-eabi/4.8.3/../../../../arm-none-eabi/lib/armv7-m/libg.a(lib_a-fvwrite.o)
 .debug_frame   0x0000000000001aac       0x54 /home/aaa/.arduino15/packages/arduino/tools/arm-none-eabi-gcc/4.8.3-2014q1/bin/../lib/gcc/arm-none-eabi/4.8.3/../../../../arm-none-eabi/lib/armv7-m/libg.a(lib_a-fwalk.o)
 .debug_frame   0x0000000000001b00       0x98 /home/aaa/.arduino15/packages/arduino/tools/arm-none-eabi-gcc/4.8.3-2014q1/bin/../lib/gcc/arm-none-eabi/4.8.3/../../../../arm-none-eabi/lib/armv7-m/libg.a(lib_a-locale.o)
 .debug_frame   0x0000000000001b98       0x30 /home/aaa/.arduino15/packages/arduino/tools/arm-none-eabi-gcc/4.8.3-2014q1/bin/../lib/gcc/arm-none-eabi/4.8.3/../../../../arm-none-eabi/lib/armv7-m/libg.a(lib_a-makebuf.o)
 .debug_frame   0x0000000000001bc8       0x38 /home/aaa/.arduino15/packages/arduino/tools/arm-none-eabi-gcc/4.8.3-2014q1/bin/../lib/gcc/arm-none-eabi/4.8.3/../../../../arm-none-eabi/lib/armv7-m/libg.a(lib_a-mallocr.o)
 .debug_frame   0x0000000000001c00       0x2c /home/aaa/.arduino15/packages/arduino/tools/arm-none-eabi-gcc/4.8.3-2014q1/bin/../lib/gcc/arm-none-eabi/4.8.3/../../../../arm-none-eabi/lib/armv7-m/libg.a(lib_a-memchr-stub.o)
 .debug_frame   0x0000000000001c2c       0x2c /home/aaa/.arduino15/packages/arduino/tools/arm-none-eabi-gcc/4.8.3-2014q1/bin/../lib/gcc/arm-none-eabi/4.8.3/../../../../arm-none-eabi/lib/armv7-m/libg.a(lib_a-memmove.o)
 .debug_frame   0x0000000000001c58       0x30 /home/aaa/.arduino15/packages/arduino/tools/arm-none-eabi-gcc/4.8.3-2014q1/bin/../lib/gcc/arm-none-eabi/4.8.3/../../../../arm-none-eabi/lib/armv7-m/libg.a(lib_a-mlock.o)
 .debug_frame   0x0000000000001c88       0x38 /home/aaa/.arduino15/packages/arduino/tools/arm-none-eabi-gcc/4.8.3-2014q1/bin/../lib/gcc/arm-none-eabi/4.8.3/../../../../arm-none-eabi/lib/armv7-m/libg.a(lib_a-reallocr.o)
 .debug_frame   0x0000000000001cc0       0x2c /home/aaa/.arduino15/packages/arduino/tools/arm-none-eabi-gcc/4.8.3-2014q1/bin/../lib/gcc/arm-none-eabi/4.8.3/../../../../arm-none-eabi/lib/armv7-m/libg.a(lib_a-sbrkr.o)
 .debug_frame   0x0000000000001cec       0xc0 /home/aaa/.arduino15/packages/arduino/tools/arm-none-eabi-gcc/4.8.3-2014q1/bin/../lib/gcc/arm-none-eabi/4.8.3/../../../../arm-none-eabi/lib/armv7-m/libg.a(lib_a-signal.o)
 .debug_frame   0x0000000000001dac       0x3c /home/aaa/.arduino15/packages/arduino/tools/arm-none-eabi-gcc/4.8.3-2014q1/bin/../lib/gcc/arm-none-eabi/4.8.3/../../../../arm-none-eabi/lib/armv7-m/libg.a(lib_a-signalr.o)
 .debug_frame   0x0000000000001de8       0x80 /home/aaa/.arduino15/packages/arduino/tools/arm-none-eabi-gcc/4.8.3-2014q1/bin/../lib/gcc/arm-none-eabi/4.8.3/../../../../arm-none-eabi/lib/armv7-m/libg.a(lib_a-stdio.o)
 .debug_frame   0x0000000000001e68       0x40 /home/aaa/.arduino15/packages/arduino/tools/arm-none-eabi-gcc/4.8.3-2014q1/bin/../lib/gcc/arm-none-eabi/4.8.3/../../../../arm-none-eabi/lib/armv7-m/libg.a(lib_a-wbuf.o)
 .debug_frame   0x0000000000001ea8       0x58 /home/aaa/.arduino15/packages/arduino/tools/arm-none-eabi-gcc/4.8.3-2014q1/bin/../lib/gcc/arm-none-eabi/4.8.3/../../../../arm-none-eabi/lib/armv7-m/libg.a(lib_a-wcrtomb.o)
 .debug_frame   0x0000000000001f00       0x44 /home/aaa/.arduino15/packages/arduino/tools/arm-none-eabi-gcc/4.8.3-2014q1/bin/../lib/gcc/arm-none-eabi/4.8.3/../../../../arm-none-eabi/lib/armv7-m/libg.a(lib_a-wctomb_r.o)
 .debug_frame   0x0000000000001f44       0x2c /home/aaa/.arduino15/packages/arduino/tools/arm-none-eabi-gcc/4.8.3-2014q1/bin/../lib/gcc/arm-none-eabi/4.8.3/../../../../arm-none-eabi/lib/armv7-m/libg.a(lib_a-writer.o)
 .debug_frame   0x0000000000001f70       0x30 /home/aaa/.arduino15/packages/arduino/tools/arm-none-eabi-gcc/4.8.3-2014q1/bin/../lib/gcc/arm-none-eabi/4.8.3/../../../../arm-none-eabi/lib/armv7-m/libg.a(lib_a-__atexit.o)
 .debug_frame   0x0000000000001fa0       0x2c /home/aaa/.arduino15/packages/arduino/tools/arm-none-eabi-gcc/4.8.3-2014q1/bin/../lib/gcc/arm-none-eabi/4.8.3/../../../../arm-none-eabi/lib/armv7-m/libg.a(lib_a-closer.o)
 .debug_frame   0x0000000000001fcc       0x3c /home/aaa/.arduino15/packages/arduino/tools/arm-none-eabi-gcc/4.8.3-2014q1/bin/../lib/gcc/arm-none-eabi/4.8.3/../../../../arm-none-eabi/lib/armv7-m/libg.a(lib_a-fclose.o)
 .debug_frame   0x0000000000002008       0x2c /home/aaa/.arduino15/packages/arduino/tools/arm-none-eabi-gcc/4.8.3-2014q1/bin/../lib/gcc/arm-none-eabi/4.8.3/../../../../arm-none-eabi/lib/armv7-m/libg.a(lib_a-fstatr.o)
 .debug_frame   0x0000000000002034       0x2c /home/aaa/.arduino15/packages/arduino/tools/arm-none-eabi-gcc/4.8.3-2014q1/bin/../lib/gcc/arm-none-eabi/4.8.3/../../../../arm-none-eabi/lib/armv7-m/libg.a(lib_a-isattyr.o)
 .debug_frame   0x0000000000002060       0x2c /home/aaa/.arduino15/packages/arduino/tools/arm-none-eabi-gcc/4.8.3-2014q1/bin/../lib/gcc/arm-none-eabi/4.8.3/../../../../arm-none-eabi/lib/armv7-m/libg.a(lib_a-lseekr.o)
 .debug_frame   0x000000000000208c       0x2c /home/aaa/.arduino15/packages/arduino/tools/arm-none-eabi-gcc/4.8.3-2014q1/bin/../lib/gcc/arm-none-eabi/4.8.3/../../../../arm-none-eabi/lib/armv7-m/libg.a(lib_a-readr.o)
 .debug_frame   0x00000000000020b8       0x48 /home/aaa/.arduino15/packages/arduino/tools/arm-none-eabi-gcc/4.8.3-2014q1/bin/../lib/gcc/arm-none-eabi/4.8.3/../../../../arm-none-eabi/lib/armv7-m/libg.a(lib_a-reent.o)
 .debug_frame   0x0000000000002100       0x58 /home/aaa/.arduino15/packages/arduino/tools/arm-none-eabi-gcc/4.8.3-2014q1/bin/../lib/gcc/arm-none-eabi/4.8.3/armv7-m/libgcc.a(bpabi.o)
 .debug_frame   0x0000000000002158       0x34 /home/aaa/.arduino15/packages/arduino/tools/arm-none-eabi-gcc/4.8.3-2014q1/bin/../lib/gcc/arm-none-eabi/4.8.3/armv7-m/libgcc.a(_divdi3.o)
 .debug_frame   0x000000000000218c       0x34 /home/aaa/.arduino15/packages/arduino/tools/arm-none-eabi-gcc/4.8.3-2014q1/bin/../lib/gcc/arm-none-eabi/4.8.3/armv7-m/libgcc.a(_udivdi3.o)

.debug_line     0x0000000000000000     0x6073
 .debug_line    0x0000000000000000      0x116 /home/aaa/llvm-arduino-due/build/Blink.ino.cpp.o
 .debug_line    0x0000000000000116      0x8fb /home/aaa/llvm-arduino-due/build/core/variant.cpp.o
 .debug_line    0x0000000000000a11      0x96c /home/aaa/llvm-arduino-due/build/core.a(wiring_analog.c.o)
 .debug_line    0x000000000000137d       0xe0 /home/aaa/llvm-arduino-due/build/core.a(cortex_handlers.c.o)
 .debug_line    0x000000000000145d       0xa4 /home/aaa/llvm-arduino-due/build/core.a(hooks.c.o)
 .debug_line    0x0000000000001501      0x2c7 /home/aaa/llvm-arduino-due/build/core.a(wiring.c.o)
 .debug_line    0x00000000000017c8      0x4a6 /home/aaa/llvm-arduino-due/build/core.a(syscalls_sam3.c.o)
 .debug_line    0x0000000000001c6e      0x507 /home/aaa/llvm-arduino-due/build/core.a(wiring_digital.c.o)
 .debug_line    0x0000000000002175      0x8a0 /home/aaa/llvm-arduino-due/build/core.a(Print.cpp.o)
 .debug_line    0x0000000000002a15      0x473 /home/aaa/llvm-arduino-due/build/core.a(USARTClass.cpp.o)
 .debug_line    0x0000000000002e88     0x1012 /home/aaa/llvm-arduino-due/build/core.a(USBCore.cpp.o)
 .debug_line    0x0000000000003e9a      0xab3 /home/aaa/llvm-arduino-due/build/core.a(CDC.cpp.o)
 .debug_line    0x000000000000494d      0xa5e /home/aaa/llvm-arduino-due/build/core.a(UARTClass.cpp.o)
 .debug_line    0x00000000000053ab      0x280 /home/aaa/llvm-arduino-due/build/core.a(watchdog.cpp.o)
 .debug_line    0x000000000000562b      0x20b /home/aaa/llvm-arduino-due/build/core.a(RingBuffer.cpp.o)
 .debug_line    0x0000000000005836      0x3be /home/aaa/llvm-arduino-due/build/core.a(Reset.cpp.o)
 .debug_line    0x0000000000005bf4      0x47f /home/aaa/llvm-arduino-due/build/core.a(PluggableUSB.cpp.o)

.debug_ranges   0x0000000000000000      0x138
 .debug_ranges  0x0000000000000000       0x50 /home/aaa/llvm-arduino-due/build/core.a(Print.cpp.o)
 .debug_ranges  0x0000000000000050       0x20 /home/aaa/llvm-arduino-due/build/core.a(USARTClass.cpp.o)
 .debug_ranges  0x0000000000000070       0x28 /home/aaa/llvm-arduino-due/build/core.a(USBCore.cpp.o)
 .debug_ranges  0x0000000000000098       0x40 /home/aaa/llvm-arduino-due/build/core.a(CDC.cpp.o)
 .debug_ranges  0x00000000000000d8       0x48 /home/aaa/llvm-arduino-due/build/core.a(UARTClass.cpp.o)
 .debug_ranges  0x0000000000000120       0x18 /home/aaa/llvm-arduino-due/build/core.a(Reset.cpp.o)

.debug_loc      0x0000000000000000       0x1c
 .debug_loc     0x0000000000000000       0x1c /home/aaa/llvm-arduino-due/build/core.a(USBCore.cpp.o)

Cross Reference Table

Symbol                                            File
ADC_Handler                                       /home/aaa/llvm-arduino-due/build/core.a(cortex_handlers.c.o)
                                                  /home/aaa/.arduino15/packages/arduino/hardware/sam/1.6.12/variants/arduino_due_x/libsam_sam3x8e_gcc_rel.a(startup_sam3xa.o)
BusFault_Handler                                  /home/aaa/llvm-arduino-due/build/core.a(cortex_handlers.c.o)
                                                  /home/aaa/.arduino15/packages/arduino/hardware/sam/1.6.12/variants/arduino_due_x/libsam_sam3x8e_gcc_rel.a(startup_sam3xa.o)
CAN0_Handler                                      /home/aaa/llvm-arduino-due/build/core.a(cortex_handlers.c.o)
                                                  /home/aaa/.arduino15/packages/arduino/hardware/sam/1.6.12/variants/arduino_due_x/libsam_sam3x8e_gcc_rel.a(startup_sam3xa.o)
CAN1_Handler                                      /home/aaa/llvm-arduino-due/build/core.a(cortex_handlers.c.o)
                                                  /home/aaa/.arduino15/packages/arduino/hardware/sam/1.6.12/variants/arduino_due_x/libsam_sam3x8e_gcc_rel.a(startup_sam3xa.o)
CDC_GetInterface(unsigned char*)                  /home/aaa/llvm-arduino-due/build/core.a(CDC.cpp.o)
                                                  /home/aaa/llvm-arduino-due/build/core.a(USBCore.cpp.o)
CDC_GetOtherInterface(unsigned char*)             /home/aaa/llvm-arduino-due/build/core.a(CDC.cpp.o)
                                                  /home/aaa/llvm-arduino-due/build/core.a(USBCore.cpp.o)
CDC_Setup(USBSetup&)                              /home/aaa/llvm-arduino-due/build/core.a(CDC.cpp.o)
                                                  /home/aaa/llvm-arduino-due/build/core.a(USBCore.cpp.o)
DACC_Handler                                      /home/aaa/llvm-arduino-due/build/core.a(cortex_handlers.c.o)
                                                  /home/aaa/.arduino15/packages/arduino/hardware/sam/1.6.12/variants/arduino_due_x/libsam_sam3x8e_gcc_rel.a(startup_sam3xa.o)
DMAC_Handler                                      /home/aaa/llvm-arduino-due/build/core.a(cortex_handlers.c.o)
                                                  /home/aaa/.arduino15/packages/arduino/hardware/sam/1.6.12/variants/arduino_due_x/libsam_sam3x8e_gcc_rel.a(startup_sam3xa.o)
DebugMon_Handler                                  /home/aaa/llvm-arduino-due/build/core.a(cortex_handlers.c.o)
                                                  /home/aaa/.arduino15/packages/arduino/hardware/sam/1.6.12/variants/arduino_due_x/libsam_sam3x8e_gcc_rel.a(startup_sam3xa.o)
EFC0_Handler                                      /home/aaa/llvm-arduino-due/build/core.a(cortex_handlers.c.o)
                                                  /home/aaa/.arduino15/packages/arduino/hardware/sam/1.6.12/variants/arduino_due_x/libsam_sam3x8e_gcc_rel.a(startup_sam3xa.o)
EFC1_Handler                                      /home/aaa/llvm-arduino-due/build/core.a(cortex_handlers.c.o)
                                                  /home/aaa/.arduino15/packages/arduino/hardware/sam/1.6.12/variants/arduino_due_x/libsam_sam3x8e_gcc_rel.a(startup_sam3xa.o)
EMAC_Handler                                      /home/aaa/llvm-arduino-due/build/core.a(cortex_handlers.c.o)
                                                  /home/aaa/.arduino15/packages/arduino/hardware/sam/1.6.12/variants/arduino_due_x/libsam_sam3x8e_gcc_rel.a(startup_sam3xa.o)
EndPoints                                         /home/aaa/llvm-arduino-due/build/core.a(USBCore.cpp.o)
                                                  /home/aaa/llvm-arduino-due/build/core.a(PluggableUSB.cpp.o)
GetTickCount                                      /home/aaa/.arduino15/packages/arduino/hardware/sam/1.6.12/variants/arduino_due_x/libsam_sam3x8e_gcc_rel.a(timetick.o)
                                                  /home/aaa/llvm-arduino-due/build/core.a(wiring.c.o)
HSMCI_Handler                                     /home/aaa/llvm-arduino-due/build/core.a(cortex_handlers.c.o)
                                                  /home/aaa/.arduino15/packages/arduino/hardware/sam/1.6.12/variants/arduino_due_x/libsam_sam3x8e_gcc_rel.a(startup_sam3xa.o)
HardFault_Handler                                 /home/aaa/llvm-arduino-due/build/core.a(cortex_handlers.c.o)
                                                  /home/aaa/.arduino15/packages/arduino/hardware/sam/1.6.12/variants/arduino_due_x/libsam_sam3x8e_gcc_rel.a(startup_sam3xa.o)
HardwareSerial::HardwareSerial()                  /home/aaa/llvm-arduino-due/build/core.a(UARTClass.cpp.o)
HardwareSerial::begin(unsigned long)              /home/aaa/llvm-arduino-due/build/core.a(USARTClass.cpp.o)
                                                  /home/aaa/llvm-arduino-due/build/core.a(UARTClass.cpp.o)
HardwareSerial::end()                             /home/aaa/llvm-arduino-due/build/core.a(UARTClass.cpp.o)
LockEP::LockEP(unsigned int)                      /home/aaa/llvm-arduino-due/build/core.a(USBCore.cpp.o)
LockEP::~LockEP()                                 /home/aaa/llvm-arduino-due/build/core.a(USBCore.cpp.o)
MemManage_Handler                                 /home/aaa/llvm-arduino-due/build/core.a(cortex_handlers.c.o)
                                                  /home/aaa/.arduino15/packages/arduino/hardware/sam/1.6.12/variants/arduino_due_x/libsam_sam3x8e_gcc_rel.a(startup_sam3xa.o)
NMI_Handler                                       /home/aaa/llvm-arduino-due/build/core.a(cortex_handlers.c.o)
                                                  /home/aaa/.arduino15/packages/arduino/hardware/sam/1.6.12/variants/arduino_due_x/libsam_sam3x8e_gcc_rel.a(startup_sam3xa.o)
PIOA_Handler                                      /home/aaa/llvm-arduino-due/build/core.a(cortex_handlers.c.o)
                                                  /home/aaa/.arduino15/packages/arduino/hardware/sam/1.6.12/variants/arduino_due_x/libsam_sam3x8e_gcc_rel.a(startup_sam3xa.o)
PIOB_Handler                                      /home/aaa/llvm-arduino-due/build/core.a(cortex_handlers.c.o)
                                                  /home/aaa/.arduino15/packages/arduino/hardware/sam/1.6.12/variants/arduino_due_x/libsam_sam3x8e_gcc_rel.a(startup_sam3xa.o)
PIOC_Handler                                      /home/aaa/llvm-arduino-due/build/core.a(cortex_handlers.c.o)
                                                  /home/aaa/.arduino15/packages/arduino/hardware/sam/1.6.12/variants/arduino_due_x/libsam_sam3x8e_gcc_rel.a(startup_sam3xa.o)
PIOD_Handler                                      /home/aaa/llvm-arduino-due/build/core.a(cortex_handlers.c.o)
                                                  /home/aaa/.arduino15/packages/arduino/hardware/sam/1.6.12/variants/arduino_due_x/libsam_sam3x8e_gcc_rel.a(startup_sam3xa.o)
PIO_Clear                                         /home/aaa/.arduino15/packages/arduino/hardware/sam/1.6.12/variants/arduino_due_x/libsam_sam3x8e_gcc_rel.a(pio.o)
PIO_Configure                                     /home/aaa/.arduino15/packages/arduino/hardware/sam/1.6.12/variants/arduino_due_x/libsam_sam3x8e_gcc_rel.a(pio.o)
                                                  /home/aaa/llvm-arduino-due/build/core.a(wiring_digital.c.o)
                                                  /home/aaa/llvm-arduino-due/build/core.a(wiring_analog.c.o)
                                                  /home/aaa/llvm-arduino-due/build/core/variant.cpp.o
PIO_DisableInterrupt                              /home/aaa/.arduino15/packages/arduino/hardware/sam/1.6.12/variants/arduino_due_x/libsam_sam3x8e_gcc_rel.a(pio.o)
PIO_Get                                           /home/aaa/.arduino15/packages/arduino/hardware/sam/1.6.12/variants/arduino_due_x/libsam_sam3x8e_gcc_rel.a(pio.o)
                                                  /home/aaa/llvm-arduino-due/build/core.a(wiring_digital.c.o)
PIO_GetOutputDataStatus                           /home/aaa/.arduino15/packages/arduino/hardware/sam/1.6.12/variants/arduino_due_x/libsam_sam3x8e_gcc_rel.a(pio.o)
                                                  /home/aaa/llvm-arduino-due/build/core.a(wiring_digital.c.o)
PIO_PullUp                                        /home/aaa/.arduino15/packages/arduino/hardware/sam/1.6.12/variants/arduino_due_x/libsam_sam3x8e_gcc_rel.a(pio.o)
                                                  /home/aaa/llvm-arduino-due/build/core.a(wiring_digital.c.o)
PIO_Set                                           /home/aaa/.arduino15/packages/arduino/hardware/sam/1.6.12/variants/arduino_due_x/libsam_sam3x8e_gcc_rel.a(pio.o)
PIO_SetDebounceFilter                             /home/aaa/.arduino15/packages/arduino/hardware/sam/1.6.12/variants/arduino_due_x/libsam_sam3x8e_gcc_rel.a(pio.o)
PIO_SetInput                                      /home/aaa/.arduino15/packages/arduino/hardware/sam/1.6.12/variants/arduino_due_x/libsam_sam3x8e_gcc_rel.a(pio.o)
PIO_SetOutput                                     /home/aaa/.arduino15/packages/arduino/hardware/sam/1.6.12/variants/arduino_due_x/libsam_sam3x8e_gcc_rel.a(pio.o)
                                                  /home/aaa/llvm-arduino-due/build/core.a(wiring_digital.c.o)
PIO_SetPeripheral                                 /home/aaa/.arduino15/packages/arduino/hardware/sam/1.6.12/variants/arduino_due_x/libsam_sam3x8e_gcc_rel.a(pio.o)
PMC_Handler                                       /home/aaa/llvm-arduino-due/build/core.a(cortex_handlers.c.o)
                                                  /home/aaa/.arduino15/packages/arduino/hardware/sam/1.6.12/variants/arduino_due_x/libsam_sam3x8e_gcc_rel.a(startup_sam3xa.o)
PWMC_ConfigureChannel                             /home/aaa/.arduino15/packages/arduino/hardware/sam/1.6.12/variants/arduino_due_x/libsam_sam3x8e_gcc_rel.a(pwmc.o)
                                                  /home/aaa/llvm-arduino-due/build/core.a(wiring_analog.c.o)
PWMC_ConfigureChannelExt                          /home/aaa/.arduino15/packages/arduino/hardware/sam/1.6.12/variants/arduino_due_x/libsam_sam3x8e_gcc_rel.a(pwmc.o)
PWMC_ConfigureClocks                              /home/aaa/.arduino15/packages/arduino/hardware/sam/1.6.12/variants/arduino_due_x/libsam_sam3x8e_gcc_rel.a(pwmc.o)
                                                  /home/aaa/llvm-arduino-due/build/core.a(wiring_analog.c.o)
PWMC_ConfigureComparisonUnit                      /home/aaa/.arduino15/packages/arduino/hardware/sam/1.6.12/variants/arduino_due_x/libsam_sam3x8e_gcc_rel.a(pwmc.o)
PWMC_ConfigureEventLineMode                       /home/aaa/.arduino15/packages/arduino/hardware/sam/1.6.12/variants/arduino_due_x/libsam_sam3x8e_gcc_rel.a(pwmc.o)
PWMC_ConfigureSyncChannel                         /home/aaa/.arduino15/packages/arduino/hardware/sam/1.6.12/variants/arduino_due_x/libsam_sam3x8e_gcc_rel.a(pwmc.o)
PWMC_DisableChannel                               /home/aaa/.arduino15/packages/arduino/hardware/sam/1.6.12/variants/arduino_due_x/libsam_sam3x8e_gcc_rel.a(pwmc.o)
PWMC_DisableChannelIt                             /home/aaa/.arduino15/packages/arduino/hardware/sam/1.6.12/variants/arduino_due_x/libsam_sam3x8e_gcc_rel.a(pwmc.o)
PWMC_DisableIt                                    /home/aaa/.arduino15/packages/arduino/hardware/sam/1.6.12/variants/arduino_due_x/libsam_sam3x8e_gcc_rel.a(pwmc.o)
PWMC_DisableOverrideOutput                        /home/aaa/.arduino15/packages/arduino/hardware/sam/1.6.12/variants/arduino_due_x/libsam_sam3x8e_gcc_rel.a(pwmc.o)
PWMC_EnableChannel                                /home/aaa/.arduino15/packages/arduino/hardware/sam/1.6.12/variants/arduino_due_x/libsam_sam3x8e_gcc_rel.a(pwmc.o)
                                                  /home/aaa/llvm-arduino-due/build/core.a(wiring_analog.c.o)
PWMC_EnableChannelIt                              /home/aaa/.arduino15/packages/arduino/hardware/sam/1.6.12/variants/arduino_due_x/libsam_sam3x8e_gcc_rel.a(pwmc.o)
PWMC_EnableFaultProtection                        /home/aaa/.arduino15/packages/arduino/hardware/sam/1.6.12/variants/arduino_due_x/libsam_sam3x8e_gcc_rel.a(pwmc.o)
PWMC_EnableIt                                     /home/aaa/.arduino15/packages/arduino/hardware/sam/1.6.12/variants/arduino_due_x/libsam_sam3x8e_gcc_rel.a(pwmc.o)
PWMC_EnableOverrideOutput                         /home/aaa/.arduino15/packages/arduino/hardware/sam/1.6.12/variants/arduino_due_x/libsam_sam3x8e_gcc_rel.a(pwmc.o)
PWMC_FaultClear                                   /home/aaa/.arduino15/packages/arduino/hardware/sam/1.6.12/variants/arduino_due_x/libsam_sam3x8e_gcc_rel.a(pwmc.o)
PWMC_SetDeadTime                                  /home/aaa/.arduino15/packages/arduino/hardware/sam/1.6.12/variants/arduino_due_x/libsam_sam3x8e_gcc_rel.a(pwmc.o)
PWMC_SetDutyCycle                                 /home/aaa/.arduino15/packages/arduino/hardware/sam/1.6.12/variants/arduino_due_x/libsam_sam3x8e_gcc_rel.a(pwmc.o)
                                                  /home/aaa/llvm-arduino-due/build/core.a(wiring_analog.c.o)
PWMC_SetFaultMode                                 /home/aaa/.arduino15/packages/arduino/hardware/sam/1.6.12/variants/arduino_due_x/libsam_sam3x8e_gcc_rel.a(pwmc.o)
PWMC_SetFaultProtectionValue                      /home/aaa/.arduino15/packages/arduino/hardware/sam/1.6.12/variants/arduino_due_x/libsam_sam3x8e_gcc_rel.a(pwmc.o)
PWMC_SetOverrideValue                             /home/aaa/.arduino15/packages/arduino/hardware/sam/1.6.12/variants/arduino_due_x/libsam_sam3x8e_gcc_rel.a(pwmc.o)
PWMC_SetPeriod                                    /home/aaa/.arduino15/packages/arduino/hardware/sam/1.6.12/variants/arduino_due_x/libsam_sam3x8e_gcc_rel.a(pwmc.o)
                                                  /home/aaa/llvm-arduino-due/build/core.a(wiring_analog.c.o)
PWMC_SetSyncChannelUpdatePeriod                   /home/aaa/.arduino15/packages/arduino/hardware/sam/1.6.12/variants/arduino_due_x/libsam_sam3x8e_gcc_rel.a(pwmc.o)
PWMC_SetSyncChannelUpdateUnlock                   /home/aaa/.arduino15/packages/arduino/hardware/sam/1.6.12/variants/arduino_due_x/libsam_sam3x8e_gcc_rel.a(pwmc.o)
PWMC_WriteBuffer                                  /home/aaa/.arduino15/packages/arduino/hardware/sam/1.6.12/variants/arduino_due_x/libsam_sam3x8e_gcc_rel.a(pwmc.o)
PWM_Handler                                       /home/aaa/llvm-arduino-due/build/core.a(cortex_handlers.c.o)
                                                  /home/aaa/.arduino15/packages/arduino/hardware/sam/1.6.12/variants/arduino_due_x/libsam_sam3x8e_gcc_rel.a(startup_sam3xa.o)
PendSV_Handler                                    /home/aaa/llvm-arduino-due/build/core.a(cortex_handlers.c.o)
                                                  /home/aaa/.arduino15/packages/arduino/hardware/sam/1.6.12/variants/arduino_due_x/libsam_sam3x8e_gcc_rel.a(startup_sam3xa.o)
PluggableUSB()                                    /home/aaa/llvm-arduino-due/build/core.a(PluggableUSB.cpp.o)
                                                  /home/aaa/llvm-arduino-due/build/core.a(USBCore.cpp.o)
PluggableUSB_::PluggableUSB_()                    /home/aaa/llvm-arduino-due/build/core.a(PluggableUSB.cpp.o)
PluggableUSB_::PluggableUSB_()                    /home/aaa/llvm-arduino-due/build/core.a(PluggableUSB.cpp.o)
PluggableUSB_::getDescriptor(USBSetup&)           /home/aaa/llvm-arduino-due/build/core.a(PluggableUSB.cpp.o)
                                                  /home/aaa/llvm-arduino-due/build/core.a(USBCore.cpp.o)
PluggableUSB_::getInterface(unsigned char*)       /home/aaa/llvm-arduino-due/build/core.a(PluggableUSB.cpp.o)
                                                  /home/aaa/llvm-arduino-due/build/core.a(USBCore.cpp.o)
PluggableUSB_::getShortName(char*)                /home/aaa/llvm-arduino-due/build/core.a(PluggableUSB.cpp.o)
                                                  /home/aaa/llvm-arduino-due/build/core.a(USBCore.cpp.o)
PluggableUSB_::plug(PluggableUSBModule*)          /home/aaa/llvm-arduino-due/build/core.a(PluggableUSB.cpp.o)
PluggableUSB_::setup(USBSetup&)                   /home/aaa/llvm-arduino-due/build/core.a(PluggableUSB.cpp.o)
                                                  /home/aaa/llvm-arduino-due/build/core.a(USBCore.cpp.o)
Print::Print()                                    /home/aaa/llvm-arduino-due/build/core.a(CDC.cpp.o)
                                                  /home/aaa/llvm-arduino-due/build/core.a(UARTClass.cpp.o)
Print::print(Printable const&)                    /home/aaa/llvm-arduino-due/build/core.a(Print.cpp.o)
Print::print(String const&)                       /home/aaa/llvm-arduino-due/build/core.a(Print.cpp.o)
Print::print(__FlashStringHelper const*)          /home/aaa/llvm-arduino-due/build/core.a(Print.cpp.o)
Print::print(char const*)                         /home/aaa/llvm-arduino-due/build/core.a(Print.cpp.o)
                                                  /home/aaa/llvm-arduino-due/build/Blink.ino.cpp.o
Print::print(char)                                /home/aaa/llvm-arduino-due/build/core.a(Print.cpp.o)
Print::print(double, int)                         /home/aaa/llvm-arduino-due/build/core.a(Print.cpp.o)
Print::print(int, int)                            /home/aaa/llvm-arduino-due/build/core.a(Print.cpp.o)
                                                  /home/aaa/llvm-arduino-due/build/Blink.ino.cpp.o
Print::print(long, int)                           /home/aaa/llvm-arduino-due/build/core.a(Print.cpp.o)
Print::print(unsigned char, int)                  /home/aaa/llvm-arduino-due/build/core.a(Print.cpp.o)
Print::print(unsigned int, int)                   /home/aaa/llvm-arduino-due/build/core.a(Print.cpp.o)
Print::print(unsigned long, int)                  /home/aaa/llvm-arduino-due/build/core.a(Print.cpp.o)
Print::printFloat(double, unsigned char)          /home/aaa/llvm-arduino-due/build/core.a(Print.cpp.o)
Print::printNumber(unsigned long, unsigned char)  /home/aaa/llvm-arduino-due/build/core.a(Print.cpp.o)
Print::println()                                  /home/aaa/llvm-arduino-due/build/core.a(Print.cpp.o)
Print::println(Printable const&)                  /home/aaa/llvm-arduino-due/build/core.a(Print.cpp.o)
Print::println(String const&)                     /home/aaa/llvm-arduino-due/build/core.a(Print.cpp.o)
Print::println(__FlashStringHelper const*)        /home/aaa/llvm-arduino-due/build/core.a(Print.cpp.o)
Print::println(char const*)                       /home/aaa/llvm-arduino-due/build/core.a(Print.cpp.o)
                                                  /home/aaa/llvm-arduino-due/build/Blink.ino.cpp.o
Print::println(char)                              /home/aaa/llvm-arduino-due/build/core.a(Print.cpp.o)
Print::println(double, int)                       /home/aaa/llvm-arduino-due/build/core.a(Print.cpp.o)
Print::println(int, int)                          /home/aaa/llvm-arduino-due/build/core.a(Print.cpp.o)
Print::println(long, int)                         /home/aaa/llvm-arduino-due/build/core.a(Print.cpp.o)
Print::println(unsigned char, int)                /home/aaa/llvm-arduino-due/build/core.a(Print.cpp.o)
Print::println(unsigned int, int)                 /home/aaa/llvm-arduino-due/build/core.a(Print.cpp.o)
Print::println(unsigned long, int)                /home/aaa/llvm-arduino-due/build/core.a(Print.cpp.o)
Print::setWriteError(int)                         /home/aaa/llvm-arduino-due/build/core.a(CDC.cpp.o)
Print::write(char const*)                         /home/aaa/llvm-arduino-due/build/core.a(Print.cpp.o)
Print::write(char const*, unsigned int)           /home/aaa/llvm-arduino-due/build/core.a(Print.cpp.o)
Print::write(unsigned char const*, unsigned int)  /home/aaa/llvm-arduino-due/build/core.a(Print.cpp.o)
                                                  /home/aaa/llvm-arduino-due/build/core.a(UARTClass.cpp.o)
                                                  /home/aaa/llvm-arduino-due/build/core.a(CDC.cpp.o)
                                                  /home/aaa/llvm-arduino-due/build/core.a(USARTClass.cpp.o)
RSTC_Handler                                      /home/aaa/llvm-arduino-due/build/core.a(cortex_handlers.c.o)
                                                  /home/aaa/.arduino15/packages/arduino/hardware/sam/1.6.12/variants/arduino_due_x/libsam_sam3x8e_gcc_rel.a(startup_sam3xa.o)
RTC_Handler                                       /home/aaa/llvm-arduino-due/build/core.a(cortex_handlers.c.o)
                                                  /home/aaa/.arduino15/packages/arduino/hardware/sam/1.6.12/variants/arduino_due_x/libsam_sam3x8e_gcc_rel.a(startup_sam3xa.o)
RTT_Handler                                       /home/aaa/llvm-arduino-due/build/core.a(cortex_handlers.c.o)
                                                  /home/aaa/.arduino15/packages/arduino/hardware/sam/1.6.12/variants/arduino_due_x/libsam_sam3x8e_gcc_rel.a(startup_sam3xa.o)
Reset_Handler                                     /home/aaa/.arduino15/packages/arduino/hardware/sam/1.6.12/variants/arduino_due_x/libsam_sam3x8e_gcc_rel.a(startup_sam3xa.o)
RingBuffer::RingBuffer()                          /home/aaa/llvm-arduino-due/build/core.a(RingBuffer.cpp.o)
                                                  /home/aaa/llvm-arduino-due/build/core/variant.cpp.o
RingBuffer::RingBuffer()                          /home/aaa/llvm-arduino-due/build/core.a(RingBuffer.cpp.o)
RingBuffer::store_char(unsigned char)             /home/aaa/llvm-arduino-due/build/core.a(RingBuffer.cpp.o)
                                                  /home/aaa/llvm-arduino-due/build/core.a(UARTClass.cpp.o)
RxLEDPulse                                        /home/aaa/llvm-arduino-due/build/core.a(USBCore.cpp.o)
SMC_Handler                                       /home/aaa/llvm-arduino-due/build/core.a(cortex_handlers.c.o)
                                                  /home/aaa/.arduino15/packages/arduino/hardware/sam/1.6.12/variants/arduino_due_x/libsam_sam3x8e_gcc_rel.a(startup_sam3xa.o)
SPI0_Handler                                      /home/aaa/llvm-arduino-due/build/core.a(cortex_handlers.c.o)
                                                  /home/aaa/.arduino15/packages/arduino/hardware/sam/1.6.12/variants/arduino_due_x/libsam_sam3x8e_gcc_rel.a(startup_sam3xa.o)
SSC_Handler                                       /home/aaa/llvm-arduino-due/build/core.a(cortex_handlers.c.o)
                                                  /home/aaa/.arduino15/packages/arduino/hardware/sam/1.6.12/variants/arduino_due_x/libsam_sam3x8e_gcc_rel.a(startup_sam3xa.o)
STRING_LANGUAGE                                   /home/aaa/llvm-arduino-due/build/core.a(USBCore.cpp.o)
STRING_MANUFACTURER                               /home/aaa/llvm-arduino-due/build/core.a(USBCore.cpp.o)
STRING_PRODUCT                                    /home/aaa/llvm-arduino-due/build/core.a(USBCore.cpp.o)
SUPC_Handler                                      /home/aaa/llvm-arduino-due/build/core.a(cortex_handlers.c.o)
                                                  /home/aaa/.arduino15/packages/arduino/hardware/sam/1.6.12/variants/arduino_due_x/libsam_sam3x8e_gcc_rel.a(startup_sam3xa.o)
SVC_Handler                                       /home/aaa/llvm-arduino-due/build/core.a(cortex_handlers.c.o)
                                                  /home/aaa/.arduino15/packages/arduino/hardware/sam/1.6.12/variants/arduino_due_x/libsam_sam3x8e_gcc_rel.a(startup_sam3xa.o)
Serial                                            /home/aaa/llvm-arduino-due/build/core/variant.cpp.o
                                                  /home/aaa/llvm-arduino-due/build/Blink.ino.cpp.o
Serial1                                           /home/aaa/llvm-arduino-due/build/core/variant.cpp.o
Serial2                                           /home/aaa/llvm-arduino-due/build/core/variant.cpp.o
Serial3                                           /home/aaa/llvm-arduino-due/build/core/variant.cpp.o
SerialUSB                                         /home/aaa/llvm-arduino-due/build/core.a(CDC.cpp.o)
                                                  /home/aaa/llvm-arduino-due/build/core.a(USBCore.cpp.o)
Serial_::Serial_()                                /home/aaa/llvm-arduino-due/build/core.a(CDC.cpp.o)
Serial_::accept()                                 /home/aaa/llvm-arduino-due/build/core.a(CDC.cpp.o)
                                                  /home/aaa/llvm-arduino-due/build/core.a(USBCore.cpp.o)
Serial_::available()                              /home/aaa/llvm-arduino-due/build/core.a(CDC.cpp.o)
Serial_::availableForWrite()                      /home/aaa/llvm-arduino-due/build/core.a(CDC.cpp.o)
Serial_::baud()                                   /home/aaa/llvm-arduino-due/build/core.a(CDC.cpp.o)
Serial_::begin(unsigned int)                      /home/aaa/llvm-arduino-due/build/core.a(CDC.cpp.o)
Serial_::begin(unsigned int, unsigned char)       /home/aaa/llvm-arduino-due/build/core.a(CDC.cpp.o)
Serial_::dtr()                                    /home/aaa/llvm-arduino-due/build/core.a(CDC.cpp.o)
Serial_::end()                                    /home/aaa/llvm-arduino-due/build/core.a(CDC.cpp.o)
Serial_::flush()                                  /home/aaa/llvm-arduino-due/build/core.a(CDC.cpp.o)
Serial_::numbits()                                /home/aaa/llvm-arduino-due/build/core.a(CDC.cpp.o)
Serial_::operator bool()                          /home/aaa/llvm-arduino-due/build/core.a(CDC.cpp.o)
Serial_::paritytype()                             /home/aaa/llvm-arduino-due/build/core.a(CDC.cpp.o)
Serial_::peek()                                   /home/aaa/llvm-arduino-due/build/core.a(CDC.cpp.o)
Serial_::read()                                   /home/aaa/llvm-arduino-due/build/core.a(CDC.cpp.o)
Serial_::readBreak()                              /home/aaa/llvm-arduino-due/build/core.a(CDC.cpp.o)
Serial_::rts()                                    /home/aaa/llvm-arduino-due/build/core.a(CDC.cpp.o)
Serial_::stopbits()                               /home/aaa/llvm-arduino-due/build/core.a(CDC.cpp.o)
Serial_::write(unsigned char const*, unsigned int) /home/aaa/llvm-arduino-due/build/core.a(CDC.cpp.o)
Serial_::write(unsigned char)                     /home/aaa/llvm-arduino-due/build/core.a(CDC.cpp.o)
Sleep                                             /home/aaa/.arduino15/packages/arduino/hardware/sam/1.6.12/variants/arduino_due_x/libsam_sam3x8e_gcc_rel.a(timetick.o)
Stream::Stream()                                  /home/aaa/llvm-arduino-due/build/core.a(CDC.cpp.o)
                                                  /home/aaa/llvm-arduino-due/build/core.a(UARTClass.cpp.o)
String::c_str() const                             /home/aaa/llvm-arduino-due/build/core.a(Print.cpp.o)
String::length() const                            /home/aaa/llvm-arduino-due/build/core.a(Print.cpp.o)
SysTick_Handler                                   /home/aaa/llvm-arduino-due/build/core.a(cortex_handlers.c.o)
                                                  /home/aaa/.arduino15/packages/arduino/hardware/sam/1.6.12/variants/arduino_due_x/libsam_sam3x8e_gcc_rel.a(startup_sam3xa.o)
SystemCoreClock                                   /home/aaa/.arduino15/packages/arduino/hardware/sam/1.6.12/variants/arduino_due_x/libsam_sam3x8e_gcc_rel.a(system_sam3xa.o)
                                                  /home/aaa/llvm-arduino-due/build/core.a(UARTClass.cpp.o)
                                                  /home/aaa/llvm-arduino-due/build/core/variant.cpp.o
SystemCoreClockUpdate                             /home/aaa/.arduino15/packages/arduino/hardware/sam/1.6.12/variants/arduino_due_x/libsam_sam3x8e_gcc_rel.a(system_sam3xa.o)
SystemInit                                        /home/aaa/.arduino15/packages/arduino/hardware/sam/1.6.12/variants/arduino_due_x/libsam_sam3x8e_gcc_rel.a(system_sam3xa.o)
                                                  /home/aaa/llvm-arduino-due/build/core/variant.cpp.o
TC0_Handler                                       /home/aaa/llvm-arduino-due/build/core.a(cortex_handlers.c.o)
                                                  /home/aaa/.arduino15/packages/arduino/hardware/sam/1.6.12/variants/arduino_due_x/libsam_sam3x8e_gcc_rel.a(startup_sam3xa.o)
TC1_Handler                                       /home/aaa/llvm-arduino-due/build/core.a(cortex_handlers.c.o)
                                                  /home/aaa/.arduino15/packages/arduino/hardware/sam/1.6.12/variants/arduino_due_x/libsam_sam3x8e_gcc_rel.a(startup_sam3xa.o)
TC2_Handler                                       /home/aaa/llvm-arduino-due/build/core.a(cortex_handlers.c.o)
                                                  /home/aaa/.arduino15/packages/arduino/hardware/sam/1.6.12/variants/arduino_due_x/libsam_sam3x8e_gcc_rel.a(startup_sam3xa.o)
TC3_Handler                                       /home/aaa/llvm-arduino-due/build/core.a(cortex_handlers.c.o)
                                                  /home/aaa/.arduino15/packages/arduino/hardware/sam/1.6.12/variants/arduino_due_x/libsam_sam3x8e_gcc_rel.a(startup_sam3xa.o)
TC4_Handler                                       /home/aaa/llvm-arduino-due/build/core.a(cortex_handlers.c.o)
                                                  /home/aaa/.arduino15/packages/arduino/hardware/sam/1.6.12/variants/arduino_due_x/libsam_sam3x8e_gcc_rel.a(startup_sam3xa.o)
TC5_Handler                                       /home/aaa/llvm-arduino-due/build/core.a(cortex_handlers.c.o)
                                                  /home/aaa/.arduino15/packages/arduino/hardware/sam/1.6.12/variants/arduino_due_x/libsam_sam3x8e_gcc_rel.a(startup_sam3xa.o)
TC6_Handler                                       /home/aaa/llvm-arduino-due/build/core.a(cortex_handlers.c.o)
                                                  /home/aaa/.arduino15/packages/arduino/hardware/sam/1.6.12/variants/arduino_due_x/libsam_sam3x8e_gcc_rel.a(startup_sam3xa.o)
TC7_Handler                                       /home/aaa/llvm-arduino-due/build/core.a(cortex_handlers.c.o)
                                                  /home/aaa/.arduino15/packages/arduino/hardware/sam/1.6.12/variants/arduino_due_x/libsam_sam3x8e_gcc_rel.a(startup_sam3xa.o)
TC8_Handler                                       /home/aaa/llvm-arduino-due/build/core.a(cortex_handlers.c.o)
                                                  /home/aaa/.arduino15/packages/arduino/hardware/sam/1.6.12/variants/arduino_due_x/libsam_sam3x8e_gcc_rel.a(startup_sam3xa.o)
TC_Configure                                      /home/aaa/.arduino15/packages/arduino/hardware/sam/1.6.12/variants/arduino_due_x/libsam_sam3x8e_gcc_rel.a(tc.o)
                                                  /home/aaa/llvm-arduino-due/build/core.a(wiring_analog.c.o)
TC_FindMckDivisor                                 /home/aaa/.arduino15/packages/arduino/hardware/sam/1.6.12/variants/arduino_due_x/libsam_sam3x8e_gcc_rel.a(tc.o)
TC_GetStatus                                      /home/aaa/.arduino15/packages/arduino/hardware/sam/1.6.12/variants/arduino_due_x/libsam_sam3x8e_gcc_rel.a(tc.o)
TC_ReadCV                                         /home/aaa/.arduino15/packages/arduino/hardware/sam/1.6.12/variants/arduino_due_x/libsam_sam3x8e_gcc_rel.a(tc.o)
TC_SetRA                                          /home/aaa/.arduino15/packages/arduino/hardware/sam/1.6.12/variants/arduino_due_x/libsam_sam3x8e_gcc_rel.a(tc.o)
                                                  /home/aaa/llvm-arduino-due/build/core.a(wiring_analog.c.o)
TC_SetRB                                          /home/aaa/.arduino15/packages/arduino/hardware/sam/1.6.12/variants/arduino_due_x/libsam_sam3x8e_gcc_rel.a(tc.o)
                                                  /home/aaa/llvm-arduino-due/build/core.a(wiring_analog.c.o)
TC_SetRC                                          /home/aaa/.arduino15/packages/arduino/hardware/sam/1.6.12/variants/arduino_due_x/libsam_sam3x8e_gcc_rel.a(tc.o)
                                                  /home/aaa/llvm-arduino-due/build/core.a(wiring_analog.c.o)
TC_Start                                          /home/aaa/.arduino15/packages/arduino/hardware/sam/1.6.12/variants/arduino_due_x/libsam_sam3x8e_gcc_rel.a(tc.o)
                                                  /home/aaa/llvm-arduino-due/build/core.a(wiring_analog.c.o)
TC_Stop                                           /home/aaa/.arduino15/packages/arduino/hardware/sam/1.6.12/variants/arduino_due_x/libsam_sam3x8e_gcc_rel.a(tc.o)
TRNG_Handler                                      /home/aaa/llvm-arduino-due/build/core.a(cortex_handlers.c.o)
                                                  /home/aaa/.arduino15/packages/arduino/hardware/sam/1.6.12/variants/arduino_due_x/libsam_sam3x8e_gcc_rel.a(startup_sam3xa.o)
TWI0_Handler                                      /home/aaa/llvm-arduino-due/build/core.a(cortex_handlers.c.o)
                                                  /home/aaa/.arduino15/packages/arduino/hardware/sam/1.6.12/variants/arduino_due_x/libsam_sam3x8e_gcc_rel.a(startup_sam3xa.o)
TWI1_Handler                                      /home/aaa/llvm-arduino-due/build/core.a(cortex_handlers.c.o)
                                                  /home/aaa/.arduino15/packages/arduino/hardware/sam/1.6.12/variants/arduino_due_x/libsam_sam3x8e_gcc_rel.a(startup_sam3xa.o)
TimeTick_Configure                                /home/aaa/.arduino15/packages/arduino/hardware/sam/1.6.12/variants/arduino_due_x/libsam_sam3x8e_gcc_rel.a(timetick.o)
TimeTick_Increment                                /home/aaa/.arduino15/packages/arduino/hardware/sam/1.6.12/variants/arduino_due_x/libsam_sam3x8e_gcc_rel.a(timetick.o)
                                                  /home/aaa/llvm-arduino-due/build/core.a(cortex_handlers.c.o)
TxLEDPulse                                        /home/aaa/llvm-arduino-due/build/core.a(USBCore.cpp.o)
UARTClass::IrqHandler()                           /home/aaa/llvm-arduino-due/build/core.a(UARTClass.cpp.o)
                                                  /home/aaa/llvm-arduino-due/build/core/variant.cpp.o
UARTClass::UARTClass(Uart*, IRQn, unsigned int, RingBuffer*, RingBuffer*) /home/aaa/llvm-arduino-due/build/core.a(UARTClass.cpp.o)
                                                  /home/aaa/llvm-arduino-due/build/core/variant.cpp.o
UARTClass::UARTClass(Uart*, IRQn, unsigned int, RingBuffer*, RingBuffer*) /home/aaa/llvm-arduino-due/build/core.a(UARTClass.cpp.o)
                                                  /home/aaa/llvm-arduino-due/build/core.a(USARTClass.cpp.o)
UARTClass::available()                            /home/aaa/llvm-arduino-due/build/core.a(UARTClass.cpp.o)
                                                  /home/aaa/llvm-arduino-due/build/core.a(USARTClass.cpp.o)
                                                  /home/aaa/llvm-arduino-due/build/core/variant.cpp.o
UARTClass::availableForWrite()                    /home/aaa/llvm-arduino-due/build/core.a(UARTClass.cpp.o)
UARTClass::begin(unsigned int)                    /home/aaa/llvm-arduino-due/build/core.a(UARTClass.cpp.o)
                                                  /home/aaa/llvm-arduino-due/build/Blink.ino.cpp.o
UARTClass::begin(unsigned int, UARTClass::UARTModes) /home/aaa/llvm-arduino-due/build/core.a(UARTClass.cpp.o)
UARTClass::end()                                  /home/aaa/llvm-arduino-due/build/core.a(UARTClass.cpp.o)
                                                  /home/aaa/llvm-arduino-due/build/core.a(USARTClass.cpp.o)
UARTClass::flush()                                /home/aaa/llvm-arduino-due/build/core.a(UARTClass.cpp.o)
                                                  /home/aaa/llvm-arduino-due/build/core.a(USARTClass.cpp.o)
UARTClass::getInterruptPriority()                 /home/aaa/llvm-arduino-due/build/core.a(UARTClass.cpp.o)
UARTClass::init(unsigned int, unsigned int)       /home/aaa/llvm-arduino-due/build/core.a(UARTClass.cpp.o)
                                                  /home/aaa/llvm-arduino-due/build/core.a(USARTClass.cpp.o)
UARTClass::operator bool()                        /home/aaa/llvm-arduino-due/build/core.a(USARTClass.cpp.o)
                                                  /home/aaa/llvm-arduino-due/build/core.a(UARTClass.cpp.o)
UARTClass::peek()                                 /home/aaa/llvm-arduino-due/build/core.a(UARTClass.cpp.o)
                                                  /home/aaa/llvm-arduino-due/build/core.a(USARTClass.cpp.o)
UARTClass::read()                                 /home/aaa/llvm-arduino-due/build/core.a(UARTClass.cpp.o)
                                                  /home/aaa/llvm-arduino-due/build/core.a(USARTClass.cpp.o)
UARTClass::setInterruptPriority(unsigned int)     /home/aaa/llvm-arduino-due/build/core.a(UARTClass.cpp.o)
UARTClass::write(unsigned char)                   /home/aaa/llvm-arduino-due/build/core.a(UARTClass.cpp.o)
                                                  /home/aaa/llvm-arduino-due/build/core.a(USARTClass.cpp.o)
UART_Handler                                      /home/aaa/llvm-arduino-due/build/core/variant.cpp.o
                                                  /home/aaa/.arduino15/packages/arduino/hardware/sam/1.6.12/variants/arduino_due_x/libsam_sam3x8e_gcc_rel.a(startup_sam3xa.o)
UDD_Attach                                        /home/aaa/.arduino15/packages/arduino/hardware/sam/1.6.12/variants/arduino_due_x/libsam_sam3x8e_gcc_rel.a(uotghs_device.o)
                                                  /home/aaa/llvm-arduino-due/build/core.a(USBCore.cpp.o)
UDD_ClearIN                                       /home/aaa/.arduino15/packages/arduino/hardware/sam/1.6.12/variants/arduino_due_x/libsam_sam3x8e_gcc_rel.a(uotghs_device.o)
                                                  /home/aaa/llvm-arduino-due/build/core.a(USBCore.cpp.o)
UDD_ClearOUT                                      /home/aaa/.arduino15/packages/arduino/hardware/sam/1.6.12/variants/arduino_due_x/libsam_sam3x8e_gcc_rel.a(uotghs_device.o)
                                                  /home/aaa/llvm-arduino-due/build/core.a(USBCore.cpp.o)
UDD_ClearSetupInt                                 /home/aaa/.arduino15/packages/arduino/hardware/sam/1.6.12/variants/arduino_due_x/libsam_sam3x8e_gcc_rel.a(uotghs_device.o)
                                                  /home/aaa/llvm-arduino-due/build/core.a(USBCore.cpp.o)
UDD_Detach                                        /home/aaa/.arduino15/packages/arduino/hardware/sam/1.6.12/variants/arduino_due_x/libsam_sam3x8e_gcc_rel.a(uotghs_device.o)
                                                  /home/aaa/llvm-arduino-due/build/core.a(USBCore.cpp.o)
UDD_FifoByteCount                                 /home/aaa/.arduino15/packages/arduino/hardware/sam/1.6.12/variants/arduino_due_x/libsam_sam3x8e_gcc_rel.a(uotghs_device.o)
                                                  /home/aaa/llvm-arduino-due/build/core.a(USBCore.cpp.o)
UDD_GetFrameNumber                                /home/aaa/.arduino15/packages/arduino/hardware/sam/1.6.12/variants/arduino_due_x/libsam_sam3x8e_gcc_rel.a(uotghs_device.o)
                                                  /home/aaa/llvm-arduino-due/build/core.a(USBCore.cpp.o)
UDD_Init                                          /home/aaa/.arduino15/packages/arduino/hardware/sam/1.6.12/variants/arduino_due_x/libsam_sam3x8e_gcc_rel.a(uotghs_device.o)
                                                  /home/aaa/llvm-arduino-due/build/core.a(USBCore.cpp.o)
UDD_InitEP                                        /home/aaa/.arduino15/packages/arduino/hardware/sam/1.6.12/variants/arduino_due_x/libsam_sam3x8e_gcc_rel.a(uotghs_device.o)
                                                  /home/aaa/llvm-arduino-due/build/core.a(USBCore.cpp.o)
UDD_InitEndpoints                                 /home/aaa/.arduino15/packages/arduino/hardware/sam/1.6.12/variants/arduino_due_x/libsam_sam3x8e_gcc_rel.a(uotghs_device.o)
                                                  /home/aaa/llvm-arduino-due/build/core.a(USBCore.cpp.o)
UDD_ReadWriteAllowed                              /home/aaa/.arduino15/packages/arduino/hardware/sam/1.6.12/variants/arduino_due_x/libsam_sam3x8e_gcc_rel.a(uotghs_device.o)
UDD_ReceivedSetupInt                              /home/aaa/.arduino15/packages/arduino/hardware/sam/1.6.12/variants/arduino_due_x/libsam_sam3x8e_gcc_rel.a(uotghs_device.o)
                                                  /home/aaa/llvm-arduino-due/build/core.a(USBCore.cpp.o)
UDD_Recv                                          /home/aaa/.arduino15/packages/arduino/hardware/sam/1.6.12/variants/arduino_due_x/libsam_sam3x8e_gcc_rel.a(uotghs_device.o)
                                                  /home/aaa/llvm-arduino-due/build/core.a(USBCore.cpp.o)
UDD_Recv8                                         /home/aaa/.arduino15/packages/arduino/hardware/sam/1.6.12/variants/arduino_due_x/libsam_sam3x8e_gcc_rel.a(uotghs_device.o)
                                                  /home/aaa/llvm-arduino-due/build/core.a(USBCore.cpp.o)
UDD_ReleaseRX                                     /home/aaa/.arduino15/packages/arduino/hardware/sam/1.6.12/variants/arduino_due_x/libsam_sam3x8e_gcc_rel.a(uotghs_device.o)
                                                  /home/aaa/llvm-arduino-due/build/core.a(USBCore.cpp.o)
UDD_ReleaseTX                                     /home/aaa/.arduino15/packages/arduino/hardware/sam/1.6.12/variants/arduino_due_x/libsam_sam3x8e_gcc_rel.a(uotghs_device.o)
                                                  /home/aaa/llvm-arduino-due/build/core.a(USBCore.cpp.o)
UDD_Send                                          /home/aaa/.arduino15/packages/arduino/hardware/sam/1.6.12/variants/arduino_due_x/libsam_sam3x8e_gcc_rel.a(uotghs_device.o)
                                                  /home/aaa/llvm-arduino-due/build/core.a(USBCore.cpp.o)
UDD_Send8                                         /home/aaa/.arduino15/packages/arduino/hardware/sam/1.6.12/variants/arduino_due_x/libsam_sam3x8e_gcc_rel.a(uotghs_device.o)
                                                  /home/aaa/llvm-arduino-due/build/core.a(USBCore.cpp.o)
UDD_SetAddress                                    /home/aaa/.arduino15/packages/arduino/hardware/sam/1.6.12/variants/arduino_due_x/libsam_sam3x8e_gcc_rel.a(uotghs_device.o)
                                                  /home/aaa/llvm-arduino-due/build/core.a(USBCore.cpp.o)
UDD_SetStack                                      /home/aaa/.arduino15/packages/arduino/hardware/sam/1.6.12/variants/arduino_due_x/libsam_sam3x8e_gcc_rel.a(uotghs_device.o)
                                                  /home/aaa/llvm-arduino-due/build/core.a(USBCore.cpp.o)
UDD_Stall                                         /home/aaa/.arduino15/packages/arduino/hardware/sam/1.6.12/variants/arduino_due_x/libsam_sam3x8e_gcc_rel.a(uotghs_device.o)
                                                  /home/aaa/llvm-arduino-due/build/core.a(USBCore.cpp.o)
UDD_WaitForINOrOUT                                /home/aaa/.arduino15/packages/arduino/hardware/sam/1.6.12/variants/arduino_due_x/libsam_sam3x8e_gcc_rel.a(uotghs_device.o)
UDD_WaitIN                                        /home/aaa/.arduino15/packages/arduino/hardware/sam/1.6.12/variants/arduino_due_x/libsam_sam3x8e_gcc_rel.a(uotghs_device.o)
                                                  /home/aaa/llvm-arduino-due/build/core.a(USBCore.cpp.o)
UDD_WaitOUT                                       /home/aaa/.arduino15/packages/arduino/hardware/sam/1.6.12/variants/arduino_due_x/libsam_sam3x8e_gcc_rel.a(uotghs_device.o)
                                                  /home/aaa/llvm-arduino-due/build/core.a(USBCore.cpp.o)
UOTGHS_Handler                                    /home/aaa/.arduino15/packages/arduino/hardware/sam/1.6.12/variants/arduino_due_x/libsam_sam3x8e_gcc_rel.a(uotghs.o)
                                                  /home/aaa/.arduino15/packages/arduino/hardware/sam/1.6.12/variants/arduino_due_x/libsam_sam3x8e_gcc_rel.a(startup_sam3xa.o)
USART0_Handler                                    /home/aaa/llvm-arduino-due/build/core/variant.cpp.o
                                                  /home/aaa/.arduino15/packages/arduino/hardware/sam/1.6.12/variants/arduino_due_x/libsam_sam3x8e_gcc_rel.a(startup_sam3xa.o)
USART1_Handler                                    /home/aaa/llvm-arduino-due/build/core/variant.cpp.o
                                                  /home/aaa/.arduino15/packages/arduino/hardware/sam/1.6.12/variants/arduino_due_x/libsam_sam3x8e_gcc_rel.a(startup_sam3xa.o)
USART2_Handler                                    /home/aaa/llvm-arduino-due/build/core.a(cortex_handlers.c.o)
                                                  /home/aaa/.arduino15/packages/arduino/hardware/sam/1.6.12/variants/arduino_due_x/libsam_sam3x8e_gcc_rel.a(startup_sam3xa.o)
USART3_Handler                                    /home/aaa/llvm-arduino-due/build/core/variant.cpp.o
                                                  /home/aaa/.arduino15/packages/arduino/hardware/sam/1.6.12/variants/arduino_due_x/libsam_sam3x8e_gcc_rel.a(startup_sam3xa.o)
USARTClass::USARTClass(Usart*, IRQn, unsigned int, RingBuffer*, RingBuffer*) /home/aaa/llvm-arduino-due/build/core.a(USARTClass.cpp.o)
USARTClass::USARTClass(Usart*, IRQn, unsigned int, RingBuffer*, RingBuffer*) /home/aaa/llvm-arduino-due/build/core.a(USARTClass.cpp.o)
                                                  /home/aaa/llvm-arduino-due/build/core/variant.cpp.o
USARTClass::begin(unsigned int)                   /home/aaa/llvm-arduino-due/build/core.a(USARTClass.cpp.o)
USARTClass::begin(unsigned int, UARTClass::UARTModes) /home/aaa/llvm-arduino-due/build/core.a(USARTClass.cpp.o)
USARTClass::begin(unsigned int, USARTClass::USARTModes) /home/aaa/llvm-arduino-due/build/core.a(USARTClass.cpp.o)
USBD_Available(unsigned int)                      /home/aaa/llvm-arduino-due/build/core.a(USBCore.cpp.o)
                                                  /home/aaa/llvm-arduino-due/build/core.a(CDC.cpp.o)
USBD_ClassInterfaceRequest(USBSetup&)             /home/aaa/llvm-arduino-due/build/core.a(USBCore.cpp.o)
USBD_Connected()                                  /home/aaa/llvm-arduino-due/build/core.a(USBCore.cpp.o)
USBD_Flush(unsigned int)                          /home/aaa/llvm-arduino-due/build/core.a(USBCore.cpp.o)
                                                  /home/aaa/llvm-arduino-due/build/core.a(CDC.cpp.o)
USBD_InitControl(int)                             /home/aaa/llvm-arduino-due/build/core.a(USBCore.cpp.o)
USBD_Recv(unsigned int)                           /home/aaa/llvm-arduino-due/build/core.a(USBCore.cpp.o)
                                                  /home/aaa/llvm-arduino-due/build/core.a(CDC.cpp.o)
USBD_Recv(unsigned int, void*, unsigned int)      /home/aaa/llvm-arduino-due/build/core.a(USBCore.cpp.o)
USBD_RecvControl(void*, unsigned int)             /home/aaa/llvm-arduino-due/build/core.a(USBCore.cpp.o)
                                                  /home/aaa/llvm-arduino-due/build/core.a(CDC.cpp.o)
USBD_Send(unsigned int, void const*, unsigned int) /home/aaa/llvm-arduino-due/build/core.a(USBCore.cpp.o)
                                                  /home/aaa/llvm-arduino-due/build/core.a(CDC.cpp.o)
USBD_SendControl(unsigned char, void const*, unsigned int) /home/aaa/llvm-arduino-due/build/core.a(USBCore.cpp.o)
                                                  /home/aaa/llvm-arduino-due/build/core.a(CDC.cpp.o)
USBD_SendInterfaces()                             /home/aaa/llvm-arduino-due/build/core.a(USBCore.cpp.o)
USBD_SendOtherInterfaces()                        /home/aaa/llvm-arduino-due/build/core.a(USBCore.cpp.o)
USBDevice                                         /home/aaa/llvm-arduino-due/build/core.a(USBCore.cpp.o)
                                                  /home/aaa/llvm-arduino-due/build/Blink.ino.cpp.o
USBDevice_::USBDevice_()                          /home/aaa/llvm-arduino-due/build/core.a(USBCore.cpp.o)
USBDevice_::USBDevice_()                          /home/aaa/llvm-arduino-due/build/core.a(USBCore.cpp.o)
USBDevice_::attach()                              /home/aaa/llvm-arduino-due/build/core.a(USBCore.cpp.o)
                                                  /home/aaa/llvm-arduino-due/build/Blink.ino.cpp.o
USBDevice_::configured()                          /home/aaa/llvm-arduino-due/build/core.a(USBCore.cpp.o)
USBDevice_::detach()                              /home/aaa/llvm-arduino-due/build/core.a(USBCore.cpp.o)
USBDevice_::poll()                                /home/aaa/llvm-arduino-due/build/core.a(USBCore.cpp.o)
USB_DeviceDescriptor                              /home/aaa/llvm-arduino-due/build/core.a(USBCore.cpp.o)
USB_DeviceDescriptorA                             /home/aaa/llvm-arduino-due/build/core.a(USBCore.cpp.o)
UsageFault_Handler                                /home/aaa/llvm-arduino-due/build/core.a(cortex_handlers.c.o)
                                                  /home/aaa/.arduino15/packages/arduino/hardware/sam/1.6.12/variants/arduino_due_x/libsam_sam3x8e_gcc_rel.a(startup_sam3xa.o)
WDT_Disable                                       /home/aaa/.arduino15/packages/arduino/hardware/sam/1.6.12/variants/arduino_due_x/libsam_sam3x8e_gcc_rel.a(wdt.o)
                                                  /home/aaa/llvm-arduino-due/build/core.a(watchdog.cpp.o)
WDT_Enable                                        /home/aaa/.arduino15/packages/arduino/hardware/sam/1.6.12/variants/arduino_due_x/libsam_sam3x8e_gcc_rel.a(wdt.o)
                                                  /home/aaa/llvm-arduino-due/build/core.a(watchdog.cpp.o)
WDT_GetPeriod                                     /home/aaa/.arduino15/packages/arduino/hardware/sam/1.6.12/variants/arduino_due_x/libsam_sam3x8e_gcc_rel.a(wdt.o)
WDT_GetStatus                                     /home/aaa/.arduino15/packages/arduino/hardware/sam/1.6.12/variants/arduino_due_x/libsam_sam3x8e_gcc_rel.a(wdt.o)
WDT_Handler                                       /home/aaa/llvm-arduino-due/build/core.a(cortex_handlers.c.o)
                                                  /home/aaa/.arduino15/packages/arduino/hardware/sam/1.6.12/variants/arduino_due_x/libsam_sam3x8e_gcc_rel.a(startup_sam3xa.o)
WDT_Restart                                       /home/aaa/.arduino15/packages/arduino/hardware/sam/1.6.12/variants/arduino_due_x/libsam_sam3x8e_gcc_rel.a(wdt.o)
                                                  /home/aaa/llvm-arduino-due/build/core.a(watchdog.cpp.o)
Wait                                              /home/aaa/.arduino15/packages/arduino/hardware/sam/1.6.12/variants/arduino_due_x/libsam_sam3x8e_gcc_rel.a(timetick.o)
_Jv_RegisterClasses                               /home/aaa/.arduino15/packages/arduino/tools/arm-none-eabi-gcc/4.8.3-2014q1/bin/../lib/gcc/arm-none-eabi/4.8.3/armv7-m/crtbegin.o
_PathLocale                                       /home/aaa/.arduino15/packages/arduino/tools/arm-none-eabi-gcc/4.8.3-2014q1/bin/../lib/gcc/arm-none-eabi/4.8.3/../../../../arm-none-eabi/lib/armv7-m/libg.a(lib_a-locale.o)
__adddf3                                          /home/aaa/.arduino15/packages/arduino/tools/arm-none-eabi-gcc/4.8.3-2014q1/bin/../lib/gcc/arm-none-eabi/4.8.3/armv7-m/libgcc.a(_arm_addsubdf3.o)
                                                  /home/aaa/llvm-arduino-due/build/core.a(Print.cpp.o)
__aeabi_cdcmpeq                                   /home/aaa/.arduino15/packages/arduino/tools/arm-none-eabi-gcc/4.8.3-2014q1/bin/../lib/gcc/arm-none-eabi/4.8.3/armv7-m/libgcc.a(_arm_cmpdf2.o)
__aeabi_cdcmple                                   /home/aaa/.arduino15/packages/arduino/tools/arm-none-eabi-gcc/4.8.3-2014q1/bin/../lib/gcc/arm-none-eabi/4.8.3/armv7-m/libgcc.a(_arm_cmpdf2.o)
__aeabi_cdrcmple                                  /home/aaa/.arduino15/packages/arduino/tools/arm-none-eabi-gcc/4.8.3-2014q1/bin/../lib/gcc/arm-none-eabi/4.8.3/armv7-m/libgcc.a(_arm_cmpdf2.o)
__aeabi_d2uiz                                     /home/aaa/.arduino15/packages/arduino/tools/arm-none-eabi-gcc/4.8.3-2014q1/bin/../lib/gcc/arm-none-eabi/4.8.3/armv7-m/libgcc.a(_arm_fixunsdfsi.o)
__aeabi_dadd                                      /home/aaa/.arduino15/packages/arduino/tools/arm-none-eabi-gcc/4.8.3-2014q1/bin/../lib/gcc/arm-none-eabi/4.8.3/armv7-m/libgcc.a(_arm_addsubdf3.o)
__aeabi_dcmpeq                                    /home/aaa/.arduino15/packages/arduino/tools/arm-none-eabi-gcc/4.8.3-2014q1/bin/../lib/gcc/arm-none-eabi/4.8.3/armv7-m/libgcc.a(_arm_cmpdf2.o)
__aeabi_dcmpge                                    /home/aaa/.arduino15/packages/arduino/tools/arm-none-eabi-gcc/4.8.3-2014q1/bin/../lib/gcc/arm-none-eabi/4.8.3/armv7-m/libgcc.a(_arm_cmpdf2.o)
__aeabi_dcmpgt                                    /home/aaa/.arduino15/packages/arduino/tools/arm-none-eabi-gcc/4.8.3-2014q1/bin/../lib/gcc/arm-none-eabi/4.8.3/armv7-m/libgcc.a(_arm_cmpdf2.o)
__aeabi_dcmple                                    /home/aaa/.arduino15/packages/arduino/tools/arm-none-eabi-gcc/4.8.3-2014q1/bin/../lib/gcc/arm-none-eabi/4.8.3/armv7-m/libgcc.a(_arm_cmpdf2.o)
__aeabi_dcmplt                                    /home/aaa/.arduino15/packages/arduino/tools/arm-none-eabi-gcc/4.8.3-2014q1/bin/../lib/gcc/arm-none-eabi/4.8.3/armv7-m/libgcc.a(_arm_cmpdf2.o)
__aeabi_ddiv                                      /home/aaa/.arduino15/packages/arduino/tools/arm-none-eabi-gcc/4.8.3-2014q1/bin/../lib/gcc/arm-none-eabi/4.8.3/armv7-m/libgcc.a(_arm_muldivdf3.o)
__aeabi_dmul                                      /home/aaa/.arduino15/packages/arduino/tools/arm-none-eabi-gcc/4.8.3-2014q1/bin/../lib/gcc/arm-none-eabi/4.8.3/armv7-m/libgcc.a(_arm_muldivdf3.o)
__aeabi_drsub                                     /home/aaa/.arduino15/packages/arduino/tools/arm-none-eabi-gcc/4.8.3-2014q1/bin/../lib/gcc/arm-none-eabi/4.8.3/armv7-m/libgcc.a(_arm_addsubdf3.o)
__aeabi_dsub                                      /home/aaa/.arduino15/packages/arduino/tools/arm-none-eabi-gcc/4.8.3-2014q1/bin/../lib/gcc/arm-none-eabi/4.8.3/armv7-m/libgcc.a(_arm_addsubdf3.o)
__aeabi_f2d                                       /home/aaa/.arduino15/packages/arduino/tools/arm-none-eabi-gcc/4.8.3-2014q1/bin/../lib/gcc/arm-none-eabi/4.8.3/armv7-m/libgcc.a(_arm_addsubdf3.o)
__aeabi_i2d                                       /home/aaa/.arduino15/packages/arduino/tools/arm-none-eabi-gcc/4.8.3-2014q1/bin/../lib/gcc/arm-none-eabi/4.8.3/armv7-m/libgcc.a(_arm_addsubdf3.o)
__aeabi_idiv0                                     /home/aaa/.arduino15/packages/arduino/tools/arm-none-eabi-gcc/4.8.3-2014q1/bin/../lib/gcc/arm-none-eabi/4.8.3/armv7-m/libgcc.a(_dvmd_tls.o)
__aeabi_l2d                                       /home/aaa/.arduino15/packages/arduino/tools/arm-none-eabi-gcc/4.8.3-2014q1/bin/../lib/gcc/arm-none-eabi/4.8.3/armv7-m/libgcc.a(_arm_addsubdf3.o)
__aeabi_ldiv0                                     /home/aaa/.arduino15/packages/arduino/tools/arm-none-eabi-gcc/4.8.3-2014q1/bin/../lib/gcc/arm-none-eabi/4.8.3/armv7-m/libgcc.a(_dvmd_tls.o)
                                                  /home/aaa/.arduino15/packages/arduino/tools/arm-none-eabi-gcc/4.8.3-2014q1/bin/../lib/gcc/arm-none-eabi/4.8.3/armv7-m/libgcc.a(_aeabi_uldivmod.o)
__aeabi_ui2d                                      /home/aaa/.arduino15/packages/arduino/tools/arm-none-eabi-gcc/4.8.3-2014q1/bin/../lib/gcc/arm-none-eabi/4.8.3/armv7-m/libgcc.a(_arm_addsubdf3.o)
__aeabi_ul2d                                      /home/aaa/.arduino15/packages/arduino/tools/arm-none-eabi-gcc/4.8.3-2014q1/bin/../lib/gcc/arm-none-eabi/4.8.3/armv7-m/libgcc.a(_arm_addsubdf3.o)
__aeabi_uldivmod                                  /home/aaa/.arduino15/packages/arduino/tools/arm-none-eabi-gcc/4.8.3-2014q1/bin/../lib/gcc/arm-none-eabi/4.8.3/armv7-m/libgcc.a(_aeabi_uldivmod.o)
                                                  /home/aaa/.arduino15/packages/arduino/tools/arm-none-eabi-gcc/4.8.3-2014q1/bin/../lib/gcc/arm-none-eabi/4.8.3/../../../../arm-none-eabi/lib/armv7-m/libg.a(lib_a-vfiprintf.o)
__ascii_wctomb                                    /home/aaa/.arduino15/packages/arduino/tools/arm-none-eabi-gcc/4.8.3-2014q1/bin/../lib/gcc/arm-none-eabi/4.8.3/../../../../arm-none-eabi/lib/armv7-m/libg.a(lib_a-wctomb_r.o)
__assert                                          /home/aaa/.arduino15/packages/arduino/tools/arm-none-eabi-gcc/4.8.3-2014q1/bin/../lib/gcc/arm-none-eabi/4.8.3/../../../../arm-none-eabi/lib/armv7-m/libg.a(lib_a-assert.o)
__assert_func                                     /home/aaa/.arduino15/packages/arduino/tools/arm-none-eabi-gcc/4.8.3-2014q1/bin/../lib/gcc/arm-none-eabi/4.8.3/../../../../arm-none-eabi/lib/armv7-m/libg.a(lib_a-assert.o)
                                                  /home/aaa/.arduino15/packages/arduino/hardware/sam/1.6.12/variants/arduino_due_x/libsam_sam3x8e_gcc_rel.a(tc.o)
                                                  /home/aaa/.arduino15/packages/arduino/hardware/sam/1.6.12/variants/arduino_due_x/libsam_sam3x8e_gcc_rel.a(pwmc.o)
__bss_end__                                       /home/aaa/.arduino15/packages/arduino/tools/arm-none-eabi-gcc/4.8.3-2014q1/bin/../lib/gcc/arm-none-eabi/4.8.3/../../../../arm-none-eabi/lib/armv7-m/crt0.o
__bss_start__                                     /home/aaa/.arduino15/packages/arduino/tools/arm-none-eabi-gcc/4.8.3-2014q1/bin/../lib/gcc/arm-none-eabi/4.8.3/../../../../arm-none-eabi/lib/armv7-m/crt0.o
__call_exitprocs                                  /home/aaa/.arduino15/packages/arduino/tools/arm-none-eabi-gcc/4.8.3-2014q1/bin/../lib/gcc/arm-none-eabi/4.8.3/../../../../arm-none-eabi/lib/armv7-m/libg.a(lib_a-__call_atexit.o)
                                                  /home/aaa/.arduino15/packages/arduino/tools/arm-none-eabi-gcc/4.8.3-2014q1/bin/../lib/gcc/arm-none-eabi/4.8.3/../../../../arm-none-eabi/lib/armv7-m/libg.a(lib_a-exit.o)
__cmpdf2                                          /home/aaa/.arduino15/packages/arduino/tools/arm-none-eabi-gcc/4.8.3-2014q1/bin/../lib/gcc/arm-none-eabi/4.8.3/armv7-m/libgcc.a(_arm_cmpdf2.o)
__cxa_pure_virtual                                /home/aaa/llvm-arduino-due/build/Blink.ino.cpp.o
                                                  /home/aaa/llvm-arduino-due/build/core.a(UARTClass.cpp.o)
                                                  /home/aaa/llvm-arduino-due/build/core.a(CDC.cpp.o)
                                                  /home/aaa/llvm-arduino-due/build/core.a(Print.cpp.o)
__deregister_frame_info                           /home/aaa/.arduino15/packages/arduino/tools/arm-none-eabi-gcc/4.8.3-2014q1/bin/../lib/gcc/arm-none-eabi/4.8.3/armv7-m/crtbegin.o
__divdf3                                          /home/aaa/.arduino15/packages/arduino/tools/arm-none-eabi-gcc/4.8.3-2014q1/bin/../lib/gcc/arm-none-eabi/4.8.3/armv7-m/libgcc.a(_arm_muldivdf3.o)
                                                  /home/aaa/llvm-arduino-due/build/core.a(Print.cpp.o)
__divdi3                                          /home/aaa/.arduino15/packages/arduino/tools/arm-none-eabi-gcc/4.8.3-2014q1/bin/../lib/gcc/arm-none-eabi/4.8.3/armv7-m/libgcc.a(_divdi3.o)
                                                  /home/aaa/.arduino15/packages/arduino/tools/arm-none-eabi-gcc/4.8.3-2014q1/bin/../lib/gcc/arm-none-eabi/4.8.3/armv7-m/libgcc.a(bpabi.o)
__dso_handle                                      /home/aaa/.arduino15/packages/arduino/tools/arm-none-eabi-gcc/4.8.3-2014q1/bin/../lib/gcc/arm-none-eabi/4.8.3/armv7-m/crtbegin.o
__eqdf2                                           /home/aaa/.arduino15/packages/arduino/tools/arm-none-eabi-gcc/4.8.3-2014q1/bin/../lib/gcc/arm-none-eabi/4.8.3/armv7-m/libgcc.a(_arm_cmpdf2.o)
__extendsfdf2                                     /home/aaa/.arduino15/packages/arduino/tools/arm-none-eabi-gcc/4.8.3-2014q1/bin/../lib/gcc/arm-none-eabi/4.8.3/armv7-m/libgcc.a(_arm_addsubdf3.o)
__fini_array_end                                  /home/aaa/.arduino15/packages/arduino/tools/arm-none-eabi-gcc/4.8.3-2014q1/bin/../lib/gcc/arm-none-eabi/4.8.3/../../../../arm-none-eabi/lib/armv7-m/libg.a(lib_a-fini.o)
__fini_array_start                                /home/aaa/.arduino15/packages/arduino/tools/arm-none-eabi-gcc/4.8.3-2014q1/bin/../lib/gcc/arm-none-eabi/4.8.3/../../../../arm-none-eabi/lib/armv7-m/libg.a(lib_a-fini.o)
__fixunsdfsi                                      /home/aaa/.arduino15/packages/arduino/tools/arm-none-eabi-gcc/4.8.3-2014q1/bin/../lib/gcc/arm-none-eabi/4.8.3/armv7-m/libgcc.a(_arm_fixunsdfsi.o)
                                                  /home/aaa/llvm-arduino-due/build/core.a(Print.cpp.o)
__floatdidf                                       /home/aaa/.arduino15/packages/arduino/tools/arm-none-eabi-gcc/4.8.3-2014q1/bin/../lib/gcc/arm-none-eabi/4.8.3/armv7-m/libgcc.a(_arm_addsubdf3.o)
__floatsidf                                       /home/aaa/.arduino15/packages/arduino/tools/arm-none-eabi-gcc/4.8.3-2014q1/bin/../lib/gcc/arm-none-eabi/4.8.3/armv7-m/libgcc.a(_arm_addsubdf3.o)
__floatundidf                                     /home/aaa/.arduino15/packages/arduino/tools/arm-none-eabi-gcc/4.8.3-2014q1/bin/../lib/gcc/arm-none-eabi/4.8.3/armv7-m/libgcc.a(_arm_addsubdf3.o)
__floatunsidf                                     /home/aaa/.arduino15/packages/arduino/tools/arm-none-eabi-gcc/4.8.3-2014q1/bin/../lib/gcc/arm-none-eabi/4.8.3/armv7-m/libgcc.a(_arm_addsubdf3.o)
                                                  /home/aaa/llvm-arduino-due/build/core.a(Print.cpp.o)
__fp_lock_all                                     /home/aaa/.arduino15/packages/arduino/tools/arm-none-eabi-gcc/4.8.3-2014q1/bin/../lib/gcc/arm-none-eabi/4.8.3/../../../../arm-none-eabi/lib/armv7-m/libg.a(lib_a-findfp.o)
__fp_unlock_all                                   /home/aaa/.arduino15/packages/arduino/tools/arm-none-eabi-gcc/4.8.3-2014q1/bin/../lib/gcc/arm-none-eabi/4.8.3/../../../../arm-none-eabi/lib/armv7-m/libg.a(lib_a-findfp.o)
__fpclassifyd                                     /home/aaa/.arduino15/packages/arduino/tools/arm-none-eabi-gcc/4.8.3-2014q1/bin/../lib/gcc/arm-none-eabi/4.8.3/../../../../arm-none-eabi/lib/armv7-m/libm.a(lib_a-s_fpclassify.o)
                                                  /home/aaa/llvm-arduino-due/build/core.a(Print.cpp.o)
__gedf2                                           /home/aaa/.arduino15/packages/arduino/tools/arm-none-eabi-gcc/4.8.3-2014q1/bin/../lib/gcc/arm-none-eabi/4.8.3/armv7-m/libgcc.a(_arm_cmpdf2.o)
__gnu_ldivmod_helper                              /home/aaa/.arduino15/packages/arduino/tools/arm-none-eabi-gcc/4.8.3-2014q1/bin/../lib/gcc/arm-none-eabi/4.8.3/armv7-m/libgcc.a(bpabi.o)
__gnu_uldivmod_helper                             /home/aaa/.arduino15/packages/arduino/tools/arm-none-eabi-gcc/4.8.3-2014q1/bin/../lib/gcc/arm-none-eabi/4.8.3/armv7-m/libgcc.a(bpabi.o)
                                                  /home/aaa/.arduino15/packages/arduino/tools/arm-none-eabi-gcc/4.8.3-2014q1/bin/../lib/gcc/arm-none-eabi/4.8.3/armv7-m/libgcc.a(_aeabi_uldivmod.o)
__gtdf2                                           /home/aaa/.arduino15/packages/arduino/tools/arm-none-eabi-gcc/4.8.3-2014q1/bin/../lib/gcc/arm-none-eabi/4.8.3/armv7-m/libgcc.a(_arm_cmpdf2.o)
                                                  /home/aaa/llvm-arduino-due/build/core.a(Print.cpp.o)
__init_array_end                                  /home/aaa/.arduino15/packages/arduino/tools/arm-none-eabi-gcc/4.8.3-2014q1/bin/../lib/gcc/arm-none-eabi/4.8.3/../../../../arm-none-eabi/lib/armv7-m/libg.a(lib_a-init.o)
__init_array_start                                /home/aaa/.arduino15/packages/arduino/tools/arm-none-eabi-gcc/4.8.3-2014q1/bin/../lib/gcc/arm-none-eabi/4.8.3/../../../../arm-none-eabi/lib/armv7-m/libg.a(lib_a-init.o)
__ledf2                                           /home/aaa/.arduino15/packages/arduino/tools/arm-none-eabi-gcc/4.8.3-2014q1/bin/../lib/gcc/arm-none-eabi/4.8.3/armv7-m/libgcc.a(_arm_cmpdf2.o)
__libc_fini                                       /home/aaa/.arduino15/packages/arduino/tools/arm-none-eabi-gcc/4.8.3-2014q1/bin/../lib/gcc/arm-none-eabi/4.8.3/../../../../arm-none-eabi/lib/armv7-m/libg.a(lib_a-__call_atexit.o)
__libc_fini_array                                 /home/aaa/.arduino15/packages/arduino/tools/arm-none-eabi-gcc/4.8.3-2014q1/bin/../lib/gcc/arm-none-eabi/4.8.3/../../../../arm-none-eabi/lib/armv7-m/libg.a(lib_a-fini.o)
                                                  /home/aaa/.arduino15/packages/arduino/tools/arm-none-eabi-gcc/4.8.3-2014q1/bin/../lib/gcc/arm-none-eabi/4.8.3/../../../../arm-none-eabi/lib/armv7-m/libg.a(lib_a-__call_atexit.o)
                                                  /home/aaa/.arduino15/packages/arduino/tools/arm-none-eabi-gcc/4.8.3-2014q1/bin/../lib/gcc/arm-none-eabi/4.8.3/../../../../arm-none-eabi/lib/armv7-m/crt0.o
__libc_init_array                                 /home/aaa/.arduino15/packages/arduino/tools/arm-none-eabi-gcc/4.8.3-2014q1/bin/../lib/gcc/arm-none-eabi/4.8.3/../../../../arm-none-eabi/lib/armv7-m/libg.a(lib_a-init.o)
                                                  /home/aaa/llvm-arduino-due/build/core/variant.cpp.o
                                                  /home/aaa/.arduino15/packages/arduino/tools/arm-none-eabi-gcc/4.8.3-2014q1/bin/../lib/gcc/arm-none-eabi/4.8.3/../../../../arm-none-eabi/lib/armv7-m/crt0.o
__locale_charset                                  /home/aaa/.arduino15/packages/arduino/tools/arm-none-eabi-gcc/4.8.3-2014q1/bin/../lib/gcc/arm-none-eabi/4.8.3/../../../../arm-none-eabi/lib/armv7-m/libg.a(lib_a-locale.o)
                                                  /home/aaa/.arduino15/packages/arduino/tools/arm-none-eabi-gcc/4.8.3-2014q1/bin/../lib/gcc/arm-none-eabi/4.8.3/../../../../arm-none-eabi/lib/armv7-m/libg.a(lib_a-wctomb_r.o)
                                                  /home/aaa/.arduino15/packages/arduino/tools/arm-none-eabi-gcc/4.8.3-2014q1/bin/../lib/gcc/arm-none-eabi/4.8.3/../../../../arm-none-eabi/lib/armv7-m/libg.a(lib_a-wcrtomb.o)
__locale_cjk_lang                                 /home/aaa/.arduino15/packages/arduino/tools/arm-none-eabi-gcc/4.8.3-2014q1/bin/../lib/gcc/arm-none-eabi/4.8.3/../../../../arm-none-eabi/lib/armv7-m/libg.a(lib_a-locale.o)
__locale_mb_cur_max                               /home/aaa/.arduino15/packages/arduino/tools/arm-none-eabi-gcc/4.8.3-2014q1/bin/../lib/gcc/arm-none-eabi/4.8.3/../../../../arm-none-eabi/lib/armv7-m/libg.a(lib_a-locale.o)
                                                  /home/aaa/.arduino15/packages/arduino/tools/arm-none-eabi-gcc/4.8.3-2014q1/bin/../lib/gcc/arm-none-eabi/4.8.3/../../../../arm-none-eabi/lib/armv7-m/libg.a(lib_a-fputwc.o)
__locale_msgcharset                               /home/aaa/.arduino15/packages/arduino/tools/arm-none-eabi-gcc/4.8.3-2014q1/bin/../lib/gcc/arm-none-eabi/4.8.3/../../../../arm-none-eabi/lib/armv7-m/libg.a(lib_a-locale.o)
__ltdf2                                           /home/aaa/.arduino15/packages/arduino/tools/arm-none-eabi-gcc/4.8.3-2014q1/bin/../lib/gcc/arm-none-eabi/4.8.3/armv7-m/libgcc.a(_arm_cmpdf2.o)
                                                  /home/aaa/llvm-arduino-due/build/core.a(Print.cpp.o)
__malloc_av_                                      /home/aaa/.arduino15/packages/arduino/tools/arm-none-eabi-gcc/4.8.3-2014q1/bin/../lib/gcc/arm-none-eabi/4.8.3/../../../../arm-none-eabi/lib/armv7-m/libg.a(lib_a-mallocr.o)
                                                  /home/aaa/.arduino15/packages/arduino/tools/arm-none-eabi-gcc/4.8.3-2014q1/bin/../lib/gcc/arm-none-eabi/4.8.3/../../../../arm-none-eabi/lib/armv7-m/libg.a(lib_a-reallocr.o)
                                                  /home/aaa/.arduino15/packages/arduino/tools/arm-none-eabi-gcc/4.8.3-2014q1/bin/../lib/gcc/arm-none-eabi/4.8.3/../../../../arm-none-eabi/lib/armv7-m/libg.a(lib_a-freer.o)
__malloc_current_mallinfo                         /home/aaa/.arduino15/packages/arduino/tools/arm-none-eabi-gcc/4.8.3-2014q1/bin/../lib/gcc/arm-none-eabi/4.8.3/../../../../arm-none-eabi/lib/armv7-m/libg.a(lib_a-mallocr.o)
                                                  /home/aaa/.arduino15/packages/arduino/tools/arm-none-eabi-gcc/4.8.3-2014q1/bin/../lib/gcc/arm-none-eabi/4.8.3/../../../../arm-none-eabi/lib/armv7-m/libg.a(lib_a-freer.o)
__malloc_lock                                     /home/aaa/.arduino15/packages/arduino/tools/arm-none-eabi-gcc/4.8.3-2014q1/bin/../lib/gcc/arm-none-eabi/4.8.3/../../../../arm-none-eabi/lib/armv7-m/libg.a(lib_a-mlock.o)
                                                  /home/aaa/.arduino15/packages/arduino/tools/arm-none-eabi-gcc/4.8.3-2014q1/bin/../lib/gcc/arm-none-eabi/4.8.3/../../../../arm-none-eabi/lib/armv7-m/libg.a(lib_a-reallocr.o)
                                                  /home/aaa/.arduino15/packages/arduino/tools/arm-none-eabi-gcc/4.8.3-2014q1/bin/../lib/gcc/arm-none-eabi/4.8.3/../../../../arm-none-eabi/lib/armv7-m/libg.a(lib_a-mallocr.o)
                                                  /home/aaa/.arduino15/packages/arduino/tools/arm-none-eabi-gcc/4.8.3-2014q1/bin/../lib/gcc/arm-none-eabi/4.8.3/../../../../arm-none-eabi/lib/armv7-m/libg.a(lib_a-freer.o)
__malloc_max_sbrked_mem                           /home/aaa/.arduino15/packages/arduino/tools/arm-none-eabi-gcc/4.8.3-2014q1/bin/../lib/gcc/arm-none-eabi/4.8.3/../../../../arm-none-eabi/lib/armv7-m/libg.a(lib_a-mallocr.o)
__malloc_max_total_mem                            /home/aaa/.arduino15/packages/arduino/tools/arm-none-eabi-gcc/4.8.3-2014q1/bin/../lib/gcc/arm-none-eabi/4.8.3/../../../../arm-none-eabi/lib/armv7-m/libg.a(lib_a-mallocr.o)
__malloc_sbrk_base                                /home/aaa/.arduino15/packages/arduino/tools/arm-none-eabi-gcc/4.8.3-2014q1/bin/../lib/gcc/arm-none-eabi/4.8.3/../../../../arm-none-eabi/lib/armv7-m/libg.a(lib_a-mallocr.o)
                                                  /home/aaa/.arduino15/packages/arduino/tools/arm-none-eabi-gcc/4.8.3-2014q1/bin/../lib/gcc/arm-none-eabi/4.8.3/../../../../arm-none-eabi/lib/armv7-m/libg.a(lib_a-freer.o)
__malloc_top_pad                                  /home/aaa/.arduino15/packages/arduino/tools/arm-none-eabi-gcc/4.8.3-2014q1/bin/../lib/gcc/arm-none-eabi/4.8.3/../../../../arm-none-eabi/lib/armv7-m/libg.a(lib_a-mallocr.o)
                                                  /home/aaa/.arduino15/packages/arduino/tools/arm-none-eabi-gcc/4.8.3-2014q1/bin/../lib/gcc/arm-none-eabi/4.8.3/../../../../arm-none-eabi/lib/armv7-m/libg.a(lib_a-freer.o)
__malloc_trim_threshold                           /home/aaa/.arduino15/packages/arduino/tools/arm-none-eabi-gcc/4.8.3-2014q1/bin/../lib/gcc/arm-none-eabi/4.8.3/../../../../arm-none-eabi/lib/armv7-m/libg.a(lib_a-mallocr.o)
                                                  /home/aaa/.arduino15/packages/arduino/tools/arm-none-eabi-gcc/4.8.3-2014q1/bin/../lib/gcc/arm-none-eabi/4.8.3/../../../../arm-none-eabi/lib/armv7-m/libg.a(lib_a-freer.o)
__malloc_unlock                                   /home/aaa/.arduino15/packages/arduino/tools/arm-none-eabi-gcc/4.8.3-2014q1/bin/../lib/gcc/arm-none-eabi/4.8.3/../../../../arm-none-eabi/lib/armv7-m/libg.a(lib_a-mlock.o)
                                                  /home/aaa/.arduino15/packages/arduino/tools/arm-none-eabi-gcc/4.8.3-2014q1/bin/../lib/gcc/arm-none-eabi/4.8.3/../../../../arm-none-eabi/lib/armv7-m/libg.a(lib_a-reallocr.o)
                                                  /home/aaa/.arduino15/packages/arduino/tools/arm-none-eabi-gcc/4.8.3-2014q1/bin/../lib/gcc/arm-none-eabi/4.8.3/../../../../arm-none-eabi/lib/armv7-m/libg.a(lib_a-mallocr.o)
                                                  /home/aaa/.arduino15/packages/arduino/tools/arm-none-eabi-gcc/4.8.3-2014q1/bin/../lib/gcc/arm-none-eabi/4.8.3/../../../../arm-none-eabi/lib/armv7-m/libg.a(lib_a-freer.o)
__mb_cur_max                                      /home/aaa/.arduino15/packages/arduino/tools/arm-none-eabi-gcc/4.8.3-2014q1/bin/../lib/gcc/arm-none-eabi/4.8.3/../../../../arm-none-eabi/lib/armv7-m/libg.a(lib_a-locale.o)
__mlocale_changed                                 /home/aaa/.arduino15/packages/arduino/tools/arm-none-eabi-gcc/4.8.3-2014q1/bin/../lib/gcc/arm-none-eabi/4.8.3/../../../../arm-none-eabi/lib/armv7-m/libg.a(lib_a-locale.o)
__muldf3                                          /home/aaa/.arduino15/packages/arduino/tools/arm-none-eabi-gcc/4.8.3-2014q1/bin/../lib/gcc/arm-none-eabi/4.8.3/armv7-m/libgcc.a(_arm_muldivdf3.o)
                                                  /home/aaa/llvm-arduino-due/build/core.a(Print.cpp.o)
__nedf2                                           /home/aaa/.arduino15/packages/arduino/tools/arm-none-eabi-gcc/4.8.3-2014q1/bin/../lib/gcc/arm-none-eabi/4.8.3/armv7-m/libgcc.a(_arm_cmpdf2.o)
__nlocale_changed                                 /home/aaa/.arduino15/packages/arduino/tools/arm-none-eabi-gcc/4.8.3-2014q1/bin/../lib/gcc/arm-none-eabi/4.8.3/../../../../arm-none-eabi/lib/armv7-m/libg.a(lib_a-locale.o)
__preinit_array_end                               /home/aaa/.arduino15/packages/arduino/tools/arm-none-eabi-gcc/4.8.3-2014q1/bin/../lib/gcc/arm-none-eabi/4.8.3/../../../../arm-none-eabi/lib/armv7-m/libg.a(lib_a-init.o)
__preinit_array_start                             /home/aaa/.arduino15/packages/arduino/tools/arm-none-eabi-gcc/4.8.3-2014q1/bin/../lib/gcc/arm-none-eabi/4.8.3/../../../../arm-none-eabi/lib/armv7-m/libg.a(lib_a-init.o)
__register_exitproc                               /home/aaa/.arduino15/packages/arduino/tools/arm-none-eabi-gcc/4.8.3-2014q1/bin/../lib/gcc/arm-none-eabi/4.8.3/../../../../arm-none-eabi/lib/armv7-m/libg.a(lib_a-__atexit.o)
                                                  /home/aaa/.arduino15/packages/arduino/tools/arm-none-eabi-gcc/4.8.3-2014q1/bin/../lib/gcc/arm-none-eabi/4.8.3/../../../../arm-none-eabi/lib/armv7-m/libg.a(lib_a-atexit.o)
__register_frame_info                             /home/aaa/.arduino15/packages/arduino/tools/arm-none-eabi-gcc/4.8.3-2014q1/bin/../lib/gcc/arm-none-eabi/4.8.3/armv7-m/crtbegin.o
__sclose                                          /home/aaa/.arduino15/packages/arduino/tools/arm-none-eabi-gcc/4.8.3-2014q1/bin/../lib/gcc/arm-none-eabi/4.8.3/../../../../arm-none-eabi/lib/armv7-m/libg.a(lib_a-stdio.o)
                                                  /home/aaa/.arduino15/packages/arduino/tools/arm-none-eabi-gcc/4.8.3-2014q1/bin/../lib/gcc/arm-none-eabi/4.8.3/../../../../arm-none-eabi/lib/armv7-m/libg.a(lib_a-findfp.o)
__seofread                                        /home/aaa/.arduino15/packages/arduino/tools/arm-none-eabi-gcc/4.8.3-2014q1/bin/../lib/gcc/arm-none-eabi/4.8.3/../../../../arm-none-eabi/lib/armv7-m/libg.a(lib_a-stdio.o)
__sflush_r                                        /home/aaa/.arduino15/packages/arduino/tools/arm-none-eabi-gcc/4.8.3-2014q1/bin/../lib/gcc/arm-none-eabi/4.8.3/../../../../arm-none-eabi/lib/armv7-m/libg.a(lib_a-fflush.o)
__sfmoreglue                                      /home/aaa/.arduino15/packages/arduino/tools/arm-none-eabi-gcc/4.8.3-2014q1/bin/../lib/gcc/arm-none-eabi/4.8.3/../../../../arm-none-eabi/lib/armv7-m/libg.a(lib_a-findfp.o)
__sfp                                             /home/aaa/.arduino15/packages/arduino/tools/arm-none-eabi-gcc/4.8.3-2014q1/bin/../lib/gcc/arm-none-eabi/4.8.3/../../../../arm-none-eabi/lib/armv7-m/libg.a(lib_a-findfp.o)
__sfp_lock_acquire                                /home/aaa/.arduino15/packages/arduino/tools/arm-none-eabi-gcc/4.8.3-2014q1/bin/../lib/gcc/arm-none-eabi/4.8.3/../../../../arm-none-eabi/lib/armv7-m/libg.a(lib_a-findfp.o)
                                                  /home/aaa/.arduino15/packages/arduino/tools/arm-none-eabi-gcc/4.8.3-2014q1/bin/../lib/gcc/arm-none-eabi/4.8.3/../../../../arm-none-eabi/lib/armv7-m/libg.a(lib_a-fclose.o)
__sfp_lock_release                                /home/aaa/.arduino15/packages/arduino/tools/arm-none-eabi-gcc/4.8.3-2014q1/bin/../lib/gcc/arm-none-eabi/4.8.3/../../../../arm-none-eabi/lib/armv7-m/libg.a(lib_a-findfp.o)
                                                  /home/aaa/.arduino15/packages/arduino/tools/arm-none-eabi-gcc/4.8.3-2014q1/bin/../lib/gcc/arm-none-eabi/4.8.3/../../../../arm-none-eabi/lib/armv7-m/libg.a(lib_a-fclose.o)
__sfvwrite_r                                      /home/aaa/.arduino15/packages/arduino/tools/arm-none-eabi-gcc/4.8.3-2014q1/bin/../lib/gcc/arm-none-eabi/4.8.3/../../../../arm-none-eabi/lib/armv7-m/libg.a(lib_a-fvwrite.o)
                                                  /home/aaa/.arduino15/packages/arduino/tools/arm-none-eabi-gcc/4.8.3-2014q1/bin/../lib/gcc/arm-none-eabi/4.8.3/../../../../arm-none-eabi/lib/armv7-m/libg.a(lib_a-vfiprintf.o)
__sigtramp                                        /home/aaa/.arduino15/packages/arduino/tools/arm-none-eabi-gcc/4.8.3-2014q1/bin/../lib/gcc/arm-none-eabi/4.8.3/../../../../arm-none-eabi/lib/armv7-m/libg.a(lib_a-signal.o)
__sigtramp_r                                      /home/aaa/.arduino15/packages/arduino/tools/arm-none-eabi-gcc/4.8.3-2014q1/bin/../lib/gcc/arm-none-eabi/4.8.3/../../../../arm-none-eabi/lib/armv7-m/libg.a(lib_a-signal.o)
__sinit                                           /home/aaa/.arduino15/packages/arduino/tools/arm-none-eabi-gcc/4.8.3-2014q1/bin/../lib/gcc/arm-none-eabi/4.8.3/../../../../arm-none-eabi/lib/armv7-m/libg.a(lib_a-findfp.o)
                                                  /home/aaa/.arduino15/packages/arduino/tools/arm-none-eabi-gcc/4.8.3-2014q1/bin/../lib/gcc/arm-none-eabi/4.8.3/../../../../arm-none-eabi/lib/armv7-m/libg.a(lib_a-fclose.o)
                                                  /home/aaa/.arduino15/packages/arduino/tools/arm-none-eabi-gcc/4.8.3-2014q1/bin/../lib/gcc/arm-none-eabi/4.8.3/../../../../arm-none-eabi/lib/armv7-m/libg.a(lib_a-wbuf.o)
                                                  /home/aaa/.arduino15/packages/arduino/tools/arm-none-eabi-gcc/4.8.3-2014q1/bin/../lib/gcc/arm-none-eabi/4.8.3/../../../../arm-none-eabi/lib/armv7-m/libg.a(lib_a-fputwc.o)
                                                  /home/aaa/.arduino15/packages/arduino/tools/arm-none-eabi-gcc/4.8.3-2014q1/bin/../lib/gcc/arm-none-eabi/4.8.3/../../../../arm-none-eabi/lib/armv7-m/libg.a(lib_a-fflush.o)
                                                  /home/aaa/.arduino15/packages/arduino/tools/arm-none-eabi-gcc/4.8.3-2014q1/bin/../lib/gcc/arm-none-eabi/4.8.3/../../../../arm-none-eabi/lib/armv7-m/libg.a(lib_a-wsetup.o)
                                                  /home/aaa/.arduino15/packages/arduino/tools/arm-none-eabi-gcc/4.8.3-2014q1/bin/../lib/gcc/arm-none-eabi/4.8.3/../../../../arm-none-eabi/lib/armv7-m/libg.a(lib_a-vfiprintf.o)
__sinit_lock_acquire                              /home/aaa/.arduino15/packages/arduino/tools/arm-none-eabi-gcc/4.8.3-2014q1/bin/../lib/gcc/arm-none-eabi/4.8.3/../../../../arm-none-eabi/lib/armv7-m/libg.a(lib_a-findfp.o)
__sinit_lock_release                              /home/aaa/.arduino15/packages/arduino/tools/arm-none-eabi-gcc/4.8.3-2014q1/bin/../lib/gcc/arm-none-eabi/4.8.3/../../../../arm-none-eabi/lib/armv7-m/libg.a(lib_a-findfp.o)
__smakebuf_r                                      /home/aaa/.arduino15/packages/arduino/tools/arm-none-eabi-gcc/4.8.3-2014q1/bin/../lib/gcc/arm-none-eabi/4.8.3/../../../../arm-none-eabi/lib/armv7-m/libg.a(lib_a-makebuf.o)
                                                  /home/aaa/.arduino15/packages/arduino/tools/arm-none-eabi-gcc/4.8.3-2014q1/bin/../lib/gcc/arm-none-eabi/4.8.3/../../../../arm-none-eabi/lib/armv7-m/libg.a(lib_a-wsetup.o)
__sprint_r                                        /home/aaa/.arduino15/packages/arduino/tools/arm-none-eabi-gcc/4.8.3-2014q1/bin/../lib/gcc/arm-none-eabi/4.8.3/../../../../arm-none-eabi/lib/armv7-m/libg.a(lib_a-vfiprintf.o)
__sread                                           /home/aaa/.arduino15/packages/arduino/tools/arm-none-eabi-gcc/4.8.3-2014q1/bin/../lib/gcc/arm-none-eabi/4.8.3/../../../../arm-none-eabi/lib/armv7-m/libg.a(lib_a-stdio.o)
                                                  /home/aaa/.arduino15/packages/arduino/tools/arm-none-eabi-gcc/4.8.3-2014q1/bin/../lib/gcc/arm-none-eabi/4.8.3/../../../../arm-none-eabi/lib/armv7-m/libg.a(lib_a-findfp.o)
__sseek                                           /home/aaa/.arduino15/packages/arduino/tools/arm-none-eabi-gcc/4.8.3-2014q1/bin/../lib/gcc/arm-none-eabi/4.8.3/../../../../arm-none-eabi/lib/armv7-m/libg.a(lib_a-stdio.o)
                                                  /home/aaa/.arduino15/packages/arduino/tools/arm-none-eabi-gcc/4.8.3-2014q1/bin/../lib/gcc/arm-none-eabi/4.8.3/../../../../arm-none-eabi/lib/armv7-m/libg.a(lib_a-makebuf.o)
                                                  /home/aaa/.arduino15/packages/arduino/tools/arm-none-eabi-gcc/4.8.3-2014q1/bin/../lib/gcc/arm-none-eabi/4.8.3/../../../../arm-none-eabi/lib/armv7-m/libg.a(lib_a-findfp.o)
__stack                                           /home/aaa/.arduino15/packages/arduino/tools/arm-none-eabi-gcc/4.8.3-2014q1/bin/../lib/gcc/arm-none-eabi/4.8.3/../../../../arm-none-eabi/lib/armv7-m/crt0.o
__subdf3                                          /home/aaa/.arduino15/packages/arduino/tools/arm-none-eabi-gcc/4.8.3-2014q1/bin/../lib/gcc/arm-none-eabi/4.8.3/armv7-m/libgcc.a(_arm_addsubdf3.o)
                                                  /home/aaa/llvm-arduino-due/build/core.a(Print.cpp.o)
__swbuf                                           /home/aaa/.arduino15/packages/arduino/tools/arm-none-eabi-gcc/4.8.3-2014q1/bin/../lib/gcc/arm-none-eabi/4.8.3/../../../../arm-none-eabi/lib/armv7-m/libg.a(lib_a-wbuf.o)
__swbuf_r                                         /home/aaa/.arduino15/packages/arduino/tools/arm-none-eabi-gcc/4.8.3-2014q1/bin/../lib/gcc/arm-none-eabi/4.8.3/../../../../arm-none-eabi/lib/armv7-m/libg.a(lib_a-wbuf.o)
                                                  /home/aaa/.arduino15/packages/arduino/tools/arm-none-eabi-gcc/4.8.3-2014q1/bin/../lib/gcc/arm-none-eabi/4.8.3/../../../../arm-none-eabi/lib/armv7-m/libg.a(lib_a-fputwc.o)
__swrite                                          /home/aaa/.arduino15/packages/arduino/tools/arm-none-eabi-gcc/4.8.3-2014q1/bin/../lib/gcc/arm-none-eabi/4.8.3/../../../../arm-none-eabi/lib/armv7-m/libg.a(lib_a-stdio.o)
                                                  /home/aaa/.arduino15/packages/arduino/tools/arm-none-eabi-gcc/4.8.3-2014q1/bin/../lib/gcc/arm-none-eabi/4.8.3/../../../../arm-none-eabi/lib/armv7-m/libg.a(lib_a-findfp.o)
__swsetup_r                                       /home/aaa/.arduino15/packages/arduino/tools/arm-none-eabi-gcc/4.8.3-2014q1/bin/../lib/gcc/arm-none-eabi/4.8.3/../../../../arm-none-eabi/lib/armv7-m/libg.a(lib_a-wsetup.o)
                                                  /home/aaa/.arduino15/packages/arduino/tools/arm-none-eabi-gcc/4.8.3-2014q1/bin/../lib/gcc/arm-none-eabi/4.8.3/../../../../arm-none-eabi/lib/armv7-m/libg.a(lib_a-wbuf.o)
                                                  /home/aaa/.arduino15/packages/arduino/tools/arm-none-eabi-gcc/4.8.3-2014q1/bin/../lib/gcc/arm-none-eabi/4.8.3/../../../../arm-none-eabi/lib/armv7-m/libg.a(lib_a-fvwrite.o)
                                                  /home/aaa/.arduino15/packages/arduino/tools/arm-none-eabi-gcc/4.8.3-2014q1/bin/../lib/gcc/arm-none-eabi/4.8.3/../../../../arm-none-eabi/lib/armv7-m/libg.a(lib_a-vfiprintf.o)
__udivdi3                                         /home/aaa/.arduino15/packages/arduino/tools/arm-none-eabi-gcc/4.8.3-2014q1/bin/../lib/gcc/arm-none-eabi/4.8.3/armv7-m/libgcc.a(_udivdi3.o)
                                                  /home/aaa/.arduino15/packages/arduino/tools/arm-none-eabi-gcc/4.8.3-2014q1/bin/../lib/gcc/arm-none-eabi/4.8.3/armv7-m/libgcc.a(bpabi.o)
__wctomb                                          /home/aaa/.arduino15/packages/arduino/tools/arm-none-eabi-gcc/4.8.3-2014q1/bin/../lib/gcc/arm-none-eabi/4.8.3/../../../../arm-none-eabi/lib/armv7-m/libg.a(lib_a-wctomb_r.o)
                                                  /home/aaa/.arduino15/packages/arduino/tools/arm-none-eabi-gcc/4.8.3-2014q1/bin/../lib/gcc/arm-none-eabi/4.8.3/../../../../arm-none-eabi/lib/armv7-m/libg.a(lib_a-wcrtomb.o)
_cdcComposite                                     /home/aaa/llvm-arduino-due/build/core.a(USBCore.cpp.o)
_cend                                             /home/aaa/llvm-arduino-due/build/core.a(USBCore.cpp.o)
_cleanup                                          /home/aaa/.arduino15/packages/arduino/tools/arm-none-eabi-gcc/4.8.3-2014q1/bin/../lib/gcc/arm-none-eabi/4.8.3/../../../../arm-none-eabi/lib/armv7-m/libg.a(lib_a-findfp.o)
_cleanup_r                                        /home/aaa/.arduino15/packages/arduino/tools/arm-none-eabi-gcc/4.8.3-2014q1/bin/../lib/gcc/arm-none-eabi/4.8.3/../../../../arm-none-eabi/lib/armv7-m/libg.a(lib_a-findfp.o)
                                                  /home/aaa/.arduino15/packages/arduino/tools/arm-none-eabi-gcc/4.8.3-2014q1/bin/../lib/gcc/arm-none-eabi/4.8.3/../../../../arm-none-eabi/lib/armv7-m/libg.a(lib_a-makebuf.o)
_close                                            /home/aaa/llvm-arduino-due/build/core.a(syscalls_sam3.c.o)
                                                  /home/aaa/.arduino15/packages/arduino/tools/arm-none-eabi-gcc/4.8.3-2014q1/bin/../lib/gcc/arm-none-eabi/4.8.3/../../../../arm-none-eabi/lib/armv7-m/libg.a(lib_a-closer.o)
_close_r                                          /home/aaa/.arduino15/packages/arduino/tools/arm-none-eabi-gcc/4.8.3-2014q1/bin/../lib/gcc/arm-none-eabi/4.8.3/../../../../arm-none-eabi/lib/armv7-m/libg.a(lib_a-closer.o)
                                                  /home/aaa/.arduino15/packages/arduino/tools/arm-none-eabi-gcc/4.8.3-2014q1/bin/../lib/gcc/arm-none-eabi/4.8.3/../../../../arm-none-eabi/lib/armv7-m/libg.a(lib_a-stdio.o)
_cmark                                            /home/aaa/llvm-arduino-due/build/core.a(USBCore.cpp.o)
_end                                              /home/aaa/llvm-arduino-due/build/core.a(syscalls_sam3.c.o)
_erelocate                                        /home/aaa/.arduino15/packages/arduino/hardware/sam/1.6.12/variants/arduino_due_x/libsam_sam3x8e_gcc_rel.a(startup_sam3xa.o)
_estack                                           /home/aaa/.arduino15/packages/arduino/hardware/sam/1.6.12/variants/arduino_due_x/libsam_sam3x8e_gcc_rel.a(startup_sam3xa.o)
_etext                                            /home/aaa/.arduino15/packages/arduino/hardware/sam/1.6.12/variants/arduino_due_x/libsam_sam3x8e_gcc_rel.a(startup_sam3xa.o)
_exit                                             /home/aaa/llvm-arduino-due/build/core.a(syscalls_sam3.c.o)
                                                  /home/aaa/.arduino15/packages/arduino/tools/arm-none-eabi-gcc/4.8.3-2014q1/bin/../lib/gcc/arm-none-eabi/4.8.3/../../../../arm-none-eabi/lib/armv7-m/libg.a(lib_a-abort.o)
                                                  /home/aaa/.arduino15/packages/arduino/tools/arm-none-eabi-gcc/4.8.3-2014q1/bin/../lib/gcc/arm-none-eabi/4.8.3/../../../../arm-none-eabi/lib/armv7-m/libg.a(lib_a-exit.o)
_ezero                                            /home/aaa/.arduino15/packages/arduino/hardware/sam/1.6.12/variants/arduino_due_x/libsam_sam3x8e_gcc_rel.a(startup_sam3xa.o)
_fclose_r                                         /home/aaa/.arduino15/packages/arduino/tools/arm-none-eabi-gcc/4.8.3-2014q1/bin/../lib/gcc/arm-none-eabi/4.8.3/../../../../arm-none-eabi/lib/armv7-m/libg.a(lib_a-fclose.o)
_fflush_r                                         /home/aaa/.arduino15/packages/arduino/tools/arm-none-eabi-gcc/4.8.3-2014q1/bin/../lib/gcc/arm-none-eabi/4.8.3/../../../../arm-none-eabi/lib/armv7-m/libg.a(lib_a-fflush.o)
                                                  /home/aaa/.arduino15/packages/arduino/tools/arm-none-eabi-gcc/4.8.3-2014q1/bin/../lib/gcc/arm-none-eabi/4.8.3/../../../../arm-none-eabi/lib/armv7-m/libg.a(lib_a-fclose.o)
                                                  /home/aaa/.arduino15/packages/arduino/tools/arm-none-eabi-gcc/4.8.3-2014q1/bin/../lib/gcc/arm-none-eabi/4.8.3/../../../../arm-none-eabi/lib/armv7-m/libg.a(lib_a-wbuf.o)
                                                  /home/aaa/.arduino15/packages/arduino/tools/arm-none-eabi-gcc/4.8.3-2014q1/bin/../lib/gcc/arm-none-eabi/4.8.3/../../../../arm-none-eabi/lib/armv7-m/libg.a(lib_a-fvwrite.o)
                                                  /home/aaa/.arduino15/packages/arduino/tools/arm-none-eabi-gcc/4.8.3-2014q1/bin/../lib/gcc/arm-none-eabi/4.8.3/../../../../arm-none-eabi/lib/armv7-m/libg.a(lib_a-vfiprintf.o)
_fini                                             /home/aaa/.arduino15/packages/arduino/tools/arm-none-eabi-gcc/4.8.3-2014q1/bin/../lib/gcc/arm-none-eabi/4.8.3/armv7-m/crti.o
                                                  /home/aaa/.arduino15/packages/arduino/tools/arm-none-eabi-gcc/4.8.3-2014q1/bin/../lib/gcc/arm-none-eabi/4.8.3/../../../../arm-none-eabi/lib/armv7-m/libg.a(lib_a-fini.o)
_fiprintf_r                                       /home/aaa/.arduino15/packages/arduino/tools/arm-none-eabi-gcc/4.8.3-2014q1/bin/../lib/gcc/arm-none-eabi/4.8.3/../../../../arm-none-eabi/lib/armv7-m/libg.a(lib_a-fiprintf.o)
_fputwc_r                                         /home/aaa/.arduino15/packages/arduino/tools/arm-none-eabi-gcc/4.8.3-2014q1/bin/../lib/gcc/arm-none-eabi/4.8.3/../../../../arm-none-eabi/lib/armv7-m/libg.a(lib_a-fputwc.o)
                                                  /home/aaa/.arduino15/packages/arduino/tools/arm-none-eabi-gcc/4.8.3-2014q1/bin/../lib/gcc/arm-none-eabi/4.8.3/../../../../arm-none-eabi/lib/armv7-m/libg.a(lib_a-vfiprintf.o)
_free_r                                           /home/aaa/.arduino15/packages/arduino/tools/arm-none-eabi-gcc/4.8.3-2014q1/bin/../lib/gcc/arm-none-eabi/4.8.3/../../../../arm-none-eabi/lib/armv7-m/libg.a(lib_a-freer.o)
                                                  /home/aaa/.arduino15/packages/arduino/tools/arm-none-eabi-gcc/4.8.3-2014q1/bin/../lib/gcc/arm-none-eabi/4.8.3/../../../../arm-none-eabi/lib/armv7-m/libg.a(lib_a-reent.o)
                                                  /home/aaa/.arduino15/packages/arduino/tools/arm-none-eabi-gcc/4.8.3-2014q1/bin/../lib/gcc/arm-none-eabi/4.8.3/../../../../arm-none-eabi/lib/armv7-m/libg.a(lib_a-fclose.o)
                                                  /home/aaa/.arduino15/packages/arduino/tools/arm-none-eabi-gcc/4.8.3-2014q1/bin/../lib/gcc/arm-none-eabi/4.8.3/../../../../arm-none-eabi/lib/armv7-m/libg.a(lib_a-reallocr.o)
                                                  /home/aaa/.arduino15/packages/arduino/tools/arm-none-eabi-gcc/4.8.3-2014q1/bin/../lib/gcc/arm-none-eabi/4.8.3/../../../../arm-none-eabi/lib/armv7-m/libg.a(lib_a-mallocr.o)
                                                  /home/aaa/.arduino15/packages/arduino/tools/arm-none-eabi-gcc/4.8.3-2014q1/bin/../lib/gcc/arm-none-eabi/4.8.3/../../../../arm-none-eabi/lib/armv7-m/libg.a(lib_a-fvwrite.o)
                                                  /home/aaa/.arduino15/packages/arduino/tools/arm-none-eabi-gcc/4.8.3-2014q1/bin/../lib/gcc/arm-none-eabi/4.8.3/../../../../arm-none-eabi/lib/armv7-m/libg.a(lib_a-fflush.o)
                                                  /home/aaa/.arduino15/packages/arduino/tools/arm-none-eabi-gcc/4.8.3-2014q1/bin/../lib/gcc/arm-none-eabi/4.8.3/../../../../arm-none-eabi/lib/armv7-m/libg.a(lib_a-wsetup.o)
_fstat                                            /home/aaa/llvm-arduino-due/build/core.a(syscalls_sam3.c.o)
                                                  /home/aaa/.arduino15/packages/arduino/tools/arm-none-eabi-gcc/4.8.3-2014q1/bin/../lib/gcc/arm-none-eabi/4.8.3/../../../../arm-none-eabi/lib/armv7-m/libg.a(lib_a-fstatr.o)
_fstat_r                                          /home/aaa/.arduino15/packages/arduino/tools/arm-none-eabi-gcc/4.8.3-2014q1/bin/../lib/gcc/arm-none-eabi/4.8.3/../../../../arm-none-eabi/lib/armv7-m/libg.a(lib_a-fstatr.o)
                                                  /home/aaa/.arduino15/packages/arduino/tools/arm-none-eabi-gcc/4.8.3-2014q1/bin/../lib/gcc/arm-none-eabi/4.8.3/../../../../arm-none-eabi/lib/armv7-m/libg.a(lib_a-makebuf.o)
_fwalk                                            /home/aaa/.arduino15/packages/arduino/tools/arm-none-eabi-gcc/4.8.3-2014q1/bin/../lib/gcc/arm-none-eabi/4.8.3/../../../../arm-none-eabi/lib/armv7-m/libg.a(lib_a-fwalk.o)
                                                  /home/aaa/.arduino15/packages/arduino/tools/arm-none-eabi-gcc/4.8.3-2014q1/bin/../lib/gcc/arm-none-eabi/4.8.3/../../../../arm-none-eabi/lib/armv7-m/libg.a(lib_a-findfp.o)
_fwalk_reent                                      /home/aaa/.arduino15/packages/arduino/tools/arm-none-eabi-gcc/4.8.3-2014q1/bin/../lib/gcc/arm-none-eabi/4.8.3/../../../../arm-none-eabi/lib/armv7-m/libg.a(lib_a-fwalk.o)
                                                  /home/aaa/.arduino15/packages/arduino/tools/arm-none-eabi-gcc/4.8.3-2014q1/bin/../lib/gcc/arm-none-eabi/4.8.3/../../../../arm-none-eabi/lib/armv7-m/libg.a(lib_a-fflush.o)
_getpid                                           /home/aaa/llvm-arduino-due/build/core.a(syscalls_sam3.c.o)
                                                  /home/aaa/.arduino15/packages/arduino/tools/arm-none-eabi-gcc/4.8.3-2014q1/bin/../lib/gcc/arm-none-eabi/4.8.3/../../../../arm-none-eabi/lib/armv7-m/libg.a(lib_a-signalr.o)
_getpid_r                                         /home/aaa/.arduino15/packages/arduino/tools/arm-none-eabi-gcc/4.8.3-2014q1/bin/../lib/gcc/arm-none-eabi/4.8.3/../../../../arm-none-eabi/lib/armv7-m/libg.a(lib_a-signalr.o)
                                                  /home/aaa/.arduino15/packages/arduino/tools/arm-none-eabi-gcc/4.8.3-2014q1/bin/../lib/gcc/arm-none-eabi/4.8.3/../../../../arm-none-eabi/lib/armv7-m/libg.a(lib_a-signal.o)
_global_impure_ptr                                /home/aaa/.arduino15/packages/arduino/tools/arm-none-eabi-gcc/4.8.3-2014q1/bin/../lib/gcc/arm-none-eabi/4.8.3/../../../../arm-none-eabi/lib/armv7-m/libg.a(lib_a-impure.o)
                                                  /home/aaa/.arduino15/packages/arduino/tools/arm-none-eabi-gcc/4.8.3-2014q1/bin/../lib/gcc/arm-none-eabi/4.8.3/../../../../arm-none-eabi/lib/armv7-m/libg.a(lib_a-__atexit.o)
                                                  /home/aaa/.arduino15/packages/arduino/tools/arm-none-eabi-gcc/4.8.3-2014q1/bin/../lib/gcc/arm-none-eabi/4.8.3/../../../../arm-none-eabi/lib/armv7-m/libg.a(lib_a-findfp.o)
                                                  /home/aaa/.arduino15/packages/arduino/tools/arm-none-eabi-gcc/4.8.3-2014q1/bin/../lib/gcc/arm-none-eabi/4.8.3/../../../../arm-none-eabi/lib/armv7-m/libg.a(lib_a-fflush.o)
                                                  /home/aaa/.arduino15/packages/arduino/tools/arm-none-eabi-gcc/4.8.3-2014q1/bin/../lib/gcc/arm-none-eabi/4.8.3/../../../../arm-none-eabi/lib/armv7-m/libg.a(lib_a-__call_atexit.o)
                                                  /home/aaa/.arduino15/packages/arduino/tools/arm-none-eabi-gcc/4.8.3-2014q1/bin/../lib/gcc/arm-none-eabi/4.8.3/../../../../arm-none-eabi/lib/armv7-m/libg.a(lib_a-exit.o)
_impure_ptr                                       /home/aaa/.arduino15/packages/arduino/tools/arm-none-eabi-gcc/4.8.3-2014q1/bin/../lib/gcc/arm-none-eabi/4.8.3/../../../../arm-none-eabi/lib/armv7-m/libg.a(lib_a-impure.o)
                                                  /home/aaa/.arduino15/packages/arduino/tools/arm-none-eabi-gcc/4.8.3-2014q1/bin/../lib/gcc/arm-none-eabi/4.8.3/../../../../arm-none-eabi/lib/armv7-m/libg.a(lib_a-reent.o)
                                                  /home/aaa/.arduino15/packages/arduino/tools/arm-none-eabi-gcc/4.8.3-2014q1/bin/../lib/gcc/arm-none-eabi/4.8.3/../../../../arm-none-eabi/lib/armv7-m/libg.a(lib_a-fclose.o)
                                                  /home/aaa/.arduino15/packages/arduino/tools/arm-none-eabi-gcc/4.8.3-2014q1/bin/../lib/gcc/arm-none-eabi/4.8.3/../../../../arm-none-eabi/lib/armv7-m/libg.a(lib_a-wcrtomb.o)
                                                  /home/aaa/.arduino15/packages/arduino/tools/arm-none-eabi-gcc/4.8.3-2014q1/bin/../lib/gcc/arm-none-eabi/4.8.3/../../../../arm-none-eabi/lib/armv7-m/libg.a(lib_a-wbuf.o)
                                                  /home/aaa/.arduino15/packages/arduino/tools/arm-none-eabi-gcc/4.8.3-2014q1/bin/../lib/gcc/arm-none-eabi/4.8.3/../../../../arm-none-eabi/lib/armv7-m/libg.a(lib_a-signal.o)
                                                  /home/aaa/.arduino15/packages/arduino/tools/arm-none-eabi-gcc/4.8.3-2014q1/bin/../lib/gcc/arm-none-eabi/4.8.3/../../../../arm-none-eabi/lib/armv7-m/libg.a(lib_a-locale.o)
                                                  /home/aaa/.arduino15/packages/arduino/tools/arm-none-eabi-gcc/4.8.3-2014q1/bin/../lib/gcc/arm-none-eabi/4.8.3/../../../../arm-none-eabi/lib/armv7-m/libg.a(lib_a-fputwc.o)
                                                  /home/aaa/.arduino15/packages/arduino/tools/arm-none-eabi-gcc/4.8.3-2014q1/bin/../lib/gcc/arm-none-eabi/4.8.3/../../../../arm-none-eabi/lib/armv7-m/libg.a(lib_a-findfp.o)
                                                  /home/aaa/.arduino15/packages/arduino/tools/arm-none-eabi-gcc/4.8.3-2014q1/bin/../lib/gcc/arm-none-eabi/4.8.3/../../../../arm-none-eabi/lib/armv7-m/libg.a(lib_a-fflush.o)
                                                  /home/aaa/.arduino15/packages/arduino/tools/arm-none-eabi-gcc/4.8.3-2014q1/bin/../lib/gcc/arm-none-eabi/4.8.3/../../../../arm-none-eabi/lib/armv7-m/libg.a(lib_a-wsetup.o)
                                                  /home/aaa/.arduino15/packages/arduino/tools/arm-none-eabi-gcc/4.8.3-2014q1/bin/../lib/gcc/arm-none-eabi/4.8.3/../../../../arm-none-eabi/lib/armv7-m/libg.a(lib_a-vfiprintf.o)
                                                  /home/aaa/.arduino15/packages/arduino/tools/arm-none-eabi-gcc/4.8.3-2014q1/bin/../lib/gcc/arm-none-eabi/4.8.3/../../../../arm-none-eabi/lib/armv7-m/libg.a(lib_a-syskill.o)
                                                  /home/aaa/.arduino15/packages/arduino/tools/arm-none-eabi-gcc/4.8.3-2014q1/bin/../lib/gcc/arm-none-eabi/4.8.3/../../../../arm-none-eabi/lib/armv7-m/libg.a(lib_a-fiprintf.o)
                                                  /home/aaa/.arduino15/packages/arduino/tools/arm-none-eabi-gcc/4.8.3-2014q1/bin/../lib/gcc/arm-none-eabi/4.8.3/../../../../arm-none-eabi/lib/armv7-m/libg.a(lib_a-assert.o)
_init                                             /home/aaa/.arduino15/packages/arduino/tools/arm-none-eabi-gcc/4.8.3-2014q1/bin/../lib/gcc/arm-none-eabi/4.8.3/armv7-m/crti.o
                                                  /home/aaa/.arduino15/packages/arduino/tools/arm-none-eabi-gcc/4.8.3-2014q1/bin/../lib/gcc/arm-none-eabi/4.8.3/../../../../arm-none-eabi/lib/armv7-m/libg.a(lib_a-init.o)
_init_signal                                      /home/aaa/.arduino15/packages/arduino/tools/arm-none-eabi-gcc/4.8.3-2014q1/bin/../lib/gcc/arm-none-eabi/4.8.3/../../../../arm-none-eabi/lib/armv7-m/libg.a(lib_a-signal.o)
_init_signal_r                                    /home/aaa/.arduino15/packages/arduino/tools/arm-none-eabi-gcc/4.8.3-2014q1/bin/../lib/gcc/arm-none-eabi/4.8.3/../../../../arm-none-eabi/lib/armv7-m/libg.a(lib_a-signal.o)
_isatty                                           /home/aaa/llvm-arduino-due/build/core.a(syscalls_sam3.c.o)
                                                  /home/aaa/.arduino15/packages/arduino/tools/arm-none-eabi-gcc/4.8.3-2014q1/bin/../lib/gcc/arm-none-eabi/4.8.3/../../../../arm-none-eabi/lib/armv7-m/libg.a(lib_a-isattyr.o)
_isatty_r                                         /home/aaa/.arduino15/packages/arduino/tools/arm-none-eabi-gcc/4.8.3-2014q1/bin/../lib/gcc/arm-none-eabi/4.8.3/../../../../arm-none-eabi/lib/armv7-m/libg.a(lib_a-isattyr.o)
                                                  /home/aaa/.arduino15/packages/arduino/tools/arm-none-eabi-gcc/4.8.3-2014q1/bin/../lib/gcc/arm-none-eabi/4.8.3/../../../../arm-none-eabi/lib/armv7-m/libg.a(lib_a-makebuf.o)
_kill                                             /home/aaa/llvm-arduino-due/build/core.a(syscalls_sam3.c.o)
                                                  /home/aaa/.arduino15/packages/arduino/tools/arm-none-eabi-gcc/4.8.3-2014q1/bin/../lib/gcc/arm-none-eabi/4.8.3/../../../../arm-none-eabi/lib/armv7-m/libg.a(lib_a-signalr.o)
_kill_r                                           /home/aaa/.arduino15/packages/arduino/tools/arm-none-eabi-gcc/4.8.3-2014q1/bin/../lib/gcc/arm-none-eabi/4.8.3/../../../../arm-none-eabi/lib/armv7-m/libg.a(lib_a-signalr.o)
                                                  /home/aaa/.arduino15/packages/arduino/tools/arm-none-eabi-gcc/4.8.3-2014q1/bin/../lib/gcc/arm-none-eabi/4.8.3/../../../../arm-none-eabi/lib/armv7-m/libg.a(lib_a-signal.o)
                                                  /home/aaa/.arduino15/packages/arduino/tools/arm-none-eabi-gcc/4.8.3-2014q1/bin/../lib/gcc/arm-none-eabi/4.8.3/../../../../arm-none-eabi/lib/armv7-m/libg.a(lib_a-syskill.o)
_localeconv_r                                     /home/aaa/.arduino15/packages/arduino/tools/arm-none-eabi-gcc/4.8.3-2014q1/bin/../lib/gcc/arm-none-eabi/4.8.3/../../../../arm-none-eabi/lib/armv7-m/libg.a(lib_a-locale.o)
_lseek                                            /home/aaa/llvm-arduino-due/build/core.a(syscalls_sam3.c.o)
                                                  /home/aaa/.arduino15/packages/arduino/tools/arm-none-eabi-gcc/4.8.3-2014q1/bin/../lib/gcc/arm-none-eabi/4.8.3/../../../../arm-none-eabi/lib/armv7-m/libg.a(lib_a-lseekr.o)
_lseek_r                                          /home/aaa/.arduino15/packages/arduino/tools/arm-none-eabi-gcc/4.8.3-2014q1/bin/../lib/gcc/arm-none-eabi/4.8.3/../../../../arm-none-eabi/lib/armv7-m/libg.a(lib_a-lseekr.o)
                                                  /home/aaa/.arduino15/packages/arduino/tools/arm-none-eabi-gcc/4.8.3-2014q1/bin/../lib/gcc/arm-none-eabi/4.8.3/../../../../arm-none-eabi/lib/armv7-m/libg.a(lib_a-stdio.o)
_mainCRTStartup                                   /home/aaa/.arduino15/packages/arduino/tools/arm-none-eabi-gcc/4.8.3-2014q1/bin/../lib/gcc/arm-none-eabi/4.8.3/../../../../arm-none-eabi/lib/armv7-m/crt0.o
_malloc_r                                         /home/aaa/.arduino15/packages/arduino/tools/arm-none-eabi-gcc/4.8.3-2014q1/bin/../lib/gcc/arm-none-eabi/4.8.3/../../../../arm-none-eabi/lib/armv7-m/libg.a(lib_a-mallocr.o)
                                                  /home/aaa/.arduino15/packages/arduino/tools/arm-none-eabi-gcc/4.8.3-2014q1/bin/../lib/gcc/arm-none-eabi/4.8.3/../../../../arm-none-eabi/lib/armv7-m/libg.a(lib_a-signal.o)
                                                  /home/aaa/.arduino15/packages/arduino/tools/arm-none-eabi-gcc/4.8.3-2014q1/bin/../lib/gcc/arm-none-eabi/4.8.3/../../../../arm-none-eabi/lib/armv7-m/libg.a(lib_a-reallocr.o)
                                                  /home/aaa/.arduino15/packages/arduino/tools/arm-none-eabi-gcc/4.8.3-2014q1/bin/../lib/gcc/arm-none-eabi/4.8.3/../../../../arm-none-eabi/lib/armv7-m/libg.a(lib_a-makebuf.o)
                                                  /home/aaa/.arduino15/packages/arduino/tools/arm-none-eabi-gcc/4.8.3-2014q1/bin/../lib/gcc/arm-none-eabi/4.8.3/../../../../arm-none-eabi/lib/armv7-m/libg.a(lib_a-fvwrite.o)
                                                  /home/aaa/.arduino15/packages/arduino/tools/arm-none-eabi-gcc/4.8.3-2014q1/bin/../lib/gcc/arm-none-eabi/4.8.3/../../../../arm-none-eabi/lib/armv7-m/libg.a(lib_a-findfp.o)
_malloc_trim_r                                    /home/aaa/.arduino15/packages/arduino/tools/arm-none-eabi-gcc/4.8.3-2014q1/bin/../lib/gcc/arm-none-eabi/4.8.3/../../../../arm-none-eabi/lib/armv7-m/libg.a(lib_a-freer.o)
_raise_r                                          /home/aaa/.arduino15/packages/arduino/tools/arm-none-eabi-gcc/4.8.3-2014q1/bin/../lib/gcc/arm-none-eabi/4.8.3/../../../../arm-none-eabi/lib/armv7-m/libg.a(lib_a-signal.o)
_read                                             /home/aaa/llvm-arduino-due/build/core.a(syscalls_sam3.c.o)
                                                  /home/aaa/.arduino15/packages/arduino/tools/arm-none-eabi-gcc/4.8.3-2014q1/bin/../lib/gcc/arm-none-eabi/4.8.3/../../../../arm-none-eabi/lib/armv7-m/libg.a(lib_a-readr.o)
_read_r                                           /home/aaa/.arduino15/packages/arduino/tools/arm-none-eabi-gcc/4.8.3-2014q1/bin/../lib/gcc/arm-none-eabi/4.8.3/../../../../arm-none-eabi/lib/armv7-m/libg.a(lib_a-readr.o)
                                                  /home/aaa/.arduino15/packages/arduino/tools/arm-none-eabi-gcc/4.8.3-2014q1/bin/../lib/gcc/arm-none-eabi/4.8.3/../../../../arm-none-eabi/lib/armv7-m/libg.a(lib_a-stdio.o)
_realloc_r                                        /home/aaa/.arduino15/packages/arduino/tools/arm-none-eabi-gcc/4.8.3-2014q1/bin/../lib/gcc/arm-none-eabi/4.8.3/../../../../arm-none-eabi/lib/armv7-m/libg.a(lib_a-reallocr.o)
                                                  /home/aaa/.arduino15/packages/arduino/tools/arm-none-eabi-gcc/4.8.3-2014q1/bin/../lib/gcc/arm-none-eabi/4.8.3/../../../../arm-none-eabi/lib/armv7-m/libg.a(lib_a-fvwrite.o)
_reclaim_reent                                    /home/aaa/.arduino15/packages/arduino/tools/arm-none-eabi-gcc/4.8.3-2014q1/bin/../lib/gcc/arm-none-eabi/4.8.3/../../../../arm-none-eabi/lib/armv7-m/libg.a(lib_a-reent.o)
_sbrk                                             /home/aaa/llvm-arduino-due/build/core.a(syscalls_sam3.c.o)
                                                  /home/aaa/.arduino15/packages/arduino/tools/arm-none-eabi-gcc/4.8.3-2014q1/bin/../lib/gcc/arm-none-eabi/4.8.3/../../../../arm-none-eabi/lib/armv7-m/libg.a(lib_a-sbrkr.o)
_sbrk_r                                           /home/aaa/.arduino15/packages/arduino/tools/arm-none-eabi-gcc/4.8.3-2014q1/bin/../lib/gcc/arm-none-eabi/4.8.3/../../../../arm-none-eabi/lib/armv7-m/libg.a(lib_a-sbrkr.o)
                                                  /home/aaa/.arduino15/packages/arduino/tools/arm-none-eabi-gcc/4.8.3-2014q1/bin/../lib/gcc/arm-none-eabi/4.8.3/../../../../arm-none-eabi/lib/armv7-m/libg.a(lib_a-mallocr.o)
                                                  /home/aaa/.arduino15/packages/arduino/tools/arm-none-eabi-gcc/4.8.3-2014q1/bin/../lib/gcc/arm-none-eabi/4.8.3/../../../../arm-none-eabi/lib/armv7-m/libg.a(lib_a-freer.o)
_serialPeek                                       /home/aaa/llvm-arduino-due/build/core.a(CDC.cpp.o)
_setlocale_r                                      /home/aaa/.arduino15/packages/arduino/tools/arm-none-eabi-gcc/4.8.3-2014q1/bin/../lib/gcc/arm-none-eabi/4.8.3/../../../../arm-none-eabi/lib/armv7-m/libg.a(lib_a-locale.o)
_sfixed                                           /home/aaa/.arduino15/packages/arduino/hardware/sam/1.6.12/variants/arduino_due_x/libsam_sam3x8e_gcc_rel.a(startup_sam3xa.o)
_signal_r                                         /home/aaa/.arduino15/packages/arduino/tools/arm-none-eabi-gcc/4.8.3-2014q1/bin/../lib/gcc/arm-none-eabi/4.8.3/../../../../arm-none-eabi/lib/armv7-m/libg.a(lib_a-signal.o)
_srelocate                                        /home/aaa/.arduino15/packages/arduino/hardware/sam/1.6.12/variants/arduino_due_x/libsam_sam3x8e_gcc_rel.a(startup_sam3xa.o)
_start                                            /home/aaa/.arduino15/packages/arduino/tools/arm-none-eabi-gcc/4.8.3-2014q1/bin/../lib/gcc/arm-none-eabi/4.8.3/../../../../arm-none-eabi/lib/armv7-m/crt0.o
_szero                                            /home/aaa/.arduino15/packages/arduino/hardware/sam/1.6.12/variants/arduino_due_x/libsam_sam3x8e_gcc_rel.a(startup_sam3xa.o)
_usbConfiguration                                 /home/aaa/llvm-arduino-due/build/core.a(USBCore.cpp.o)
_usbInitialized                                   /home/aaa/llvm-arduino-due/build/core.a(USBCore.cpp.o)
_usbSetInterface                                  /home/aaa/llvm-arduino-due/build/core.a(USBCore.cpp.o)
_vfiprintf_r                                      /home/aaa/.arduino15/packages/arduino/tools/arm-none-eabi-gcc/4.8.3-2014q1/bin/../lib/gcc/arm-none-eabi/4.8.3/../../../../arm-none-eabi/lib/armv7-m/libg.a(lib_a-vfiprintf.o)
                                                  /home/aaa/.arduino15/packages/arduino/tools/arm-none-eabi-gcc/4.8.3-2014q1/bin/../lib/gcc/arm-none-eabi/4.8.3/../../../../arm-none-eabi/lib/armv7-m/libg.a(lib_a-fiprintf.o)
_watchdogDefaultSetup                             /home/aaa/llvm-arduino-due/build/core.a(watchdog.cpp.o)
_wcrtomb_r                                        /home/aaa/.arduino15/packages/arduino/tools/arm-none-eabi-gcc/4.8.3-2014q1/bin/../lib/gcc/arm-none-eabi/4.8.3/../../../../arm-none-eabi/lib/armv7-m/libg.a(lib_a-wcrtomb.o)
                                                  /home/aaa/.arduino15/packages/arduino/tools/arm-none-eabi-gcc/4.8.3-2014q1/bin/../lib/gcc/arm-none-eabi/4.8.3/../../../../arm-none-eabi/lib/armv7-m/libg.a(lib_a-fputwc.o)
_wctomb_r                                         /home/aaa/.arduino15/packages/arduino/tools/arm-none-eabi-gcc/4.8.3-2014q1/bin/../lib/gcc/arm-none-eabi/4.8.3/../../../../arm-none-eabi/lib/armv7-m/libg.a(lib_a-wctomb_r.o)
_write                                            /home/aaa/llvm-arduino-due/build/core.a(syscalls_sam3.c.o)
                                                  /home/aaa/.arduino15/packages/arduino/tools/arm-none-eabi-gcc/4.8.3-2014q1/bin/../lib/gcc/arm-none-eabi/4.8.3/../../../../arm-none-eabi/lib/armv7-m/libg.a(lib_a-writer.o)
_write_r                                          /home/aaa/.arduino15/packages/arduino/tools/arm-none-eabi-gcc/4.8.3-2014q1/bin/../lib/gcc/arm-none-eabi/4.8.3/../../../../arm-none-eabi/lib/armv7-m/libg.a(lib_a-writer.o)
                                                  /home/aaa/.arduino15/packages/arduino/tools/arm-none-eabi-gcc/4.8.3-2014q1/bin/../lib/gcc/arm-none-eabi/4.8.3/../../../../arm-none-eabi/lib/armv7-m/libg.a(lib_a-stdio.o)
abort                                             /home/aaa/.arduino15/packages/arduino/tools/arm-none-eabi-gcc/4.8.3-2014q1/bin/../lib/gcc/arm-none-eabi/4.8.3/../../../../arm-none-eabi/lib/armv7-m/libg.a(lib_a-abort.o)
                                                  /home/aaa/.arduino15/packages/arduino/tools/arm-none-eabi-gcc/4.8.3-2014q1/bin/../lib/gcc/arm-none-eabi/4.8.3/../../../../arm-none-eabi/lib/armv7-m/libg.a(lib_a-assert.o)
adc_configure_power_save                          /home/aaa/.arduino15/packages/arduino/hardware/sam/1.6.12/variants/arduino_due_x/libsam_sam3x8e_gcc_rel.a(adc.o)
adc_configure_sequence                            /home/aaa/.arduino15/packages/arduino/hardware/sam/1.6.12/variants/arduino_due_x/libsam_sam3x8e_gcc_rel.a(adc.o)
adc_configure_timing                              /home/aaa/.arduino15/packages/arduino/hardware/sam/1.6.12/variants/arduino_due_x/libsam_sam3x8e_gcc_rel.a(adc.o)
                                                  /home/aaa/llvm-arduino-due/build/core/variant.cpp.o
adc_configure_trigger                             /home/aaa/.arduino15/packages/arduino/hardware/sam/1.6.12/variants/arduino_due_x/libsam_sam3x8e_gcc_rel.a(adc.o)
                                                  /home/aaa/llvm-arduino-due/build/core/variant.cpp.o
adc_disable_all_channel                           /home/aaa/.arduino15/packages/arduino/hardware/sam/1.6.12/variants/arduino_due_x/libsam_sam3x8e_gcc_rel.a(adc.o)
                                                  /home/aaa/llvm-arduino-due/build/core/variant.cpp.o
adc_disable_anch                                  /home/aaa/.arduino15/packages/arduino/hardware/sam/1.6.12/variants/arduino_due_x/libsam_sam3x8e_gcc_rel.a(adc.o)
adc_disable_channel                               /home/aaa/.arduino15/packages/arduino/hardware/sam/1.6.12/variants/arduino_due_x/libsam_sam3x8e_gcc_rel.a(adc.o)
                                                  /home/aaa/llvm-arduino-due/build/core.a(wiring_digital.c.o)
                                                  /home/aaa/llvm-arduino-due/build/core.a(wiring_analog.c.o)
adc_disable_channel_differential_input            /home/aaa/.arduino15/packages/arduino/hardware/sam/1.6.12/variants/arduino_due_x/libsam_sam3x8e_gcc_rel.a(adc.o)
adc_disable_channel_input_offset                  /home/aaa/.arduino15/packages/arduino/hardware/sam/1.6.12/variants/arduino_due_x/libsam_sam3x8e_gcc_rel.a(adc.o)
adc_disable_interrupt                             /home/aaa/.arduino15/packages/arduino/hardware/sam/1.6.12/variants/arduino_due_x/libsam_sam3x8e_gcc_rel.a(adc.o)
                                                  /home/aaa/llvm-arduino-due/build/core/variant.cpp.o
adc_disable_tag                                   /home/aaa/.arduino15/packages/arduino/hardware/sam/1.6.12/variants/arduino_due_x/libsam_sam3x8e_gcc_rel.a(adc.o)
adc_disable_ts                                    /home/aaa/.arduino15/packages/arduino/hardware/sam/1.6.12/variants/arduino_due_x/libsam_sam3x8e_gcc_rel.a(adc.o)
adc_enable_all_channel                            /home/aaa/.arduino15/packages/arduino/hardware/sam/1.6.12/variants/arduino_due_x/libsam_sam3x8e_gcc_rel.a(adc.o)
adc_enable_anch                                   /home/aaa/.arduino15/packages/arduino/hardware/sam/1.6.12/variants/arduino_due_x/libsam_sam3x8e_gcc_rel.a(adc.o)
adc_enable_channel                                /home/aaa/.arduino15/packages/arduino/hardware/sam/1.6.12/variants/arduino_due_x/libsam_sam3x8e_gcc_rel.a(adc.o)
                                                  /home/aaa/llvm-arduino-due/build/core.a(wiring_analog.c.o)
adc_enable_channel_differential_input             /home/aaa/.arduino15/packages/arduino/hardware/sam/1.6.12/variants/arduino_due_x/libsam_sam3x8e_gcc_rel.a(adc.o)
adc_enable_channel_input_offset                   /home/aaa/.arduino15/packages/arduino/hardware/sam/1.6.12/variants/arduino_due_x/libsam_sam3x8e_gcc_rel.a(adc.o)
adc_enable_interrupt                              /home/aaa/.arduino15/packages/arduino/hardware/sam/1.6.12/variants/arduino_due_x/libsam_sam3x8e_gcc_rel.a(adc.o)
adc_enable_tag                                    /home/aaa/.arduino15/packages/arduino/hardware/sam/1.6.12/variants/arduino_due_x/libsam_sam3x8e_gcc_rel.a(adc.o)
adc_enable_ts                                     /home/aaa/.arduino15/packages/arduino/hardware/sam/1.6.12/variants/arduino_due_x/libsam_sam3x8e_gcc_rel.a(adc.o)
adc_get_actual_adc_clock                          /home/aaa/.arduino15/packages/arduino/hardware/sam/1.6.12/variants/arduino_due_x/libsam_sam3x8e_gcc_rel.a(adc.o)
adc_get_channel_status                            /home/aaa/.arduino15/packages/arduino/hardware/sam/1.6.12/variants/arduino_due_x/libsam_sam3x8e_gcc_rel.a(adc.o)
                                                  /home/aaa/llvm-arduino-due/build/core.a(wiring_analog.c.o)
adc_get_channel_value                             /home/aaa/.arduino15/packages/arduino/hardware/sam/1.6.12/variants/arduino_due_x/libsam_sam3x8e_gcc_rel.a(adc.o)
adc_get_comparison_mode                           /home/aaa/.arduino15/packages/arduino/hardware/sam/1.6.12/variants/arduino_due_x/libsam_sam3x8e_gcc_rel.a(adc.o)
adc_get_interrupt_mask                            /home/aaa/.arduino15/packages/arduino/hardware/sam/1.6.12/variants/arduino_due_x/libsam_sam3x8e_gcc_rel.a(adc.o)
adc_get_latest_value                              /home/aaa/.arduino15/packages/arduino/hardware/sam/1.6.12/variants/arduino_due_x/libsam_sam3x8e_gcc_rel.a(adc.o)
                                                  /home/aaa/llvm-arduino-due/build/core.a(wiring_analog.c.o)
adc_get_overrun_status                            /home/aaa/.arduino15/packages/arduino/hardware/sam/1.6.12/variants/arduino_due_x/libsam_sam3x8e_gcc_rel.a(adc.o)
adc_get_pdc_base                                  /home/aaa/.arduino15/packages/arduino/hardware/sam/1.6.12/variants/arduino_due_x/libsam_sam3x8e_gcc_rel.a(adc.o)
adc_get_status                                    /home/aaa/.arduino15/packages/arduino/hardware/sam/1.6.12/variants/arduino_due_x/libsam_sam3x8e_gcc_rel.a(adc.o)
                                                  /home/aaa/llvm-arduino-due/build/core.a(wiring_analog.c.o)
adc_get_tag                                       /home/aaa/.arduino15/packages/arduino/hardware/sam/1.6.12/variants/arduino_due_x/libsam_sam3x8e_gcc_rel.a(adc.o)
adc_get_writeprotect_status                       /home/aaa/.arduino15/packages/arduino/hardware/sam/1.6.12/variants/arduino_due_x/libsam_sam3x8e_gcc_rel.a(adc.o)
adc_init                                          /home/aaa/.arduino15/packages/arduino/hardware/sam/1.6.12/variants/arduino_due_x/libsam_sam3x8e_gcc_rel.a(adc.o)
                                                  /home/aaa/llvm-arduino-due/build/core/variant.cpp.o
adc_set_bias_current                              /home/aaa/.arduino15/packages/arduino/hardware/sam/1.6.12/variants/arduino_due_x/libsam_sam3x8e_gcc_rel.a(adc.o)
adc_set_channel_input_gain                        /home/aaa/.arduino15/packages/arduino/hardware/sam/1.6.12/variants/arduino_due_x/libsam_sam3x8e_gcc_rel.a(adc.o)
adc_set_comparison_channel                        /home/aaa/.arduino15/packages/arduino/hardware/sam/1.6.12/variants/arduino_due_x/libsam_sam3x8e_gcc_rel.a(adc.o)
adc_set_comparison_mode                           /home/aaa/.arduino15/packages/arduino/hardware/sam/1.6.12/variants/arduino_due_x/libsam_sam3x8e_gcc_rel.a(adc.o)
adc_set_comparison_window                         /home/aaa/.arduino15/packages/arduino/hardware/sam/1.6.12/variants/arduino_due_x/libsam_sam3x8e_gcc_rel.a(adc.o)
adc_set_resolution                                /home/aaa/.arduino15/packages/arduino/hardware/sam/1.6.12/variants/arduino_due_x/libsam_sam3x8e_gcc_rel.a(adc.o)
adc_set_writeprotect                              /home/aaa/.arduino15/packages/arduino/hardware/sam/1.6.12/variants/arduino_due_x/libsam_sam3x8e_gcc_rel.a(adc.o)
adc_start                                         /home/aaa/.arduino15/packages/arduino/hardware/sam/1.6.12/variants/arduino_due_x/libsam_sam3x8e_gcc_rel.a(adc.o)
                                                  /home/aaa/llvm-arduino-due/build/core.a(wiring_analog.c.o)
adc_start_sequencer                               /home/aaa/.arduino15/packages/arduino/hardware/sam/1.6.12/variants/arduino_due_x/libsam_sam3x8e_gcc_rel.a(adc.o)
adc_stop                                          /home/aaa/.arduino15/packages/arduino/hardware/sam/1.6.12/variants/arduino_due_x/libsam_sam3x8e_gcc_rel.a(adc.o)
adc_stop_sequencer                                /home/aaa/.arduino15/packages/arduino/hardware/sam/1.6.12/variants/arduino_due_x/libsam_sam3x8e_gcc_rel.a(adc.o)
analogOutputInit                                  /home/aaa/llvm-arduino-due/build/core.a(wiring_analog.c.o)
                                                  /home/aaa/llvm-arduino-due/build/core/variant.cpp.o
analogRead                                        /home/aaa/llvm-arduino-due/build/core.a(wiring_analog.c.o)
analogReadResolution                              /home/aaa/llvm-arduino-due/build/core.a(wiring_analog.c.o)
analogReference                                   /home/aaa/llvm-arduino-due/build/core.a(wiring_analog.c.o)
analogWrite                                       /home/aaa/llvm-arduino-due/build/core.a(wiring_analog.c.o)
analogWriteResolution                             /home/aaa/llvm-arduino-due/build/core.a(wiring_analog.c.o)
analog_reference                                  /home/aaa/llvm-arduino-due/build/core.a(wiring_analog.c.o)
atexit                                            /home/aaa/.arduino15/packages/arduino/tools/arm-none-eabi-gcc/4.8.3-2014q1/bin/../lib/gcc/arm-none-eabi/4.8.3/../../../../arm-none-eabi/lib/armv7-m/libg.a(lib_a-atexit.o)
                                                  /home/aaa/.arduino15/packages/arduino/tools/arm-none-eabi-gcc/4.8.3-2014q1/bin/../lib/gcc/arm-none-eabi/4.8.3/../../../../arm-none-eabi/lib/armv7-m/libg.a(lib_a-__call_atexit.o)
                                                  /home/aaa/.arduino15/packages/arduino/tools/arm-none-eabi-gcc/4.8.3-2014q1/bin/../lib/gcc/arm-none-eabi/4.8.3/../../../../arm-none-eabi/lib/armv7-m/crt0.o
banzai                                            /home/aaa/llvm-arduino-due/build/core.a(Reset.cpp.o)
cancelReset                                       /home/aaa/llvm-arduino-due/build/core.a(Reset.cpp.o)
                                                  /home/aaa/llvm-arduino-due/build/core.a(CDC.cpp.o)
cdc_rx_buffer                                     /home/aaa/llvm-arduino-due/build/core.a(CDC.cpp.o)
cleanup_glue                                      /home/aaa/.arduino15/packages/arduino/tools/arm-none-eabi-gcc/4.8.3-2014q1/bin/../lib/gcc/arm-none-eabi/4.8.3/../../../../arm-none-eabi/lib/armv7-m/libg.a(lib_a-reent.o)
dacc_disable_channel                              /home/aaa/.arduino15/packages/arduino/hardware/sam/1.6.12/variants/arduino_due_x/libsam_sam3x8e_gcc_rel.a(dacc.o)
dacc_disable_interrupt                            /home/aaa/.arduino15/packages/arduino/hardware/sam/1.6.12/variants/arduino_due_x/libsam_sam3x8e_gcc_rel.a(dacc.o)
dacc_disable_trigger                              /home/aaa/.arduino15/packages/arduino/hardware/sam/1.6.12/variants/arduino_due_x/libsam_sam3x8e_gcc_rel.a(dacc.o)
dacc_enable_channel                               /home/aaa/.arduino15/packages/arduino/hardware/sam/1.6.12/variants/arduino_due_x/libsam_sam3x8e_gcc_rel.a(dacc.o)
                                                  /home/aaa/llvm-arduino-due/build/core.a(wiring_analog.c.o)
dacc_enable_flexible_selection                    /home/aaa/.arduino15/packages/arduino/hardware/sam/1.6.12/variants/arduino_due_x/libsam_sam3x8e_gcc_rel.a(dacc.o)
dacc_enable_interrupt                             /home/aaa/.arduino15/packages/arduino/hardware/sam/1.6.12/variants/arduino_due_x/libsam_sam3x8e_gcc_rel.a(dacc.o)
dacc_get_analog_control                           /home/aaa/.arduino15/packages/arduino/hardware/sam/1.6.12/variants/arduino_due_x/libsam_sam3x8e_gcc_rel.a(dacc.o)
dacc_get_channel_status                           /home/aaa/.arduino15/packages/arduino/hardware/sam/1.6.12/variants/arduino_due_x/libsam_sam3x8e_gcc_rel.a(dacc.o)
                                                  /home/aaa/llvm-arduino-due/build/core.a(wiring_analog.c.o)
dacc_get_interrupt_mask                           /home/aaa/.arduino15/packages/arduino/hardware/sam/1.6.12/variants/arduino_due_x/libsam_sam3x8e_gcc_rel.a(dacc.o)
dacc_get_interrupt_status                         /home/aaa/.arduino15/packages/arduino/hardware/sam/1.6.12/variants/arduino_due_x/libsam_sam3x8e_gcc_rel.a(dacc.o)
                                                  /home/aaa/llvm-arduino-due/build/core.a(wiring_analog.c.o)
dacc_get_pdc_base                                 /home/aaa/.arduino15/packages/arduino/hardware/sam/1.6.12/variants/arduino_due_x/libsam_sam3x8e_gcc_rel.a(dacc.o)
dacc_get_writeprotect_status                      /home/aaa/.arduino15/packages/arduino/hardware/sam/1.6.12/variants/arduino_due_x/libsam_sam3x8e_gcc_rel.a(dacc.o)
dacc_reset                                        /home/aaa/.arduino15/packages/arduino/hardware/sam/1.6.12/variants/arduino_due_x/libsam_sam3x8e_gcc_rel.a(dacc.o)
                                                  /home/aaa/llvm-arduino-due/build/core.a(wiring_analog.c.o)
dacc_set_analog_control                           /home/aaa/.arduino15/packages/arduino/hardware/sam/1.6.12/variants/arduino_due_x/libsam_sam3x8e_gcc_rel.a(dacc.o)
                                                  /home/aaa/llvm-arduino-due/build/core.a(wiring_analog.c.o)
dacc_set_channel_selection                        /home/aaa/.arduino15/packages/arduino/hardware/sam/1.6.12/variants/arduino_due_x/libsam_sam3x8e_gcc_rel.a(dacc.o)
                                                  /home/aaa/llvm-arduino-due/build/core.a(wiring_analog.c.o)
dacc_set_power_save                               /home/aaa/.arduino15/packages/arduino/hardware/sam/1.6.12/variants/arduino_due_x/libsam_sam3x8e_gcc_rel.a(dacc.o)
                                                  /home/aaa/llvm-arduino-due/build/core.a(wiring_analog.c.o)
dacc_set_timing                                   /home/aaa/.arduino15/packages/arduino/hardware/sam/1.6.12/variants/arduino_due_x/libsam_sam3x8e_gcc_rel.a(dacc.o)
                                                  /home/aaa/llvm-arduino-due/build/core.a(wiring_analog.c.o)
dacc_set_transfer_mode                            /home/aaa/.arduino15/packages/arduino/hardware/sam/1.6.12/variants/arduino_due_x/libsam_sam3x8e_gcc_rel.a(dacc.o)
                                                  /home/aaa/llvm-arduino-due/build/core.a(wiring_analog.c.o)
dacc_set_trigger                                  /home/aaa/.arduino15/packages/arduino/hardware/sam/1.6.12/variants/arduino_due_x/libsam_sam3x8e_gcc_rel.a(dacc.o)
dacc_set_writeprotect                             /home/aaa/.arduino15/packages/arduino/hardware/sam/1.6.12/variants/arduino_due_x/libsam_sam3x8e_gcc_rel.a(dacc.o)
dacc_write_conversion_data                        /home/aaa/.arduino15/packages/arduino/hardware/sam/1.6.12/variants/arduino_due_x/libsam_sam3x8e_gcc_rel.a(dacc.o)
                                                  /home/aaa/llvm-arduino-due/build/core.a(wiring_analog.c.o)
delay                                             /home/aaa/llvm-arduino-due/build/core.a(wiring.c.o)
                                                  /home/aaa/llvm-arduino-due/build/core.a(CDC.cpp.o)
                                                  /home/aaa/llvm-arduino-due/build/core.a(USBCore.cpp.o)
                                                  /home/aaa/llvm-arduino-due/build/Blink.ino.cpp.o
digitalRead                                       /home/aaa/llvm-arduino-due/build/core.a(wiring_digital.c.o)
digitalWrite                                      /home/aaa/llvm-arduino-due/build/core.a(wiring_digital.c.o)
                                                  /home/aaa/llvm-arduino-due/build/core.a(wiring_analog.c.o)
                                                  /home/aaa/llvm-arduino-due/build/core/variant.cpp.o
errno                                             /home/aaa/.arduino15/packages/arduino/tools/arm-none-eabi-gcc/4.8.3-2014q1/bin/../lib/gcc/arm-none-eabi/4.8.3/../../../../arm-none-eabi/lib/armv7-m/libg.a(lib_a-reent.o)
                                                  /home/aaa/.arduino15/packages/arduino/tools/arm-none-eabi-gcc/4.8.3-2014q1/bin/../lib/gcc/arm-none-eabi/4.8.3/../../../../arm-none-eabi/lib/armv7-m/libg.a(lib_a-readr.o)
                                                  /home/aaa/.arduino15/packages/arduino/tools/arm-none-eabi-gcc/4.8.3-2014q1/bin/../lib/gcc/arm-none-eabi/4.8.3/../../../../arm-none-eabi/lib/armv7-m/libg.a(lib_a-lseekr.o)
                                                  /home/aaa/.arduino15/packages/arduino/tools/arm-none-eabi-gcc/4.8.3-2014q1/bin/../lib/gcc/arm-none-eabi/4.8.3/../../../../arm-none-eabi/lib/armv7-m/libg.a(lib_a-isattyr.o)
                                                  /home/aaa/.arduino15/packages/arduino/tools/arm-none-eabi-gcc/4.8.3-2014q1/bin/../lib/gcc/arm-none-eabi/4.8.3/../../../../arm-none-eabi/lib/armv7-m/libg.a(lib_a-fstatr.o)
                                                  /home/aaa/.arduino15/packages/arduino/tools/arm-none-eabi-gcc/4.8.3-2014q1/bin/../lib/gcc/arm-none-eabi/4.8.3/../../../../arm-none-eabi/lib/armv7-m/libg.a(lib_a-closer.o)
                                                  /home/aaa/.arduino15/packages/arduino/tools/arm-none-eabi-gcc/4.8.3-2014q1/bin/../lib/gcc/arm-none-eabi/4.8.3/../../../../arm-none-eabi/lib/armv7-m/libg.a(lib_a-writer.o)
                                                  /home/aaa/.arduino15/packages/arduino/tools/arm-none-eabi-gcc/4.8.3-2014q1/bin/../lib/gcc/arm-none-eabi/4.8.3/../../../../arm-none-eabi/lib/armv7-m/libg.a(lib_a-signalr.o)
                                                  /home/aaa/.arduino15/packages/arduino/tools/arm-none-eabi-gcc/4.8.3-2014q1/bin/../lib/gcc/arm-none-eabi/4.8.3/../../../../arm-none-eabi/lib/armv7-m/libg.a(lib_a-sbrkr.o)
exception_table                                   /home/aaa/.arduino15/packages/arduino/hardware/sam/1.6.12/variants/arduino_due_x/libsam_sam3x8e_gcc_rel.a(startup_sam3xa.o)
exit                                              /home/aaa/.arduino15/packages/arduino/tools/arm-none-eabi-gcc/4.8.3-2014q1/bin/../lib/gcc/arm-none-eabi/4.8.3/../../../../arm-none-eabi/lib/armv7-m/libg.a(lib_a-exit.o)
                                                  /home/aaa/.arduino15/packages/arduino/tools/arm-none-eabi-gcc/4.8.3-2014q1/bin/../lib/gcc/arm-none-eabi/4.8.3/../../../../arm-none-eabi/lib/armv7-m/crt0.o
fclose                                            /home/aaa/.arduino15/packages/arduino/tools/arm-none-eabi-gcc/4.8.3-2014q1/bin/../lib/gcc/arm-none-eabi/4.8.3/../../../../arm-none-eabi/lib/armv7-m/libg.a(lib_a-fclose.o)
                                                  /home/aaa/.arduino15/packages/arduino/tools/arm-none-eabi-gcc/4.8.3-2014q1/bin/../lib/gcc/arm-none-eabi/4.8.3/../../../../arm-none-eabi/lib/armv7-m/libg.a(lib_a-findfp.o)
fflush                                            /home/aaa/.arduino15/packages/arduino/tools/arm-none-eabi-gcc/4.8.3-2014q1/bin/../lib/gcc/arm-none-eabi/4.8.3/../../../../arm-none-eabi/lib/armv7-m/libg.a(lib_a-fflush.o)
fiprintf                                          /home/aaa/.arduino15/packages/arduino/tools/arm-none-eabi-gcc/4.8.3-2014q1/bin/../lib/gcc/arm-none-eabi/4.8.3/../../../../arm-none-eabi/lib/armv7-m/libg.a(lib_a-fiprintf.o)
                                                  /home/aaa/.arduino15/packages/arduino/tools/arm-none-eabi-gcc/4.8.3-2014q1/bin/../lib/gcc/arm-none-eabi/4.8.3/../../../../arm-none-eabi/lib/armv7-m/libg.a(lib_a-assert.o)
fputwc                                            /home/aaa/.arduino15/packages/arduino/tools/arm-none-eabi-gcc/4.8.3-2014q1/bin/../lib/gcc/arm-none-eabi/4.8.3/../../../../arm-none-eabi/lib/armv7-m/libg.a(lib_a-fputwc.o)
free                                              /home/aaa/.arduino15/packages/arduino/tools/arm-none-eabi-gcc/4.8.3-2014q1/bin/../lib/gcc/arm-none-eabi/4.8.3/../../../../arm-none-eabi/lib/armv7-m/libg.a(lib_a-__call_atexit.o)
g_APinDescription                                 /home/aaa/llvm-arduino-due/build/core/variant.cpp.o
                                                  /home/aaa/llvm-arduino-due/build/core.a(wiring_digital.c.o)
                                                  /home/aaa/llvm-arduino-due/build/core.a(wiring_analog.c.o)
g_interrupt_enabled                               /home/aaa/.arduino15/packages/arduino/hardware/sam/1.6.12/variants/arduino_due_x/libsam_sam3x8e_gcc_rel.a(interrupt_sam_nvic.o)
                                                  /home/aaa/.arduino15/packages/arduino/hardware/sam/1.6.12/variants/arduino_due_x/libsam_sam3x8e_gcc_rel.a(uotghs_device.o)
                                                  /home/aaa/llvm-arduino-due/build/core.a(USBCore.cpp.o)
g_pinStatus                                       /home/aaa/llvm-arduino-due/build/core/variant.cpp.o
                                                  /home/aaa/llvm-arduino-due/build/core.a(wiring_digital.c.o)
                                                  /home/aaa/llvm-arduino-due/build/core.a(wiring_analog.c.o)
good()                                            /home/aaa/llvm-arduino-due/build/Blink.ino.cpp.o
gpf_isr                                           /home/aaa/.arduino15/packages/arduino/hardware/sam/1.6.12/variants/arduino_due_x/libsam_sam3x8e_gcc_rel.a(uotghs.o)
                                                  /home/aaa/.arduino15/packages/arduino/hardware/sam/1.6.12/variants/arduino_due_x/libsam_sam3x8e_gcc_rel.a(uotghs_device.o)
hardware_init_hook                                /home/aaa/.arduino15/packages/arduino/tools/arm-none-eabi-gcc/4.8.3-2014q1/bin/../lib/gcc/arm-none-eabi/4.8.3/../../../../arm-none-eabi/lib/armv7-m/crt0.o
init                                              /home/aaa/llvm-arduino-due/build/core/variant.cpp.o
                                                  /home/aaa/llvm-arduino-due/build/Blink.ino.cpp.o
initVariant                                       /home/aaa/llvm-arduino-due/build/Blink.ino.cpp.o
initiateReset                                     /home/aaa/llvm-arduino-due/build/core.a(Reset.cpp.o)
                                                  /home/aaa/llvm-arduino-due/build/core.a(CDC.cpp.o)
kill                                              /home/aaa/.arduino15/packages/arduino/tools/arm-none-eabi-gcc/4.8.3-2014q1/bin/../lib/gcc/arm-none-eabi/4.8.3/../../../../arm-none-eabi/lib/armv7-m/libg.a(lib_a-syskill.o)
link                                              /home/aaa/llvm-arduino-due/build/core.a(syscalls_sam3.c.o)
localeconv                                        /home/aaa/.arduino15/packages/arduino/tools/arm-none-eabi-gcc/4.8.3-2014q1/bin/../lib/gcc/arm-none-eabi/4.8.3/../../../../arm-none-eabi/lib/armv7-m/libg.a(lib_a-locale.o)
loop                                              /home/aaa/llvm-arduino-due/build/Blink.ino.cpp.o
main                                              /home/aaa/llvm-arduino-due/build/Blink.ino.cpp.o
                                                  /home/aaa/.arduino15/packages/arduino/hardware/sam/1.6.12/variants/arduino_due_x/libsam_sam3x8e_gcc_rel.a(startup_sam3xa.o)
                                                  /home/aaa/.arduino15/packages/arduino/tools/arm-none-eabi-gcc/4.8.3-2014q1/bin/../lib/gcc/arm-none-eabi/4.8.3/../../../../arm-none-eabi/lib/armv7-m/crt0.o
malloc                                            /home/aaa/.arduino15/packages/arduino/tools/arm-none-eabi-gcc/4.8.3-2014q1/bin/../lib/gcc/arm-none-eabi/4.8.3/../../../../arm-none-eabi/lib/armv7-m/libg.a(lib_a-__atexit.o)
memchr                                            /home/aaa/.arduino15/packages/arduino/tools/arm-none-eabi-gcc/4.8.3-2014q1/bin/../lib/gcc/arm-none-eabi/4.8.3/../../../../arm-none-eabi/lib/armv7-m/libg.a(lib_a-memchr-stub.o)
                                                  /home/aaa/.arduino15/packages/arduino/tools/arm-none-eabi-gcc/4.8.3-2014q1/bin/../lib/gcc/arm-none-eabi/4.8.3/../../../../arm-none-eabi/lib/armv7-m/libg.a(lib_a-fvwrite.o)
                                                  /home/aaa/.arduino15/packages/arduino/tools/arm-none-eabi-gcc/4.8.3-2014q1/bin/../lib/gcc/arm-none-eabi/4.8.3/../../../../arm-none-eabi/lib/armv7-m/libg.a(lib_a-vfiprintf.o)
memcpy                                            /home/aaa/.arduino15/packages/arduino/tools/arm-none-eabi-gcc/4.8.3-2014q1/bin/../lib/gcc/arm-none-eabi/4.8.3/../../../../arm-none-eabi/lib/armv7-m/libg.a(lib_a-memcpy.o)
                                                  /home/aaa/.arduino15/packages/arduino/tools/arm-none-eabi-gcc/4.8.3-2014q1/bin/../lib/gcc/arm-none-eabi/4.8.3/../../../../arm-none-eabi/lib/armv7-m/libg.a(lib_a-fvwrite.o)
memmove                                           /home/aaa/.arduino15/packages/arduino/tools/arm-none-eabi-gcc/4.8.3-2014q1/bin/../lib/gcc/arm-none-eabi/4.8.3/../../../../arm-none-eabi/lib/armv7-m/libg.a(lib_a-memmove.o)
                                                  /home/aaa/.arduino15/packages/arduino/tools/arm-none-eabi-gcc/4.8.3-2014q1/bin/../lib/gcc/arm-none-eabi/4.8.3/../../../../arm-none-eabi/lib/armv7-m/libg.a(lib_a-reallocr.o)
                                                  /home/aaa/.arduino15/packages/arduino/tools/arm-none-eabi-gcc/4.8.3-2014q1/bin/../lib/gcc/arm-none-eabi/4.8.3/../../../../arm-none-eabi/lib/armv7-m/libg.a(lib_a-fvwrite.o)
memset                                            /home/aaa/.arduino15/packages/arduino/tools/arm-none-eabi-gcc/4.8.3-2014q1/bin/../lib/gcc/arm-none-eabi/4.8.3/../../../../arm-none-eabi/lib/armv7-m/libg.a(lib_a-memset.o)
                                                  /home/aaa/.arduino15/packages/arduino/tools/arm-none-eabi-gcc/4.8.3-2014q1/bin/../lib/gcc/arm-none-eabi/4.8.3/../../../../arm-none-eabi/lib/armv7-m/libg.a(lib_a-findfp.o)
                                                  /home/aaa/llvm-arduino-due/build/core.a(RingBuffer.cpp.o)
                                                  /home/aaa/.arduino15/packages/arduino/tools/arm-none-eabi-gcc/4.8.3-2014q1/bin/../lib/gcc/arm-none-eabi/4.8.3/../../../../arm-none-eabi/lib/armv7-m/crt0.o
micros                                            /home/aaa/llvm-arduino-due/build/core.a(wiring.c.o)
millis                                            /home/aaa/llvm-arduino-due/build/core.a(wiring.c.o)
                                                  /home/aaa/llvm-arduino-due/build/core.a(CDC.cpp.o)
                                                  /home/aaa/llvm-arduino-due/build/Blink.ino.cpp.o
pendSVHook                                        /home/aaa/llvm-arduino-due/build/core.a(hooks.c.o)
                                                  /home/aaa/llvm-arduino-due/build/core.a(cortex_handlers.c.o)
pinMode                                           /home/aaa/llvm-arduino-due/build/core.a(wiring_digital.c.o)
                                                  /home/aaa/llvm-arduino-due/build/core.a(wiring_analog.c.o)
pmc_clr_fast_startup_input                        /home/aaa/.arduino15/packages/arduino/hardware/sam/1.6.12/variants/arduino_due_x/libsam_sam3x8e_gcc_rel.a(pmc.o)
pmc_disable_all_pck                               /home/aaa/.arduino15/packages/arduino/hardware/sam/1.6.12/variants/arduino_due_x/libsam_sam3x8e_gcc_rel.a(pmc.o)
pmc_disable_all_periph_clk                        /home/aaa/.arduino15/packages/arduino/hardware/sam/1.6.12/variants/arduino_due_x/libsam_sam3x8e_gcc_rel.a(pmc.o)
pmc_disable_interrupt                             /home/aaa/.arduino15/packages/arduino/hardware/sam/1.6.12/variants/arduino_due_x/libsam_sam3x8e_gcc_rel.a(pmc.o)
pmc_disable_pck                                   /home/aaa/.arduino15/packages/arduino/hardware/sam/1.6.12/variants/arduino_due_x/libsam_sam3x8e_gcc_rel.a(pmc.o)
pmc_disable_periph_clk                            /home/aaa/.arduino15/packages/arduino/hardware/sam/1.6.12/variants/arduino_due_x/libsam_sam3x8e_gcc_rel.a(pmc.o)
                                                  /home/aaa/llvm-arduino-due/build/core.a(UARTClass.cpp.o)
                                                  /home/aaa/llvm-arduino-due/build/core.a(wiring_digital.c.o)
pmc_disable_pllack                                /home/aaa/.arduino15/packages/arduino/hardware/sam/1.6.12/variants/arduino_due_x/libsam_sam3x8e_gcc_rel.a(pmc.o)
pmc_disable_udpck                                 /home/aaa/.arduino15/packages/arduino/hardware/sam/1.6.12/variants/arduino_due_x/libsam_sam3x8e_gcc_rel.a(pmc.o)
pmc_disable_upll_clock                            /home/aaa/.arduino15/packages/arduino/hardware/sam/1.6.12/variants/arduino_due_x/libsam_sam3x8e_gcc_rel.a(pmc.o)
pmc_enable_all_pck                                /home/aaa/.arduino15/packages/arduino/hardware/sam/1.6.12/variants/arduino_due_x/libsam_sam3x8e_gcc_rel.a(pmc.o)
pmc_enable_all_periph_clk                         /home/aaa/.arduino15/packages/arduino/hardware/sam/1.6.12/variants/arduino_due_x/libsam_sam3x8e_gcc_rel.a(pmc.o)
pmc_enable_backupmode                             /home/aaa/.arduino15/packages/arduino/hardware/sam/1.6.12/variants/arduino_due_x/libsam_sam3x8e_gcc_rel.a(pmc.o)
pmc_enable_interrupt                              /home/aaa/.arduino15/packages/arduino/hardware/sam/1.6.12/variants/arduino_due_x/libsam_sam3x8e_gcc_rel.a(pmc.o)
pmc_enable_pck                                    /home/aaa/.arduino15/packages/arduino/hardware/sam/1.6.12/variants/arduino_due_x/libsam_sam3x8e_gcc_rel.a(pmc.o)
pmc_enable_periph_clk                             /home/aaa/.arduino15/packages/arduino/hardware/sam/1.6.12/variants/arduino_due_x/libsam_sam3x8e_gcc_rel.a(pmc.o)
                                                  /home/aaa/.arduino15/packages/arduino/hardware/sam/1.6.12/variants/arduino_due_x/libsam_sam3x8e_gcc_rel.a(uotghs_device.o)
                                                  /home/aaa/llvm-arduino-due/build/core.a(UARTClass.cpp.o)
                                                  /home/aaa/llvm-arduino-due/build/core.a(wiring_digital.c.o)
                                                  /home/aaa/llvm-arduino-due/build/core.a(wiring_analog.c.o)
                                                  /home/aaa/llvm-arduino-due/build/core/variant.cpp.o
pmc_enable_pllack                                 /home/aaa/.arduino15/packages/arduino/hardware/sam/1.6.12/variants/arduino_due_x/libsam_sam3x8e_gcc_rel.a(pmc.o)
pmc_enable_sleepmode                              /home/aaa/.arduino15/packages/arduino/hardware/sam/1.6.12/variants/arduino_due_x/libsam_sam3x8e_gcc_rel.a(pmc.o)
pmc_enable_udpck                                  /home/aaa/.arduino15/packages/arduino/hardware/sam/1.6.12/variants/arduino_due_x/libsam_sam3x8e_gcc_rel.a(pmc.o)
                                                  /home/aaa/.arduino15/packages/arduino/hardware/sam/1.6.12/variants/arduino_due_x/libsam_sam3x8e_gcc_rel.a(uotghs_device.o)
pmc_enable_upll_clock                             /home/aaa/.arduino15/packages/arduino/hardware/sam/1.6.12/variants/arduino_due_x/libsam_sam3x8e_gcc_rel.a(pmc.o)
                                                  /home/aaa/.arduino15/packages/arduino/hardware/sam/1.6.12/variants/arduino_due_x/libsam_sam3x8e_gcc_rel.a(uotghs_device.o)
pmc_enable_waitmode                               /home/aaa/.arduino15/packages/arduino/hardware/sam/1.6.12/variants/arduino_due_x/libsam_sam3x8e_gcc_rel.a(pmc.o)
pmc_get_interrupt_mask                            /home/aaa/.arduino15/packages/arduino/hardware/sam/1.6.12/variants/arduino_due_x/libsam_sam3x8e_gcc_rel.a(pmc.o)
pmc_get_status                                    /home/aaa/.arduino15/packages/arduino/hardware/sam/1.6.12/variants/arduino_due_x/libsam_sam3x8e_gcc_rel.a(pmc.o)
pmc_get_writeprotect_status                       /home/aaa/.arduino15/packages/arduino/hardware/sam/1.6.12/variants/arduino_due_x/libsam_sam3x8e_gcc_rel.a(pmc.o)
pmc_is_locked_pllack                              /home/aaa/.arduino15/packages/arduino/hardware/sam/1.6.12/variants/arduino_due_x/libsam_sam3x8e_gcc_rel.a(pmc.o)
pmc_is_locked_upll                                /home/aaa/.arduino15/packages/arduino/hardware/sam/1.6.12/variants/arduino_due_x/libsam_sam3x8e_gcc_rel.a(pmc.o)
pmc_is_pck_enabled                                /home/aaa/.arduino15/packages/arduino/hardware/sam/1.6.12/variants/arduino_due_x/libsam_sam3x8e_gcc_rel.a(pmc.o)
pmc_is_periph_clk_enabled                         /home/aaa/.arduino15/packages/arduino/hardware/sam/1.6.12/variants/arduino_due_x/libsam_sam3x8e_gcc_rel.a(pmc.o)
pmc_mck_set_prescaler                             /home/aaa/.arduino15/packages/arduino/hardware/sam/1.6.12/variants/arduino_due_x/libsam_sam3x8e_gcc_rel.a(pmc.o)
pmc_mck_set_source                                /home/aaa/.arduino15/packages/arduino/hardware/sam/1.6.12/variants/arduino_due_x/libsam_sam3x8e_gcc_rel.a(pmc.o)
pmc_osc_disable_fastrc                            /home/aaa/.arduino15/packages/arduino/hardware/sam/1.6.12/variants/arduino_due_x/libsam_sam3x8e_gcc_rel.a(pmc.o)
pmc_osc_disable_xtal                              /home/aaa/.arduino15/packages/arduino/hardware/sam/1.6.12/variants/arduino_due_x/libsam_sam3x8e_gcc_rel.a(pmc.o)
pmc_osc_enable_fastrc                             /home/aaa/.arduino15/packages/arduino/hardware/sam/1.6.12/variants/arduino_due_x/libsam_sam3x8e_gcc_rel.a(pmc.o)
pmc_osc_is_ready_32kxtal                          /home/aaa/.arduino15/packages/arduino/hardware/sam/1.6.12/variants/arduino_due_x/libsam_sam3x8e_gcc_rel.a(pmc.o)
pmc_osc_is_ready_mainck                           /home/aaa/.arduino15/packages/arduino/hardware/sam/1.6.12/variants/arduino_due_x/libsam_sam3x8e_gcc_rel.a(pmc.o)
pmc_pck_set_prescaler                             /home/aaa/.arduino15/packages/arduino/hardware/sam/1.6.12/variants/arduino_due_x/libsam_sam3x8e_gcc_rel.a(pmc.o)
pmc_pck_set_source                                /home/aaa/.arduino15/packages/arduino/hardware/sam/1.6.12/variants/arduino_due_x/libsam_sam3x8e_gcc_rel.a(pmc.o)
pmc_set_fast_startup_input                        /home/aaa/.arduino15/packages/arduino/hardware/sam/1.6.12/variants/arduino_due_x/libsam_sam3x8e_gcc_rel.a(pmc.o)
pmc_set_writeprotect                              /home/aaa/.arduino15/packages/arduino/hardware/sam/1.6.12/variants/arduino_due_x/libsam_sam3x8e_gcc_rel.a(pmc.o)
pmc_switch_mainck_to_fastrc                       /home/aaa/.arduino15/packages/arduino/hardware/sam/1.6.12/variants/arduino_due_x/libsam_sam3x8e_gcc_rel.a(pmc.o)
pmc_switch_mainck_to_xtal                         /home/aaa/.arduino15/packages/arduino/hardware/sam/1.6.12/variants/arduino_due_x/libsam_sam3x8e_gcc_rel.a(pmc.o)
pmc_switch_mck_to_mainck                          /home/aaa/.arduino15/packages/arduino/hardware/sam/1.6.12/variants/arduino_due_x/libsam_sam3x8e_gcc_rel.a(pmc.o)
pmc_switch_mck_to_pllack                          /home/aaa/.arduino15/packages/arduino/hardware/sam/1.6.12/variants/arduino_due_x/libsam_sam3x8e_gcc_rel.a(pmc.o)
pmc_switch_mck_to_sclk                            /home/aaa/.arduino15/packages/arduino/hardware/sam/1.6.12/variants/arduino_due_x/libsam_sam3x8e_gcc_rel.a(pmc.o)
pmc_switch_mck_to_upllck                          /home/aaa/.arduino15/packages/arduino/hardware/sam/1.6.12/variants/arduino_due_x/libsam_sam3x8e_gcc_rel.a(pmc.o)
pmc_switch_pck_to_mainck                          /home/aaa/.arduino15/packages/arduino/hardware/sam/1.6.12/variants/arduino_due_x/libsam_sam3x8e_gcc_rel.a(pmc.o)
pmc_switch_pck_to_pllack                          /home/aaa/.arduino15/packages/arduino/hardware/sam/1.6.12/variants/arduino_due_x/libsam_sam3x8e_gcc_rel.a(pmc.o)
pmc_switch_pck_to_sclk                            /home/aaa/.arduino15/packages/arduino/hardware/sam/1.6.12/variants/arduino_due_x/libsam_sam3x8e_gcc_rel.a(pmc.o)
pmc_switch_pck_to_upllck                          /home/aaa/.arduino15/packages/arduino/hardware/sam/1.6.12/variants/arduino_due_x/libsam_sam3x8e_gcc_rel.a(pmc.o)
pmc_switch_sclk_to_32kxtal                        /home/aaa/.arduino15/packages/arduino/hardware/sam/1.6.12/variants/arduino_due_x/libsam_sam3x8e_gcc_rel.a(pmc.o)
pmc_switch_udpck_to_pllack                        /home/aaa/.arduino15/packages/arduino/hardware/sam/1.6.12/variants/arduino_due_x/libsam_sam3x8e_gcc_rel.a(pmc.o)
pmc_switch_udpck_to_upllck                        /home/aaa/.arduino15/packages/arduino/hardware/sam/1.6.12/variants/arduino_due_x/libsam_sam3x8e_gcc_rel.a(pmc.o)
                                                  /home/aaa/.arduino15/packages/arduino/hardware/sam/1.6.12/variants/arduino_due_x/libsam_sam3x8e_gcc_rel.a(uotghs_device.o)
raise                                             /home/aaa/.arduino15/packages/arduino/tools/arm-none-eabi-gcc/4.8.3-2014q1/bin/../lib/gcc/arm-none-eabi/4.8.3/../../../../arm-none-eabi/lib/armv7-m/libg.a(lib_a-signal.o)
                                                  /home/aaa/.arduino15/packages/arduino/tools/arm-none-eabi-gcc/4.8.3-2014q1/bin/../lib/gcc/arm-none-eabi/4.8.3/../../../../arm-none-eabi/lib/armv7-m/libg.a(lib_a-abort.o)
rx_buffer1                                        /home/aaa/llvm-arduino-due/build/core/variant.cpp.o
rx_buffer2                                        /home/aaa/llvm-arduino-due/build/core/variant.cpp.o
rx_buffer3                                        /home/aaa/llvm-arduino-due/build/core/variant.cpp.o
rx_buffer4                                        /home/aaa/llvm-arduino-due/build/core/variant.cpp.o
serialEvent()                                     /home/aaa/llvm-arduino-due/build/core/variant.cpp.o
serialEvent1()                                    /home/aaa/llvm-arduino-due/build/core/variant.cpp.o
serialEvent2()                                    /home/aaa/llvm-arduino-due/build/core/variant.cpp.o
serialEvent3()                                    /home/aaa/llvm-arduino-due/build/core/variant.cpp.o
serialEventRun()                                  /home/aaa/llvm-arduino-due/build/core/variant.cpp.o
                                                  /home/aaa/llvm-arduino-due/build/Blink.ino.cpp.o
setlocale                                         /home/aaa/.arduino15/packages/arduino/tools/arm-none-eabi-gcc/4.8.3-2014q1/bin/../lib/gcc/arm-none-eabi/4.8.3/../../../../arm-none-eabi/lib/armv7-m/libg.a(lib_a-locale.o)
setup                                             /home/aaa/llvm-arduino-due/build/Blink.ino.cpp.o
signal                                            /home/aaa/.arduino15/packages/arduino/tools/arm-none-eabi-gcc/4.8.3-2014q1/bin/../lib/gcc/arm-none-eabi/4.8.3/../../../../arm-none-eabi/lib/armv7-m/libg.a(lib_a-signal.o)
software_init_hook                                /home/aaa/.arduino15/packages/arduino/tools/arm-none-eabi-gcc/4.8.3-2014q1/bin/../lib/gcc/arm-none-eabi/4.8.3/../../../../arm-none-eabi/lib/armv7-m/crt0.o
strcmp                                            /home/aaa/.arduino15/packages/arduino/tools/arm-none-eabi-gcc/4.8.3-2014q1/bin/../lib/gcc/arm-none-eabi/4.8.3/../../../../arm-none-eabi/lib/armv7-m/libg.a(lib_a-strcmp.o)
                                                  /home/aaa/.arduino15/packages/arduino/tools/arm-none-eabi-gcc/4.8.3-2014q1/bin/../lib/gcc/arm-none-eabi/4.8.3/../../../../arm-none-eabi/lib/armv7-m/libg.a(lib_a-locale.o)
strlen                                            /home/aaa/.arduino15/packages/arduino/tools/arm-none-eabi-gcc/4.8.3-2014q1/bin/../lib/gcc/arm-none-eabi/4.8.3/../../../../arm-none-eabi/lib/armv7-m/libg.a(lib_a-strlen.o)
                                                  /home/aaa/.arduino15/packages/arduino/tools/arm-none-eabi-gcc/4.8.3-2014q1/bin/../lib/gcc/arm-none-eabi/4.8.3/../../../../arm-none-eabi/lib/armv7-m/libg.a(lib_a-vfiprintf.o)
                                                  /home/aaa/llvm-arduino-due/build/core.a(USBCore.cpp.o)
                                                  /home/aaa/llvm-arduino-due/build/core.a(Print.cpp.o)
svcHook                                           /home/aaa/llvm-arduino-due/build/core.a(hooks.c.o)
                                                  /home/aaa/llvm-arduino-due/build/core.a(cortex_handlers.c.o)
sysTickHook                                       /home/aaa/llvm-arduino-due/build/core.a(hooks.c.o)
                                                  /home/aaa/llvm-arduino-due/build/core.a(cortex_handlers.c.o)
system_init_flash                                 /home/aaa/.arduino15/packages/arduino/hardware/sam/1.6.12/variants/arduino_due_x/libsam_sam3x8e_gcc_rel.a(system_sam3xa.o)
tickReset                                         /home/aaa/llvm-arduino-due/build/core.a(Reset.cpp.o)
                                                  /home/aaa/llvm-arduino-due/build/core.a(cortex_handlers.c.o)
tx_buffer1                                        /home/aaa/llvm-arduino-due/build/core/variant.cpp.o
tx_buffer2                                        /home/aaa/llvm-arduino-due/build/core/variant.cpp.o
tx_buffer3                                        /home/aaa/llvm-arduino-due/build/core/variant.cpp.o
tx_buffer4                                        /home/aaa/llvm-arduino-due/build/core/variant.cpp.o
vfiprintf                                         /home/aaa/.arduino15/packages/arduino/tools/arm-none-eabi-gcc/4.8.3-2014q1/bin/../lib/gcc/arm-none-eabi/4.8.3/../../../../arm-none-eabi/lib/armv7-m/libg.a(lib_a-vfiprintf.o)
vtable for HardwareSerial                         /home/aaa/llvm-arduino-due/build/core.a(UARTClass.cpp.o)
vtable for Print                                  /home/aaa/llvm-arduino-due/build/core.a(Print.cpp.o)
                                                  /home/aaa/llvm-arduino-due/build/core.a(UARTClass.cpp.o)
                                                  /home/aaa/llvm-arduino-due/build/core.a(CDC.cpp.o)
vtable for Serial_                                /home/aaa/llvm-arduino-due/build/core.a(CDC.cpp.o)
vtable for Stream                                 /home/aaa/llvm-arduino-due/build/core.a(CDC.cpp.o)
                                                  /home/aaa/llvm-arduino-due/build/core.a(UARTClass.cpp.o)
vtable for UARTClass                              /home/aaa/llvm-arduino-due/build/core.a(UARTClass.cpp.o)
vtable for USARTClass                             /home/aaa/llvm-arduino-due/build/core.a(USARTClass.cpp.o)
watchdogDisable()                                 /home/aaa/llvm-arduino-due/build/core.a(watchdog.cpp.o)
watchdogEnable(unsigned int)                      /home/aaa/llvm-arduino-due/build/core.a(watchdog.cpp.o)
watchdogReset()                                   /home/aaa/llvm-arduino-due/build/core.a(watchdog.cpp.o)
watchdogSetup()                                   /home/aaa/llvm-arduino-due/build/core.a(watchdog.cpp.o)
                                                  /home/aaa/llvm-arduino-due/build/Blink.ino.cpp.o
wcrtomb                                           /home/aaa/.arduino15/packages/arduino/tools/arm-none-eabi-gcc/4.8.3-2014q1/bin/../lib/gcc/arm-none-eabi/4.8.3/../../../../arm-none-eabi/lib/armv7-m/libg.a(lib_a-wcrtomb.o)
yield                                             /home/aaa/llvm-arduino-due/build/core.a(hooks.c.o)
                                                  /home/aaa/llvm-arduino-due/build/core.a(wiring.c.o)
